
controller_sw.elf:     file format elf32-littlenios2
controller_sw.elf
architecture: nios2, flags 0x00000112:
EXEC_P, HAS_SYMS, D_PAGED
start address 0x008001c8

Program Header:
    LOAD off    0x00000074 vaddr 0x00800000 paddr 0x00800000 align 2**0
         filesz 0x0001a2bc memsz 0x0001a2bc flags r-x
    LOAD off    0x0001a330 vaddr 0x0081a2bc paddr 0x0081a2bc align 2**0
         filesz 0x00001c10 memsz 0x00002390 flags rw-

Sections:
Idx Name          Size      VMA       LMA       File off  Algn
  0 .entry        00000020  00800000  00800000  00000074  2**5
                  CONTENTS, ALLOC, LOAD, READONLY, CODE
  1 .exceptions   000001a8  00800020  00800020  00000094  2**2
                  CONTENTS, ALLOC, LOAD, READONLY, CODE
  2 .text         00019320  008001c8  008001c8  0000023c  2**2
                  CONTENTS, ALLOC, LOAD, READONLY, CODE
  3 .rodata       00000dd4  008194e8  008194e8  0001955c  2**2
                  CONTENTS, ALLOC, LOAD, READONLY, DATA
  4 .rwdata       00001c10  0081a2bc  0081a2bc  0001a330  2**2
                  CONTENTS, ALLOC, LOAD, DATA, SMALL_DATA
  5 .bss          00000780  0081becc  0081becc  0001bf40  2**2
                  ALLOC, SMALL_DATA
  6 .sram_0       00000000  0081c64c  0081c64c  0001bf40  2**0
                  CONTENTS
  7 .comment      00001afc  00000000  00000000  0001bf40  2**0
                  CONTENTS, READONLY
  8 .debug_aranges 00001318  00000000  00000000  0001da40  2**3
                  CONTENTS, READONLY, DEBUGGING
  9 .debug_pubnames 00001e9c  00000000  00000000  0001ed58  2**0
                  CONTENTS, READONLY, DEBUGGING
 10 .debug_info   00036da0  00000000  00000000  00020bf4  2**0
                  CONTENTS, READONLY, DEBUGGING
 11 .debug_abbrev 0000ba5e  00000000  00000000  00057994  2**0
                  CONTENTS, READONLY, DEBUGGING
 12 .debug_line   0001f439  00000000  00000000  000633f2  2**0
                  CONTENTS, READONLY, DEBUGGING
 13 .debug_frame  000025f8  00000000  00000000  0008282c  2**2
                  CONTENTS, READONLY, DEBUGGING
 14 .debug_str    0000322f  00000000  00000000  00084e24  2**0
                  CONTENTS, READONLY, DEBUGGING
 15 .debug_alt_sim_info 00000060  00000000  00000000  00088054  2**2
                  CONTENTS, READONLY, DEBUGGING
 16 .debug_ranges 000006b0  00000060  00000060  000880b4  2**0
                  CONTENTS, READONLY, DEBUGGING
 17 .cpu          00000005  00000000  00000000  0008cb88  2**0
                  CONTENTS, READONLY
 18 .simulation_enabled 00000001  00000000  00000000  0008cb8d  2**0
                  CONTENTS, READONLY
 19 .sysid_hash   00000004  00000000  00000000  0008cb8e  2**0
                  CONTENTS, READONLY
 20 .sysid_base   00000004  00000000  00000000  0008cb92  2**0
                  CONTENTS, READONLY
 21 .sysid_time   00000004  00000000  00000000  0008cb96  2**0
                  CONTENTS, READONLY
 22 .stderr_dev   0000000b  00000000  00000000  0008cb9a  2**0
                  CONTENTS, READONLY
 23 .stdin_dev    0000000b  00000000  00000000  0008cba5  2**0
                  CONTENTS, READONLY
 24 .stdout_dev   0000000b  00000000  00000000  0008cbb0  2**0
                  CONTENTS, READONLY
 25 .sopc_system_name 0000000a  00000000  00000000  0008cbbb  2**0
                  CONTENTS, READONLY
 26 .quartus_project_dir 00000035  00000000  00000000  0008cbc5  2**0
                  CONTENTS, READONLY
 27 .jdi          000044a8  00000000  00000000  0008cbfa  2**0
                  CONTENTS, READONLY
SYMBOL TABLE:
00800000 l    d  .entry	00000000 
00800020 l    d  .exceptions	00000000 
008001c8 l    d  .text	00000000 
008194e8 l    d  .rodata	00000000 
0081a2bc l    d  .rwdata	00000000 
0081becc l    d  .bss	00000000 
0081c64c l    d  .sram_0	00000000 
00000000 l    d  .comment	00000000 
00000000 l    d  .debug_aranges	00000000 
00000000 l    d  .debug_pubnames	00000000 
00000000 l    d  .debug_info	00000000 
00000000 l    d  .debug_abbrev	00000000 
00000000 l    d  .debug_line	00000000 
00000000 l    d  .debug_frame	00000000 
00000000 l    d  .debug_str	00000000 
00000000 l    d  .debug_alt_sim_info	00000000 
00000060 l    d  .debug_ranges	00000000 
00000000 l    d  *ABS*	00000000 
00000000 l    d  *ABS*	00000000 
00000000 l    d  *ABS*	00000000 
00000000 l    df *ABS*	00000000 h:/TEACHING/REDHAWK_DUALS/redhawkduals/GM_CONTROLLER1/software/controller_sw_bsp/HAL/src/crt0.S
00000000 l    df *ABS*	00000000 ./HAL/inc/sys/alt_log_printf.h
00000000 l    df *ABS*	00000000 ./system.h
00000000 l    df *ABS*	00000000 ./HAL/inc/sys/alt_log_printf.h
00000000 l    df *ABS*	00000000 h:/TEACHING/REDHAWK_DUALS/redhawkduals/GM_CONTROLLER1/software/controller_sw_bsp/HAL/src/crt0.S
00000000 l    df *ABS*	00000000 ./HAL/inc/nios2.h
00000000 l    df *ABS*	00000000 h:/TEACHING/REDHAWK_DUALS/redhawkduals/GM_CONTROLLER1/software/controller_sw_bsp/HAL/src/crt0.S
00000000 l    df *ABS*	00000000 ./system.h
00000000 l    df *ABS*	00000000 ./linker.h
00000000 l    df *ABS*	00000000 ./system.h
00000000 l    df *ABS*	00000000 h:/TEACHING/REDHAWK_DUALS/redhawkduals/GM_CONTROLLER1/software/controller_sw_bsp/HAL/src/crt0.S
00000000 l    df *ABS*	00000000 <command line>
00000000 l    df *ABS*	00000000 <built-in>
00000000 l    df *ABS*	00000000 /cygdrive/h/TEACHING/REDHAWK_DUALS/redhawkduals/GM_CONTROLLER1/software/controller_sw_bsp//
00000000 l    df *ABS*	00000000 h:/TEACHING/REDHAWK_DUALS/redhawkduals/GM_CONTROLLER1/software/controller_sw_bsp/HAL/src/crt0.S
0080020c l       .text	00000000 alt_after_alt_main
00000000 l    df *ABS*	00000000 h:/TEACHING/REDHAWK_DUALS/redhawkduals/GM_CONTROLLER1/software/controller_sw_bsp/HAL/src/alt_irq_entry.S
00000000 l    df *ABS*	00000000 ./system.h
00000000 l    df *ABS*	00000000 ./linker.h
00000000 l    df *ABS*	00000000 ./system.h
00000000 l    df *ABS*	00000000 h:/TEACHING/REDHAWK_DUALS/redhawkduals/GM_CONTROLLER1/software/controller_sw_bsp/HAL/src/alt_irq_entry.S
00000000 l    df *ABS*	00000000 <command line>
00000000 l    df *ABS*	00000000 <built-in>
00000000 l    df *ABS*	00000000 /cygdrive/h/TEACHING/REDHAWK_DUALS/redhawkduals/GM_CONTROLLER1/software/controller_sw_bsp//
00000000 l    df *ABS*	00000000 h:/TEACHING/REDHAWK_DUALS/redhawkduals/GM_CONTROLLER1/software/controller_sw_bsp/HAL/src/alt_irq_entry.S
00000000 l    df *ABS*	00000000 h:/TEACHING/REDHAWK_DUALS/redhawkduals/GM_CONTROLLER1/software/controller_sw_bsp/HAL/src/alt_exception_entry.S
00000000 l    df *ABS*	00000000 ./system.h
00000000 l    df *ABS*	00000000 ./linker.h
00000000 l    df *ABS*	00000000 ./system.h
00000000 l    df *ABS*	00000000 h:/TEACHING/REDHAWK_DUALS/redhawkduals/GM_CONTROLLER1/software/controller_sw_bsp/HAL/src/alt_exception_entry.S
00000000 l    df *ABS*	00000000 <command line>
00000000 l    df *ABS*	00000000 <built-in>
00000000 l    df *ABS*	00000000 /cygdrive/h/TEACHING/REDHAWK_DUALS/redhawkduals/GM_CONTROLLER1/software/controller_sw_bsp//
00000000 l    df *ABS*	00000000 h:/TEACHING/REDHAWK_DUALS/redhawkduals/GM_CONTROLLER1/software/controller_sw_bsp/HAL/src/alt_exception_entry.S
00000000 l    df *ABS*	00000000 alt_irq_handler.c
00000000 l    df *ABS*	00000000 collision_detection.c
00000000 l    df *ABS*	00000000 draw.c
00000000 l    df *ABS*	00000000 ethernet_isr.c
00000000 l    df *ABS*	00000000 game_loop.c
00000000 l    df *ABS*	00000000 main.c
0081bedc l     O .bss	00000008 time.0
00000000 l    df *ABS*	00000000 ship.c
00000000 l    df *ABS*	00000000 util.c
00000000 l    df *ABS*	00000000 s_cos.c
00000000 l    df *ABS*	00000000 s_sin.c
00000000 l    df *ABS*	00000000 sf_round.c
00000000 l    df *ABS*	00000000 w_sqrt.c
00000000 l    df *ABS*	00000000 e_rem_pio2.c
00819a34 l     O .rodata	00000108 two_over_pi
00819b3c l     O .rodata	00000080 npio2_hw
00000000 l    df *ABS*	00000000 e_sqrt.c
00000000 l    df *ABS*	00000000 k_cos.c
00000000 l    df *ABS*	00000000 k_rem_pio2.c
00819bbc l     O .rodata	00000040 PIo2
00819bfc l     O .rodata	00000010 init_jk
00000000 l    df *ABS*	00000000 k_sin.c
00000000 l    df *ABS*	00000000 s_fabs.c
00000000 l    df *ABS*	00000000 s_floor.c
00000000 l    df *ABS*	00000000 s_isnan.c
00000000 l    df *ABS*	00000000 s_lib_ver.c
00000000 l    df *ABS*	00000000 s_matherr.c
00000000 l    df *ABS*	00000000 s_scalbn.c
00000000 l    df *ABS*	00000000 s_copysign.c
00000000 l    df *ABS*	00000000 libgcc2.c
00000000 l    df *ABS*	00000000 nios2-fp-bit.c
0080a404 l     F .text	000001d8 _fpadd_parts
00000000 l    df *ABS*	00000000 nios2-fp-bit.c
00000000 l    df *ABS*	00000000 nios2-fp-bit.c
00000000 l    df *ABS*	00000000 nios2-fp-bit.c
00000000 l    df *ABS*	00000000 nios2-fp-bit.c
00000000 l    df *ABS*	00000000 nios2-fp-bit.c
00000000 l    df *ABS*	00000000 nios2-fp-bit.c
00000000 l    df *ABS*	00000000 nios2-fp-bit.c
00000000 l    df *ABS*	00000000 nios2-fp-bit.c
00000000 l    df *ABS*	00000000 nios2-fp-bit.c
00000000 l    df *ABS*	00000000 nios2-fp-bit.c
00000000 l    df *ABS*	00000000 nios2-fp-bit.c
00000000 l    df *ABS*	00000000 nios2-fp-bit.c
00000000 l    df *ABS*	00000000 nios2-dp-bit.c
0080ae1c l     F .text	0000031c _fpadd_parts
00000000 l    df *ABS*	00000000 nios2-dp-bit.c
00000000 l    df *ABS*	00000000 nios2-dp-bit.c
00000000 l    df *ABS*	00000000 nios2-dp-bit.c
00000000 l    df *ABS*	00000000 nios2-dp-bit.c
00000000 l    df *ABS*	00000000 nios2-dp-bit.c
00000000 l    df *ABS*	00000000 nios2-dp-bit.c
00000000 l    df *ABS*	00000000 nios2-dp-bit.c
00000000 l    df *ABS*	00000000 nios2-dp-bit.c
00000000 l    df *ABS*	00000000 nios2-dp-bit.c
00000000 l    df *ABS*	00000000 nios2-dp-bit.c
00000000 l    df *ABS*	00000000 nios2-dp-bit.c
00000000 l    df *ABS*	00000000 nios2-dp-bit.c
00000000 l    df *ABS*	00000000 lib2-divmod.c
0080bd58 l     F .text	00000060 udivmodsi4
00000000 l    df *ABS*	00000000 libgcc2.c
00000000 l    df *ABS*	00000000 libgcc2.c
00000000 l    df *ABS*	00000000 libgcc2.c
00000000 l    df *ABS*	00000000 nios2-fp-bit.c
00000000 l    df *ABS*	00000000 nios2-fp-bit.c
00000000 l    df *ABS*	00000000 nios2-fp-bit.c
00000000 l    df *ABS*	00000000 nios2-fp-bit.c
00000000 l    df *ABS*	00000000 nios2-dp-bit.c
00000000 l    df *ABS*	00000000 nios2-dp-bit.c
00000000 l    df *ABS*	00000000 nios2-dp-bit.c
00000000 l    df *ABS*	00000000 libgcc2.c
00000000 l    df *ABS*	00000000 calloc.c
00000000 l    df *ABS*	00000000 mallocr.c
00000000 l    df *ABS*	00000000 errno.c
00000000 l    df *ABS*	00000000 fopen.c
00000000 l    df *ABS*	00000000 fprintf.c
00000000 l    df *ABS*	00000000 fseek.c
00000000 l    df *ABS*	00000000 fstatr.c
00000000 l    df *ABS*	00000000 impure.c
0081a2bc l     O .rwdata	0000037c impure_data
00000000 l    df *ABS*	00000000 int_errno.c
00000000 l    df *ABS*	00000000 makebuf.c
00000000 l    df *ABS*	00000000 malloc.c
00000000 l    df *ABS*	00000000 mallocr.c
00000000 l    df *ABS*	00000000 memcpy.c
00000000 l    df *ABS*	00000000 memset.c
00000000 l    df *ABS*	00000000 openr.c
00000000 l    df *ABS*	00000000 rand.c
00000000 l    df *ABS*	00000000 refill.c
0080d89c l     F .text	00000024 lflush
00000000 l    df *ABS*	00000000 sbrkr.c
00000000 l    df *ABS*	00000000 sprintf.c
00000000 l    df *ABS*	00000000 stdio.c
00000000 l    df *ABS*	00000000 strlen.c
00000000 l    df *ABS*	00000000 vfprintf1.c
0080dd28 l     F .text	00000058 __sprint
00819c34 l     O .rodata	00000010 blanks.0
00819c44 l     O .rodata	00000010 zeroes.1
00000000 l    df *ABS*	00000000 wcrtomb.c
00000000 l    df *ABS*	00000000 wcsrtombs.c
00000000 l    df *ABS*	00000000 wctomb_r.c
00000000 l    df *ABS*	00000000 writer.c
00000000 l    df *ABS*	00000000 wsetup.c
00000000 l    df *ABS*	00000000 closer.c
00000000 l    df *ABS*	00000000 dtoa.c
00810274 l     F .text	000001fc quorem
00000000 l    df *ABS*	00000000 fflush.c
00000000 l    df *ABS*	00000000 findfp.c
00811944 l     F .text	00000058 std
00000000 l    df *ABS*	00000000 findfp1.c
0081bef8 l     O .bss	00000004 lock.0
00000000 l    df *ABS*	00000000 flags.c
00000000 l    df *ABS*	00000000 mallocr.c
00000000 l    df *ABS*	00000000 fvwrite.c
00000000 l    df *ABS*	00000000 fwalk.c
00000000 l    df *ABS*	00000000 locale.c
00819e64 l     O .rodata	00000030 lconv
0081be80 l     O .rwdata	00000004 charset
00000000 l    df *ABS*	00000000 lseekr.c
00000000 l    df *ABS*	00000000 memchr.c
00000000 l    df *ABS*	00000000 memmove.c
00000000 l    df *ABS*	00000000 mprec.c
00819fac l     O .rodata	0000000c p05.0
00000000 l    df *ABS*	00000000 readr.c
00000000 l    df *ABS*	00000000 mallocr.c
00000000 l    df *ABS*	00000000 s_isinf.c
00000000 l    df *ABS*	00000000 strcmp.c
00000000 l    df *ABS*	00000000 libgcc2.c
00000000 l    df *ABS*	00000000 libgcc2.c
00000000 l    df *ABS*	00000000 libgcc2.c
00000000 l    df *ABS*	00000000 alt_close.c
0081486c l     F .text	00000048 alt_get_errno
00000000 l    df *ABS*	00000000 alt_dev.c
008148b4 l     F .text	00000028 alt_dev_null_write
00000000 l    df *ABS*	00000000 alt_errno.c
00000000 l    df *ABS*	00000000 alt_fstat.c
008149b0 l     F .text	00000048 alt_get_errno
00000000 l    df *ABS*	00000000 alt_irq_register.c
00000000 l    df *ABS*	00000000 alt_irq_vars.c
00000000 l    df *ABS*	00000000 alt_isatty.c
00814c5c l     F .text	00000048 alt_get_errno
00000000 l    df *ABS*	00000000 alt_lseek.c
00814d94 l     F .text	00000048 alt_get_errno
00000000 l    df *ABS*	00000000 alt_main.c
00000000 l    df *ABS*	00000000 alt_malloc_lock.c
00000000 l    df *ABS*	00000000 alt_open.c
00814e84 l     F .text	000000c8 alt_file_locked
008150cc l     F .text	00000048 alt_get_errno
00000000 l    df *ABS*	00000000 alt_printf.c
00000000 l    df *ABS*	00000000 alt_putchar.c
00000000 l    df *ABS*	00000000 alt_read.c
0081549c l     F .text	00000048 alt_get_errno
00000000 l    df *ABS*	00000000 alt_release_fd.c
00000000 l    df *ABS*	00000000 alt_sbrk.c
0081beb0 l     O .rwdata	00000004 heap_end
00000000 l    df *ABS*	00000000 alt_usleep.c
00000000 l    df *ABS*	00000000 alt_write.c
0081574c l     F .text	00000048 alt_get_errno
00000000 l    df *ABS*	00000000 alt_sys_init.c
0081ac1c l     O .rwdata	00001060 jtag_uart_0
0081bc7c l     O .rwdata	00000120 lcd_0
0081bd9c l     O .rwdata	00000034 audio_and_video_config_0
0081bdd0 l     O .rwdata	00000030 audio_0
0081be00 l     O .rwdata	00000054 pixel_buffer_0
00815a34 l     F .text	00000030 alt_dev_reg
00000000 l    df *ABS*	00000000 altera_avalon_jtag_uart_fd.c
00000000 l    df *ABS*	00000000 altera_avalon_jtag_uart_init.c
00815c54 l     F .text	00000220 altera_avalon_jtag_uart_irq
00815e74 l     F .text	000000c0 altera_avalon_jtag_uart_timeout
00000000 l    df *ABS*	00000000 altera_avalon_jtag_uart_ioctl.c
00000000 l    df *ABS*	00000000 altera_avalon_jtag_uart_read.c
00000000 l    df *ABS*	00000000 altera_avalon_jtag_uart_write.c
00000000 l    df *ABS*	00000000 altera_avalon_lcd_16207.c
0081beb4 l     O .rwdata	00000004 colstart
00816520 l     F .text	000000a4 lcd_write_command
008165c4 l     F .text	000000c0 lcd_write_data
00816684 l     F .text	000000c0 lcd_clear_screen
00816744 l     F .text	000001b0 lcd_repaint_screen
008168f4 l     F .text	000000b8 lcd_scroll_up
008169ac l     F .text	00000244 lcd_handle_escape
0081705c l     F .text	00000094 alt_lcd_16207_timeout
00000000 l    df *ABS*	00000000 altera_avalon_lcd_16207_fd.c
00000000 l    df *ABS*	00000000 altera_avalon_timer_sc.c
00817270 l     F .text	00000078 alt_avalon_timer_sc_irq
00000000 l    df *ABS*	00000000 altera_up_avalon_pixel_buffer.c
00000000 l    df *ABS*	00000000 alt_alarm_start.c
00000000 l    df *ABS*	00000000 alt_busy_sleep.c
00000000 l    df *ABS*	00000000 alt_dev_llist_insert.c
00818b00 l     F .text	00000048 alt_get_errno
00000000 l    df *ABS*	00000000 alt_do_ctors.c
00000000 l    df *ABS*	00000000 alt_do_dtors.c
00000000 l    df *ABS*	00000000 alt_find_dev.c
00000000 l    df *ABS*	00000000 alt_find_file.c
00000000 l    df *ABS*	00000000 alt_get_fd.c
00000000 l    df *ABS*	00000000 alt_io_redirect.c
00818e18 l     F .text	000000c0 alt_open_fd
00000000 l    df *ABS*	00000000 alt_tick.c
00000000 l    df *ABS*	00000000 altera_nios2_irq.c
00000000 l    df *ABS*	00000000 atexit.c
0081befc l     O .bss	00000004 lock.0
00000000 l    df *ABS*	00000000 ctype_.c
0081a13c l     O .rodata	00000180 _ctype_b
00000000 l    df *ABS*	00000000 exit.c
00000000 l    df *ABS*	00000000 memcmp.c
00000000 l    df *ABS*	00000000 putc.c
00000000 l    df *ABS*	00000000 wbuf.c
00000000 l    df *ABS*	00000000 alt_exit.c
00819498 l     F .text	00000030 alt_sim_halt
00813594 g     F .text	000000b0 _mprec_log10
0080370c g     F .text	00000570 get_player_info
00819e94 g     O .rodata	00000028 __mprec_tinytens
00814ddc g     F .text	00000070 alt_main
00812a4c g     F .text	00000064 _hi0bits
0080c748 g     F .text	00000050 __ashldi3
0081c440 g     O .bss	00000100 alt_irq
00809f28 g     F .text	00000018 fabs
0081254c g     F .text	00000064 _lseek_r
0081828c g     F .text	000000c0 alt_up_pixel_buffer_draw_rectangle
00807da4 g     F .text	0000013c sqrt
00811ba8 g     F .text	000000a8 __sflags
0080b86c g     F .text	0000008c __eqdf2
00800f30 g     F .text	000000e8 calculate_axis_of_ship
0081c64c g       *ABS*	00000000 __alt_heap_start
0080fa50 g     F .text	00000064 _wcrtomb_r
0080dc40 g     F .text	00000078 __sseek
008119c0 g     F .text	0000009c __sinit
00812484 g     F .text	00000088 _setlocale_r
00811a5c g     F .text	0000006c __sfmoreglue
00814e68 g     F .text	0000001c __malloc_unlock
0081736c g     F .text	00000038 alt_up_pixel_buffer_open_dev
0080a85c g     F .text	00000138 __divsf3
00805ef8 g     F .text	00000a44 initialize_power_crystals
0081267c g     F .text	00000108 memmove
008119b0 g     F .text	00000010 _cleanup
00812784 g     F .text	000000b0 _Balloc
0080ad2c g     F .text	00000094 __fixsfsi
00802038 g     F .text	000001dc rotate_a_matrix
008002e0 g     F .text	000000c8 check_wall_collide_ew
0081bf00 g     O .bss	000000a0 p1_ship
0080b984 g     F .text	0000008c __gtdf2
0080c864 g     F .text	00000008 __errno
00800000 g     F .entry	0000001c __reset
0081bef0 g     O .bss	00000002 new_game
0081336c g     F .text	0000017c _d2b
00812ba0 g     F .text	000001d4 _multiply
0080cdd4 g     F .text	00000060 _fstat_r
00818408 g     F .text	000003ac alt_up_pixel_buffer_draw_line
0081bef4 g     O .bss	00000004 errno
0080bca8 g     F .text	00000040 __make_dp
00809f40 g     F .text	00000210 floor
0081beec g     O .bss	00000004 output_packet_reg
0081bed4 g     O .bss	00000002 isr_update
008134e8 g     F .text	000000ac _ratio
00802214 g     F .text	000000c0 copy_matrix_and_round
0080c250 g     F .text	0000002c __make_fp
00802408 g     F .text	0000006c free_matrix
0081bea8 g     O .rwdata	00000004 alt_argv
00823e54 g       *ABS*	00000000 _gp
00815600 g     F .text	0000002c usleep
0080a634 g     F .text	00000064 __subsf3
00812950 g     F .text	000000fc _s2b
00812b64 g     F .text	0000003c _i2b
0081bed8 g     O .bss	00000004 p_edge_capture
0081bed0 g     O .bss	00000004 rotate_matrix
0081aa9c g     O .rwdata	00000180 alt_fd_list
00807ee0 g     F .text	0000083c __ieee754_rem_pio2
00818bf8 g     F .text	00000090 alt_find_dev
0080d65c g     F .text	000000bc memcpy
008029c8 g     F .text	00000b40 draw_letter
008026d8 g     F .text	000000c8 draw_sensor
0081199c g     F .text	00000014 _cleanup_r
0080bb28 g     F .text	000000d0 __floatsidf
00818ed8 g     F .text	00000074 alt_io_redirect
0080ba9c g     F .text	0000008c __ltdf2
008194e8 g       *ABS*	00000000 __DTOR_END__
008190e8 g     F .text	0000001c altera_nios2_irq_init
00816098 g     F .text	00000234 altera_avalon_jtag_uart_read
0080cf7c g     F .text	00000014 malloc
0080be54 g     F .text	00000010 __udivsi3
00807cfc g     F .text	000000a8 roundf
00814b9c g     F .text	000000c0 isatty
00819ee4 g     O .rodata	000000c8 __mprec_tens
0081250c g     F .text	00000008 __locale_charset
00808a38 g     F .text	000003e0 __kernel_cos
0080ac14 g     F .text	00000080 __lesf2
0081be68 g     O .rwdata	00000004 __malloc_top_pad
0081be7c g     O .rwdata	00000004 __mb_cur_max
00812514 g     F .text	0000000c _localeconv_r
00817f0c g     F .text	00000380 alt_up_pixel_buffer_draw_vline
0080da48 g     F .text	0000004c _sbrk_r
0081834c g     F .text	000000bc helper_plot_pixel
0080ce34 g     F .text	00000148 __smakebuf
00813644 g     F .text	00000064 _read_r
0081aa68 g     O .rwdata	0000000c __lc_ctype
0081be94 g     O .rwdata	00000004 alt_max_fd
0080c50c g     F .text	00000128 __unpack_d
0081185c g     F .text	000000e8 fflush
0081be60 g     O .rwdata	00000004 __malloc_max_sbrked_mem
008149f8 g     F .text	000001a4 alt_irq_register
00809c08 g     F .text	00000320 __kernel_sin
0080adc0 g     F .text	0000005c __extendsfdf2
0081bee8 g     O .bss	00000001 game_mode
0080b138 g     F .text	0000006c __adddf3
0080aa14 g     F .text	00000080 __nesf2
00814254 g     F .text	0000051c __umoddi3
00814ca4 g     F .text	000000f0 lseek
0081be54 g     O .rwdata	00000004 __fdlib_version
008136a8 g     F .text	00000550 _realloc_r
0081c64c g       *ABS*	00000000 __bss_end
00818fe8 g     F .text	00000100 alt_tick
00812ab0 g     F .text	000000b4 _lo0bits
00813cf4 g     F .text	00000560 __udivdi3
00819ebc g     O .rodata	00000028 __mprec_bigtens
00812fd8 g     F .text	00000064 __mcmp
0081bec8 g     O .rwdata	00000004 __ctype_ptr
00818f4c g     F .text	0000009c alt_alarm_stop
0081be9c g     O .rwdata	00000004 alt_irq_active
008000ec g     F .exceptions	000000dc alt_irq_handler
0081aa74 g     O .rwdata	00000028 alt_dev_null
00808e18 g     F .text	00000df0 __kernel_rem_pio2
0080c0a8 g     F .text	000000b4 __unpack_f
008173a4 g     F .text	000001a0 alt_up_pixel_buffer_draw
0080bbf8 g     F .text	000000b0 __fixdfsi
0080c798 g     F .text	0000001c calloc
00800404 g     F .text	00000b2c ships_seperating_axis_theorem_collision_detect
00813bf8 g     F .text	00000044 isinf
0081be8c g     O .rwdata	00000008 alt_dev_list
0081562c g     F .text	00000120 write
0080aa94 g     F .text	00000080 __gtsf2
008148dc g     F .text	000000d4 fstat
0080c978 g     F .text	00000024 fprintf
0080bf24 g     F .text	00000050 __lshrdi3
00805db8 g     F .text	00000140 degrade_crystals_based_on_shot
0081be78 g     O .rwdata	00000004 __nlocale_changed
0080be64 g     F .text	00000010 __umodsi3
008003a8 g     F .text	0000005c check_ships_collide
0081c64c g       *ABS*	00000000 end
0080bf74 g     F .text	00000134 __pack_f
00816bf0 g     F .text	0000046c altera_avalon_lcd_16207_write
0080179c g     F .text	000000bc is_ccw_abc
0080cdb0 g     F .text	00000024 fseek
00812d74 g     F .text	0000012c _pow5mult
00815b9c g     F .text	000000b8 altera_avalon_jtag_uart_init
008194e8 g       *ABS*	00000000 __CTOR_LIST__
01000000 g       *ABS*	00000000 __alt_stack_pointer
008172e8 g     F .text	00000084 alt_avalon_timer_sc_init
008162cc g     F .text	00000254 altera_avalon_jtag_uart_write
00807a1c g     F .text	00000170 cos
008125b0 g     F .text	000000cc memchr
0080dd80 g     F .text	00001c64 ___vfprintf_internal_r
0080da94 g     F .text	00000058 _sprintf_r
00811d74 g     F .text	000002b8 _free_r
00815114 g     F .text	00000234 alt_printf
0080fad8 g     F .text	00000140 _wcsrtombs_r
00802384 g     F .text	00000084 allocate_matrix
0080745c g     F .text	00000564 set_power_link
0081be74 g     O .rwdata	00000004 __mlocale_changed
0080693c g     F .text	00000560 power_calculation
0081be64 g     O .rwdata	00000004 __malloc_sbrk_base
008001c8 g     F .text	00000048 _start
0081beb8 g     O .rwdata	00000004 _alt_tick_rate
0080293c g     F .text	0000008c draw_string
00807b8c g     F .text	00000170 sin
0080d82c g     F .text	00000070 rand
0081bebc g     O .rwdata	00000004 _alt_nticks
0081537c g     F .text	00000120 read
008157c4 g     F .text	00000270 alt_sys_init
0080ac94 g     F .text	00000098 __floatsisf
0080d7b4 g     F .text	00000064 _open_r
0080fc18 g     F .text	0000003c wcsrtombs
00815f34 g     F .text	0000006c altera_avalon_jtag_uart_close
0081a638 g     O .rwdata	00000028 __malloc_current_mallinfo
0080a994 g     F .text	00000080 __eqsf2
0081202c g     F .text	00000384 __sfvwrite
00801018 g     F .text	00000784 straight_line_vector_projection
0080bf04 g     F .text	00000020 __negdi2
00815a64 g     F .text	00000054 altera_avalon_jtag_uart_read_fd
00818d6c g     F .text	000000ac alt_get_fd
00818908 g     F .text	00000148 alt_busy_sleep
00801f80 g     F .text	000000b8 translate_a_matrix
0080c634 g     F .text	00000114 __fpcmp_parts_d
00810218 g     F .text	0000005c _close_r
008027a0 g     F .text	000000c4 clean_shot
00819284 g     F .text	00000070 memcmp
00815b0c g     F .text	00000044 altera_avalon_jtag_uart_close_fd
0081c64c g       *ABS*	00000000 __alt_stack_base
00815b50 g     F .text	0000004c altera_avalon_jtag_uart_ioctl_fd
00803d14 g     F .text	000003d8 update_packets_to_send_back
0080b61c g     F .text	00000250 __divdf3
00811ac8 g     F .text	000000e0 __sfp
0081a660 g     O .rwdata	00000408 __malloc_av_
0080b21c g     F .text	00000400 __muldf3
0080db50 g     F .text	00000070 __sread
00819c0c g     O .rodata	00000010 __thenan_sf
008079c0 g     F .text	0000005c number_to_character_string
00818c88 g     F .text	000000e4 alt_find_file
00818a50 g     F .text	000000b0 alt_dev_llist_insert
00814e4c g     F .text	0000001c __malloc_lock
00815540 g     F .text	000000c0 sbrk
00817544 g     F .text	00000054 alt_up_pixel_buffer_change_back_buffer_address
0080c7b4 g     F .text	000000b0 _calloc_r
00801ed8 g     F .text	000000a8 init_draw
0080c95c g     F .text	0000001c fopen
0081becc g       *ABS*	00000000 __bss_start
0080d718 g     F .text	0000009c memset
00804f50 g     F .text	0000074c main
0081beac g     O .rwdata	00000004 alt_envp
0081be5c g     O .rwdata	00000004 __malloc_max_total_mem
00815ab8 g     F .text	00000054 altera_avalon_jtag_uart_write_fd
00819380 g     F .text	00000118 __swbuf
0080d818 g     F .text	00000014 srand
0080ab94 g     F .text	00000080 __ltsf2
008131c0 g     F .text	00000088 _ulp
008170f0 g     F .text	0000012c altera_avalon_lcd_16207_init
0080dcb8 g     F .text	00000014 __sclose
0080a184 g     F .text	00000008 matherr
01000000 g       *ABS*	00000000 __alt_heap_limit
0080bce8 g     F .text	00000070 __truncdfsf2
0081c540 g     O .bss	0000010c _atexit0
00810470 g     F .text	000013ec _dtoa_r
0080cfa4 g     F .text	000006b8 _malloc_r
0081be98 g     O .rwdata	00000004 alt_errno
00802614 g     F .text	000000c4 clean_sensor
00801858 g     F .text	00000354 draw_ship
008123b0 g     F .text	000000d4 _fwalk
00817598 g     F .text	00000050 alt_up_pixel_buffer_swap_buffers
008192f4 g     F .text	0000008c putc
0080bdb8 g     F .text	00000050 __divsi3
0081bfa0 g     O .bss	00000400 packets
00819c1c g     O .rodata	00000014 __thenan_df
00811c50 g     F .text	00000124 _malloc_trim_r
008194e8 g       *ABS*	00000000 __CTOR_END__
0080a698 g     F .text	000001c4 __mulsf3
00813c3c g     F .text	000000b8 strcmp
008194e8 g       *ABS*	00000000 __DTOR_LIST__
00802474 g     F .text	000001a0 matrix_mult
0080a374 g     F .text	00000024 copysign
0080b8f8 g     F .text	0000008c __nedf2
01080000 g       *ABS*	00000000 __alt_mem_sram_0
00815794 g     F .text	00000030 alt_irq_init
008154e4 g     F .text	0000005c alt_release_fd
00805bc8 g     F .text	000001f0 re_init_ship
0081010c g     F .text	0000010c __swsetup
0080daec g     F .text	00000064 sprintf
00819fb8 g     O .rodata	00000100 .hidden __clz_tab
0081be70 g     O .rwdata	00000004 _PathLocale
00806e9c g     F .text	000005c0 lookup_power_link
00819104 g     F .text	0000009c atexit
0080ab14 g     F .text	00000080 __gesf2
008100a8 g     F .text	00000064 _write_r
00813248 g     F .text	00000124 _b2d
00812520 g     F .text	0000001c setlocale
00801bac g     F .text	0000032c clean_ship
0081be58 g     O .rwdata	00000004 _impure_ptr
00800210 g     F .text	000000d0 check_wall_collide_ns
0081bea4 g     O .rwdata	00000004 alt_argc
0080a18c g     F .text	000001e8 scalbn
00818ba0 g     F .text	00000058 _do_dtors
0081becc g     O .bss	00000004 translate_matrix
0080c99c g     F .text	00000414 _fseek_r
0080a150 g     F .text	00000034 isnan
00800000 g       *ABS*	00000000 __alt_mem_sdram_0
00800020 g       .exceptions	00000000 alt_irq_entry
0080569c g     F .text	00000410 init_ship
0081721c g     F .text	00000054 altera_avalon_lcd_16207_write_fd
00817618 g     F .text	00000150 alt_up_pixel_buffer_clear_screen
0081be84 g     O .rwdata	00000008 alt_fs_list
00803cd8 g     F .text	0000003c disable_packet_interrupt
0081253c g     F .text	00000010 localeconv
00812858 g     F .text	000000f8 _multadd
0080368c g     F .text	00000080 timer_packet_interrupt_isr
0080871c g     F .text	0000031c __ieee754_sqrt
008175e8 g     F .text	00000030 alt_up_pixel_buffer_check_swap_buffers_status
00803508 g     F .text	00000184 draw_font
0081becc g       *ABS*	00000000 _edata
0081c64c g       *ABS*	00000000 _end
00815fa0 g     F .text	000000f8 altera_avalon_jtag_uart_ioctl
0080dbc0 g     F .text	00000080 __swrite
0081be6c g     O .rwdata	00000004 __malloc_trim_threshold
008191a0 g     F .text	000000e4 exit
008040ec g     F .text	00000e18 game_loop
0081303c g     F .text	00000184 __mdiff
0080be08 g     F .text	0000004c __modsi3
01000000 g       *ABS*	00000000 __alt_data_end
008022d4 g     F .text	000000b0 copy_matrix
00800020 g     F .exceptions	00000000 alt_exception
0081a1bb g       .rodata	00000000 _ctype_
00803c7c g     F .text	0000005c init_packet_interrupt_isr
0080a398 g     F .text	0000006c __fixunssfsi
0080c15c g     F .text	000000f4 __fpcmp_parts_f
0080c86c g     F .text	000000f0 _fopen_r
008194c8 g     F .text	00000020 _exit
008187b4 g     F .text	00000154 alt_alarm_start
0080be74 g     F .text	00000090 __muldi3
0081bee4 g     O .bss	00000004 pixel_buf_dev
0080dccc g     F .text	0000005c strlen
00817c0c g     F .text	00000300 alt_up_pixel_buffer_draw_hline
00814f4c g     F .text	00000180 open
0080ba10 g     F .text	0000008c __gedf2
00815348 g     F .text	00000034 alt_putchar
00804f04 g     F .text	0000004c get_opponent_ship
0080d8c0 g     F .text	00000188 __srefill
00805aac g     F .text	0000011c reset_ship
0081bea0 g     O .rwdata	00000004 alt_priority_mask
0081c3a0 g     O .bss	000000a0 p2_ship
0080f9e4 g     F .text	0000006c __vfprintf_internal
0080fc54 g     F .text	00000454 _wctomb_r
0080b1a4 g     F .text	00000078 __subdf3
00817768 g     F .text	000004a4 alt_up_pixel_buffer_draw_box
0081bec0 g     O .rwdata	00000008 alt_alarm_list
00818b48 g     F .text	00000058 _do_ctors
00802864 g     F .text	000000d8 draw_shot
0080fab4 g     F .text	00000024 wcrtomb
00814770 g     F .text	000000fc close
0080a5dc g     F .text	00000058 __addsf3
0080c27c g     F .text	00000290 __pack_d
00812ea0 g     F .text	00000138 _lshift
0080cf90 g     F .text	00000014 free
00812834 g     F .text	00000024 _Bfree


Disassembly of section .entry:

00800000 <__reset>:
    /* Assume the instruction cache size is always a power of two. */
#if NIOS2_ICACHE_SIZE > 0x8000
    movhi r2, %hi(NIOS2_ICACHE_SIZE)
#else
    movui r2, NIOS2_ICACHE_SIZE
  800000:	00840014 	movui	r2,4096
#endif

0:
    initi r2
  800004:	1001483a 	initi	r2
    addi r2, r2, -NIOS2_ICACHE_LINE_SIZE
  800008:	10bff804 	addi	r2,r2,-32
    bgt r2, zero, 0b
  80000c:	00bffd16 	blt	zero,r2,800004 <__alt_mem_sdram_0+0x4>
1:

    /*
     * The following debug information tells the ISS not to run the loop above
     * but to perform its actions using faster internal code.
     */
    .pushsection .debug_alt_sim_info
    .int 1, 1, 0b, 1b
    .popsection
#endif /* Initialize Instruction Cache */

/*
 * Jump to the _start entry point in the .text section if reset code
 * is allowed or if optimizing for RTL simulation.
 */
#if defined(ALT_ALLOW_CODE_AT_RESET) || defined(ALT_SIM_OPTIMIZE)
    /* Jump to the _start entry point in the .text section. */
    movhi r1, %hi(_start)
  800010:	00402034 	movhi	at,128
    ori r1, r1, %lo(_start)
  800014:	08407214 	ori	at,at,456
    jmp r1
  800018:	0800683a 	jmp	at
  80001c:	00000000 	call	0 <__alt_mem_sdram_0-0x800000>
Disassembly of section .exceptions:

00800020 <alt_exception>:
         * caller saved registers on the stack (See the Nios2 ABI
         * documentation for details).
         */

        addi  sp, sp, -76
  800020:	deffed04 	addi	sp,sp,-76

#ifdef ALT_STACK_CHECK

        bltu  sp, et, .Lstack_overflow

#endif

#endif

        stw   ra,  0(sp)
  800024:	dfc00015 	stw	ra,0(sp)

        /*
         * Leave a gap in the stack frame at 4(sp) for the muldiv handler to
         * store zero into.
         */

        stw   r1,   8(sp)
  800028:	d8400215 	stw	at,8(sp)
        stw   r2,  12(sp)
  80002c:	d8800315 	stw	r2,12(sp)
        stw   r3,  16(sp)
  800030:	d8c00415 	stw	r3,16(sp)
        stw   r4,  20(sp)
  800034:	d9000515 	stw	r4,20(sp)
        stw   r5,  24(sp)
  800038:	d9400615 	stw	r5,24(sp)
        stw   r6,  28(sp)
  80003c:	d9800715 	stw	r6,28(sp)
        stw   r7,  32(sp)
  800040:	d9c00815 	stw	r7,32(sp)

        rdctl r5, estatus
  800044:	000b307a 	rdctl	r5,estatus

        stw   r8,  36(sp)
  800048:	da000915 	stw	r8,36(sp)
        stw   r9,  40(sp)
  80004c:	da400a15 	stw	r9,40(sp)
        stw   r10, 44(sp)
  800050:	da800b15 	stw	r10,44(sp)
        stw   r11, 48(sp)
  800054:	dac00c15 	stw	r11,48(sp)
        stw   r12, 52(sp)
  800058:	db000d15 	stw	r12,52(sp)
        stw   r13, 56(sp)
  80005c:	db400e15 	stw	r13,56(sp)
        stw   r14, 60(sp)
  800060:	db800f15 	stw	r14,60(sp)
        stw   r15, 64(sp)
  800064:	dbc01015 	stw	r15,64(sp)

        /*
         * ea-4 contains the address of the instruction being executed
         * when the exception occured. For interrupt exceptions, we will
         * will be re-issue the isntruction. Store it in 72(sp)
         */
        stw   r5,  68(sp)  /* estatus */
  800068:	d9401115 	stw	r5,68(sp)
        addi  r15, ea, -4  /* instruction that caused exception */
  80006c:	ebffff04 	addi	r15,ea,-4
        stw   r15,  72(sp)
  800070:	dbc01215 	stw	r15,72(sp)
        /*
         * Test to see if the exception was a software exception or caused 
         * by an external interrupt, and vector accordingly.
         */
        rdctl r4, ipending
  800074:	0009313a 	rdctl	r4,ipending
        andi  r2, r5, 1
  800078:	2880004c 	andi	r2,r5,1
        beq   r2, zero, .Lnot_irq
  80007c:	10000326 	beq	r2,zero,80008c <alt_exception+0x6c>
        beq   r4, zero, .Lnot_irq
  800080:	20000226 	beq	r4,zero,80008c <alt_exception+0x6c>
#endif /* ALT_CI_INTERRUPT_VECTOR_N */

        .section .exceptions.irqhandler, "xa"
        /*
         * Now that all necessary registers have been preserved, call 
         * alt_irq_handler() to process the interrupts.
         */

        call alt_irq_handler
  800084:	08000ec0 	call	8000ec <alt_irq_handler>

        .section .exceptions.irqreturn, "xa"

        br    .Lexception_exit
  800088:	00000306 	br	800098 <alt_exception+0x78>

        /*
         * The interrupt testing code (.exceptions.irqtest) will be
         * linked here here. If an interrupt is active, it calls the HAL
         * IRQ handler (alt_irq_handler()) which successively calls
         * registered interrupt handler(s) until no interrupts remain
         * pending. It then jumps to .exceptions.exit. If there is no
         * interrupt then it continues to .exception.notirq, below.
         */

        .section .exceptions.notirq, "xa"

        /*
         * Prepare to service unimplemtned instructions or traps,
         * each of which is optionally inked into section .exceptions.soft,
         * which will preceed .exceptions.unknown below.
         *
         * Unlike interrupts, we want to skip the exception-causing instructon
         * upon completion, so we write ea (address of instruction *after*
         * the one where the exception occured) into 72(sp). The actual
         * instruction that caused the exception is written in r2, which these
         * handlers will utilize.
         */
        stw   ea,  72(sp)  /* Don't re-issue */
  80008c:	df401215 	stw	ea,72(sp)
        ldw   r2, -4(ea)   /* Instruction that caused exception */
  800090:	e8bfff17 	ldw	r2,-4(ea)

        /*
         * Other exception handling code, if enabled, will be linked here.
         * This includes unimplemted (multiply/divide) instruction support
         * (a BSP generaton option), and a trap handler (that would typically
         * be augmented with user-specific code). These are not linked in by
         * default.
         */

        /*
         * In the context of linker sections, "unknown" are all exceptions
         * not handled by the built-in handlers above (interupt, and trap or
         * unimplemented instruction decoding, if enabled).
         *
         * Advanced exception types can be serviced by registering a handler.
         * To do so, enable the "Enable Instruction-related Exception API" HAL
         * BSP setting. If this setting is disabled, this handler code will
         * either break (if the debug core is present) or enter an infinite
         * loop because we don't how how to handle the exception.
         */
        .section .exceptions.unknown
#ifdef ALT_INCLUDE_INSTRUCTION_RELATED_EXCEPTION_API
        /*
         * The C-based HAL routine alt_instruction_exception_entry() will
         * attempt to service the exception by calling a user-registered
         * exception handler using alt_instruction_exception_register().
         * If no handler was registered it will either break (if the
         * debugger is present) or go into an infinite loop since the
         * handling behavior is undefined; in that case we will not return here.
         */

        /* Load exception-causing address as first argument (r4) */
        addi   r4, ea, -4

        /* Call the instruction-exception entry */
        call   alt_instruction_exception_entry

        /*
         * If alt_instruction_exception_entry() returned, the exception was
         * serviced by a user-registered routine. Its return code (now in r2)
         * indicates whether to re-issue or skip the exception-causing
         * instruction
         *
         * Return code was 0: Skip. The instruction after the exception is
         * already stored in 72(sp).
         */
        bne   r2, r0, .Lexception_exit

        /*
         * Otherwise, modify 72(sp) to re-issue the instruction that caused the
         * exception.
         */
        addi  r15, ea, -4  /* instruction that caused exception */
        stw   r15,  72(sp)

#else /* ALT_INCLUDE_INSTRUCTION_RELATED_EXCEPTION_API disabled */

        /*
         * We got here because an instruction-related exception occured, but the
         * handler API was not compiled in. We do not presume to know how to
         * handle it. If the debugger is present, break, otherwise hang.
         *
         *  If you get here then one of the following could have happened:
         *
         *  - An instruction-generated exception occured, and the processor
         *    does not have the extra exceptions feature enabled, or you
         *    have not registered a handler using
         *    alt_instruction_exception_register()
         *
         *  Some examples of instruction-generated exceptions and why they
         *  might occur:
         *
         *  - Your program could have been compiled for a full-featured
         *    Nios II core, but it is running on a smaller core, and
         *    instruction emulation has been disabled by defining
         *    ALT_NO_INSTRUCTION_EMULATION.
         *
         *    You can work around the problem by re-enabling instruction
         *    emulation, or you can figure out why your program is being
         *    compiled for a system other than the one that it is running on.
         *
         *  - Your program has executed a trap instruction, but has not
         *    implemented a handler for this instruction.
         *
         *  - Your program has executed an illegal instruction (one which is
         *    not defined in the instruction set).
         *
         *  - Your processor includes an MMU or MPU, and you have enabled it
         *    before registering an exception handler to service exceptions it
         *    generates.
         *
         * The problem could also be hardware related:
         *  - If your hardware is broken and is generating spurious interrupts
         *    (a peripheral which negates its interrupt output before its
         *    interrupt handler has been executed will cause spurious
         *    interrupts)
         */
#ifdef NIOS2_HAS_DEBUG_STUB
       /*
        *  Either tell the user now (if there is a debugger attached) or go into
        *  the debug monitor which will loop until a debugger is attached.
        */
        break
  800094:	003da03a 	break	0
#else
       /*
        *  If there is no debug stub then a BREAK will probably cause a reboot.
        *  An infinate loop will probably be more useful.
        */
0:
        br   0b
#endif /* NIOS2_HAS_DEBUG_STUB */

#endif /* ALT_INCLUDE_INSTRUCTION_RELATED_EXCEPTION_API */

        .section .exceptions.exit.label
.Lexception_exit:

        .section .exceptions.exit, "xa"

        /* 
         * Restore the saved registers, so that all general purpose registers 
         * have been restored to their state at the time the interrupt occured.
         */

        ldw   r5,  68(sp)
  800098:	d9401117 	ldw	r5,68(sp)
        ldw   ea,  72(sp)  /* This becomes the PC once eret is executed */
  80009c:	df401217 	ldw	ea,72(sp)
        ldw   ra,   0(sp)
  8000a0:	dfc00017 	ldw	ra,0(sp)

        wrctl estatus, r5
  8000a4:	2801707a 	wrctl	estatus,r5

        ldw   r1,   8(sp)
  8000a8:	d8400217 	ldw	at,8(sp)
        ldw   r2,  12(sp)
  8000ac:	d8800317 	ldw	r2,12(sp)
        ldw   r3,  16(sp)
  8000b0:	d8c00417 	ldw	r3,16(sp)
        ldw   r4,  20(sp)
  8000b4:	d9000517 	ldw	r4,20(sp)
        ldw   r5,  24(sp)
  8000b8:	d9400617 	ldw	r5,24(sp)
        ldw   r6,  28(sp)
  8000bc:	d9800717 	ldw	r6,28(sp)
        ldw   r7,  32(sp)
  8000c0:	d9c00817 	ldw	r7,32(sp)

#ifdef ALT_EXCEPTION_STACK
#ifdef ALT_STACK_CHECK
        ldw   et, %gprel(alt_exception_old_stack_limit)(gp)
#endif
#endif

        ldw   r8,  36(sp)
  8000c4:	da000917 	ldw	r8,36(sp)
        ldw   r9,  40(sp)
  8000c8:	da400a17 	ldw	r9,40(sp)
        ldw   r10, 44(sp)
  8000cc:	da800b17 	ldw	r10,44(sp)
        ldw   r11, 48(sp)
  8000d0:	dac00c17 	ldw	r11,48(sp)
        ldw   r12, 52(sp)
  8000d4:	db000d17 	ldw	r12,52(sp)
        ldw   r13, 56(sp)
  8000d8:	db400e17 	ldw	r13,56(sp)
        ldw   r14, 60(sp)
  8000dc:	db800f17 	ldw	r14,60(sp)
        ldw   r15, 64(sp)
  8000e0:	dbc01017 	ldw	r15,64(sp)

#ifdef ALT_EXCEPTION_STACK

#ifdef ALT_STACK_CHECK
        stw   et, %gprel(alt_stack_limit_value)(gp)
        stw   zero, %gprel(alt_exception_old_stack_limit)(gp)
#endif

        ldw   sp,  76(sp)

#else
        addi  sp, sp, 76
  8000e4:	dec01304 	addi	sp,sp,76

#endif

        /*
         * Return to the interrupted instruction.
         */

        eret
  8000e8:	ef80083a 	eret

008000ec <alt_irq_handler>:
 */

void alt_irq_handler (void) __attribute__ ((section (".exceptions")));
void alt_irq_handler (void)
{
  8000ec:	defff904 	addi	sp,sp,-28
  8000f0:	dfc00615 	stw	ra,24(sp)
  8000f4:	df000515 	stw	fp,20(sp)
  8000f8:	df000504 	addi	fp,sp,20
  8000fc:	0005313a 	rdctl	r2,ipending
  800100:	e0bfff15 	stw	r2,-4(fp)
  800104:	e0bfff17 	ldw	r2,-4(fp)
  800108:	e0bffe15 	stw	r2,-8(fp)
  80010c:	e0bffe17 	ldw	r2,-8(fp)
  800110:	e0bffb15 	stw	r2,-20(fp)
#ifdef ALT_CI_INTERRUPT_VECTOR
  alt_32 offset;
  char*  alt_irq_base = (char*)alt_irq;
#else
  alt_u32 active;
  alt_u32 mask;
  alt_u32 i;
#endif /* ALT_CI_INTERRUPT_VECTOR */
  
  /*
   * Notify the operating system that we are at interrupt level.
   */ 
  
  ALT_OS_INT_ENTER();

#ifdef ALT_CI_INTERRUPT_VECTOR
  /*
   * Call the interrupt vector custom instruction using the 
   * ALT_CI_INTERRUPT_VECTOR macro.
   * It returns the offset into the vector table of the lowest-valued pending
   * interrupt (corresponds to highest priority) or a negative value if none.
   * The custom instruction assumes that each table entry is eight bytes.
   */
  while ((offset = ALT_CI_INTERRUPT_VECTOR) >= 0) {
    struct ALT_IRQ_HANDLER* handler_entry = 
      (struct ALT_IRQ_HANDLER*)(alt_irq_base + offset);
#ifdef ALT_ENHANCED_INTERRUPT_API_PRESENT
    handler_entry->handler(handler_entry->context);
#else
    handler_entry->handler(handler_entry->context, offset >> 3);
#endif
  }
#else /* ALT_CI_INTERRUPT_VECTOR */
  /* 
   * Obtain from the interrupt controller a bit list of pending interrupts,
   * and then process the highest priority interrupt. This process loops, 
   * loading the active interrupt list on each pass until alt_irq_pending() 
   * return zero.
   * 
   * The maximum interrupt latency for the highest priority interrupt is
   * reduced by finding out which interrupts are pending as late as possible.
   * Consider the case where the high priority interupt is asserted during
   * the interrupt entry sequence for a lower priority interrupt to see why
   * this is the case.
   */

  active = alt_irq_pending ();

  do
  {
    i = 0;
  800114:	e03ffd15 	stw	zero,-12(fp)
    mask = 1;
  800118:	00800044 	movi	r2,1
  80011c:	e0bffc15 	stw	r2,-16(fp)

    /*
     * Test each bit in turn looking for an active interrupt. Once one is 
     * found, the interrupt handler asigned by a call to alt_irq_register() is
     * called to clear the interrupt condition.
     */

    do
    {
      if (active & mask)
  800120:	e0fffb17 	ldw	r3,-20(fp)
  800124:	e0bffc17 	ldw	r2,-16(fp)
  800128:	1884703a 	and	r2,r3,r2
  80012c:	1005003a 	cmpeq	r2,r2,zero
  800130:	1000101e 	bne	r2,zero,800174 <alt_irq_handler+0x88>
      { 
#ifdef ALT_ENHANCED_INTERRUPT_API_PRESENT
        alt_irq[i].handler(alt_irq[i].context); 
#else
        alt_irq[i].handler(alt_irq[i].context, i); 
  800134:	00c020b4 	movhi	r3,130
  800138:	18f11004 	addi	r3,r3,-15296
  80013c:	e0bffd17 	ldw	r2,-12(fp)
  800140:	10800224 	muli	r2,r2,8
  800144:	10c9883a 	add	r4,r2,r3
  800148:	00c020b4 	movhi	r3,130
  80014c:	18f11004 	addi	r3,r3,-15296
  800150:	e0bffd17 	ldw	r2,-12(fp)
  800154:	10800224 	muli	r2,r2,8
  800158:	10c5883a 	add	r2,r2,r3
  80015c:	10800104 	addi	r2,r2,4
  800160:	20c00017 	ldw	r3,0(r4)
  800164:	11000017 	ldw	r4,0(r2)
  800168:	e17ffd17 	ldw	r5,-12(fp)
  80016c:	183ee83a 	callr	r3
#endif
        break;
  800170:	00000706 	br	800190 <alt_irq_handler+0xa4>
      }
      mask <<= 1;
  800174:	e0bffc17 	ldw	r2,-16(fp)
  800178:	1085883a 	add	r2,r2,r2
  80017c:	e0bffc15 	stw	r2,-16(fp)
      i++;
  800180:	e0bffd17 	ldw	r2,-12(fp)
  800184:	10800044 	addi	r2,r2,1
  800188:	e0bffd15 	stw	r2,-12(fp)

    } while (1);
  80018c:	003fe406 	br	800120 <alt_irq_handler+0x34>
  800190:	0005313a 	rdctl	r2,ipending
  800194:	e0bffe15 	stw	r2,-8(fp)
  800198:	e0bffe17 	ldw	r2,-8(fp)
  80019c:	e0bfff15 	stw	r2,-4(fp)
  8001a0:	e0bfff17 	ldw	r2,-4(fp)
  8001a4:	e0bffb15 	stw	r2,-20(fp)

    active = alt_irq_pending ();
    
  } while (active);
  8001a8:	e0bffb17 	ldw	r2,-20(fp)
  8001ac:	1005003a 	cmpeq	r2,r2,zero
  8001b0:	1000011e 	bne	r2,zero,8001b8 <alt_irq_handler+0xcc>
  8001b4:	003fd706 	br	800114 <alt_irq_handler+0x28>
#endif /* ALT_CI_INTERRUPT_VECTOR */

  /*
   * Notify the operating system that interrupt processing is complete.
   */ 

  ALT_OS_INT_EXIT();
}
  8001b8:	dfc00617 	ldw	ra,24(sp)
  8001bc:	df000517 	ldw	fp,20(sp)
  8001c0:	dec00704 	addi	sp,sp,28
  8001c4:	f800283a 	ret
Disassembly of section .text:

008001c8 <_start>:

    .size __reset, . - __reset
#endif /* Jump to _start */

/*
 * When not using exit, provide an _exit symbol to prevent unresolved
 * references to _exit from the linker script.
 */
#ifdef ALT_NO_EXIT
    .globl _exit
_exit:
#endif

/*************************************************************************\
|                          TEXT SECTION (.text)                           |
\*************************************************************************/

/*
 * Start of the .text section, and also the code entry point when
 * the code is executed by a bootloader rather than directly from reset.
 */
    .section .text
    .align 2

    .globl _start
    .type _start, @function
_start:

/*
 * Initialize the data cache if present (i.e. size > 0) and not
 * optimizing for RTL simulation.
 * RTL simulations can ensure the data cache is already initialized
 * so skipping this loop speeds up RTL simulation.
 */

#if NIOS2_DCACHE_SIZE > 0 && !defined(ALT_SIM_OPTIMIZE)

    /* Assume the data cache size is always a power of two. */
#if NIOS2_DCACHE_SIZE > 0x8000
    movhi r2, %hi(NIOS2_DCACHE_SIZE)
#else
    movui r2, NIOS2_DCACHE_SIZE
  8001c8:	00820014 	movui	r2,2048
#endif

0:
    initd 0(r2)
  8001cc:	10000033 	initd	0(r2)
    addi r2, r2, -NIOS2_DCACHE_LINE_SIZE
  8001d0:	10bff804 	addi	r2,r2,-32
    bgt r2, zero, 0b
  8001d4:	00bffd16 	blt	zero,r2,8001cc <_start+0x4>
1:

    /*
     * The following debug information tells the ISS not to run the loop above
     * but to perform its actions using faster internal code.
     */
    .pushsection .debug_alt_sim_info
    .int 2, 1, 0b, 1b
    .popsection

#endif /* Initialize Data Cache */

    /* Log that caches have been initialized. */
    ALT_LOG_PUTS(alt_log_msg_cache)

    /* Log that the stack pointer is about to be setup. */
    ALT_LOG_PUTS(alt_log_msg_stackpointer)

#if (NIOS2_NUM_OF_SHADOW_REG_SETS == 0)    
    /*
     * Now that the caches are initialized, set up the stack pointer.
     * The value provided by the linker is assumed to be correctly aligned.
     */
    movhi sp, %hi(__alt_stack_pointer)
  8001d8:	06c04034 	movhi	sp,256
    ori sp, sp, %lo(__alt_stack_pointer)
  8001dc:	dec00014 	ori	sp,sp,0

    /* Set up the global pointer. */
    movhi gp, %hi(_gp)
  8001e0:	068020b4 	movhi	gp,130
    ori gp, gp, %lo(_gp)
  8001e4:	d68f9514 	ori	gp,gp,15956

#else /* NIOS2_NUM_OF_SHADOW_REG_SETS > 0 */

    /*
     * Set up the GP and SP in all shadow register sets.
     */

    /* 
     * Check current register set number, if CPU resets into a shadow register 
     * set, switch register set to 0 by writing zero to SSTATUS register and 
     * execute an ERET instruction that just jumps to the next PC address 
     * (use the NEXTPC instruction to get this).
     */
    
    rdctl r2, status
    
    /* Get the current register set number (STATUS.CRS). */
    andi r3, r2, NIOS2_STATUS_CRS_MSK
    
    /* Skip switch register set if STATUS.CRS is 0.  */
    beq r3, zero, .Lskip_switch_reg_set
    
    .set nobreak
    
    /* Current register set is non-zero, set SSTATUS to 0. */
    mov sstatus, zero
    
    /* Get next pc and store in ea. */
    nextpc ea
    
    /* Point to instruction after eret. */
    addi ea, ea, 8
    
    /* 
     * Execute ERET instruction that just jumps to the next PC address 
     */
    eret
    
.Lskip_switch_reg_set:    
    mov r2, zero
    
    /* Reset STATUS register */
    wrctl status, r2

    movui r3, NIOS2_NUM_OF_SHADOW_REG_SETS
    
    /* Set up the stack pointer in register set 0. */
    movhi sp, %hi(__alt_stack_pointer)
    ori sp, sp, %lo(__alt_stack_pointer)
    
    /* Set up the global pointer in register set 0. */
    movhi gp, %hi(_gp)
    ori gp, gp, %lo(_gp)     

.Lsetup_sp_and_gp_loop:
    /* 
     * Setup GP and SP for shadow register set 
     * from NIOS2_NUM_OF_SHADOW_REG_SETS to 0
     */

    /* Skip if number of register sets is 0. */
    beq r3, zero, .Lno_shadow_register_set


    /* Add previous register set STATUS.PRS by 1 */
    movhi r4, 1
    add r2, r2, r4

    /* Write STATUS */
    wrctl status, r2

    /* Clear r0 in the shadow register set (not done by hardware) */
    wrprs r0, r0

    /* Write the GP in previous register set */
    wrprs gp, gp

    /* Only write the SP in previous register set
     * if using the seperate exception stack. For normal case (single stack),
     * funnel code would read the SP from previous register set.
     */
#ifdef ALT_INTERRUPT_STACK

    movhi et, %hiadj(__alt_interrupt_stack_pointer)
    addi  et, et, %lo(__alt_interrupt_stack_pointer)
    wrprs sp, et

#endif /* ALT_INTERRUPT_STACK */

    /* Decrease number of register set counter by 1 */
    addi r3, r3, -1

    br .Lsetup_sp_and_gp_loop
.Lno_shadow_register_set:

#endif /* NIOS2_NUM_OF_SHADOW_REG_SETS */
/*
 * Clear the BSS if not optimizing for RTL simulation.
 *
 * This uses the symbols: __bss_start and __bss_end, which are defined
 * by the linker script. They mark the begining and the end of the bss
 * region. The linker script guarantees that these values are word aligned.
 */
#ifndef ALT_SIM_OPTIMIZE
    /* Log that the BSS is about to be cleared. */
    ALT_LOG_PUTS(alt_log_msg_bss)

    movhi r2, %hi(__bss_start)
  8001e8:	00802074 	movhi	r2,129
    ori r2, r2, %lo(__bss_start)
  8001ec:	10afb314 	ori	r2,r2,48844

    movhi r3, %hi(__bss_end)
  8001f0:	00c02074 	movhi	r3,129
    ori r3, r3, %lo(__bss_end)
  8001f4:	18f19314 	ori	r3,r3,50764

    beq r2, r3, 1f
  8001f8:	10c00326 	beq	r2,r3,800208 <_start+0x40>

0:
    stw zero, (r2)
  8001fc:	10000015 	stw	zero,0(r2)
    addi r2, r2, 4
  800200:	10800104 	addi	r2,r2,4
    bltu r2, r3, 0b
  800204:	10fffd36 	bltu	r2,r3,8001fc <_start+0x34>

1:

    /*
     * The following debug information tells the ISS not to run the loop above
     * but to perform its actions using faster internal code.
     */
    .pushsection .debug_alt_sim_info
    .int 3, 1, 0b, 1b
    .popsection
#endif /* ALT_SIM_OPTIMIZE */

/*
 * The alt_load() facility is normally used when there is no bootloader.
 * It copies some sections into RAM so it acts like a mini-bootloader.
 */
#ifdef CALL_ALT_LOAD

#ifdef ALT_STACK_CHECK
    /*
     * If the user has selected stack checking then we need to set up a safe
     * value in the stack limit register so that the relocation functions
     * don't think the stack has overflowed (the contents of the rwdata
     * section aren't defined until alt_load() has been called).
     */
    mov   et, zero
#endif

    call alt_load

#endif /* CALL_ALT_LOAD */

#ifdef ALT_STACK_CHECK
    /*
     * Set up the stack limit (if required).  The linker has set up the
     * copy of the variable which is in memory.
     */

    ldw   et, %gprel(alt_stack_limit_value)(gp)
#endif

    /* Log that alt_main is about to be called. */
    ALT_LOG_PUTS(alt_log_msg_alt_main)

    /* Call the C entry point. It should never return. */
    call alt_main
  800208:	0814ddc0 	call	814ddc <alt_main>

0080020c <alt_after_alt_main>:

    /* Wait in infinite loop in case alt_main does return. */
alt_after_alt_main:
    br alt_after_alt_main
  80020c:	003fff06 	br	80020c <alt_after_alt_main>

00800210 <check_wall_collide_ns>:
/*---------------------------------------------------------------------------------------------
 * (function: check_wall_collide)
 *-------------------------------------------------------------------------------------------*/
short check_wall_collide_ns(float **matrix, int points_to_check)
{
  800210:	defffa04 	addi	sp,sp,-24
  800214:	dfc00515 	stw	ra,20(sp)
  800218:	df000415 	stw	fp,16(sp)
  80021c:	df000404 	addi	fp,sp,16
  800220:	e13ffc15 	stw	r4,-16(fp)
  800224:	e17ffd15 	stw	r5,-12(fp)
	int i;

	/* check if any of the points are hitting the boundary */
	for (i = 0; i < points_to_check; i++)
  800228:	e03ffe15 	stw	zero,-8(fp)
  80022c:	e0fffe17 	ldw	r3,-8(fp)
  800230:	e0bffd17 	ldw	r2,-12(fp)
  800234:	1880240e 	bge	r3,r2,8002c8 <check_wall_collide_ns+0xb8>
	{
		if (matrix[i][Y] <= NORTH_WALL) 
  800238:	e0bffe17 	ldw	r2,-8(fp)
  80023c:	10c00124 	muli	r3,r2,4
  800240:	e0bffc17 	ldw	r2,-16(fp)
  800244:	1885883a 	add	r2,r3,r2
  800248:	10800017 	ldw	r2,0(r2)
  80024c:	10800104 	addi	r2,r2,4
  800250:	11000017 	ldw	r4,0(r2)
  800254:	01504034 	movhi	r5,16640
  800258:	29400004 	addi	r5,r5,0
  80025c:	080ac140 	call	80ac14 <__lesf2>
  800260:	10800050 	cmplti	r2,r2,1
  800264:	1000011e 	bne	r2,zero,80026c <check_wall_collide_ns+0x5c>
  800268:	00000306 	br	800278 <check_wall_collide_ns+0x68>
			return WALL_N;
  80026c:	00800044 	movi	r2,1
  800270:	e0bfff15 	stw	r2,-4(fp)
  800274:	00001506 	br	8002cc <check_wall_collide_ns+0xbc>
		if (matrix[i][Y] >= SOUTH_WALL) 
  800278:	e0bffe17 	ldw	r2,-8(fp)
  80027c:	10c00124 	muli	r3,r2,4
  800280:	e0bffc17 	ldw	r2,-16(fp)
  800284:	1885883a 	add	r2,r3,r2
  800288:	10800017 	ldw	r2,0(r2)
  80028c:	10800104 	addi	r2,r2,4
  800290:	11000017 	ldw	r4,0(r2)
  800294:	0150da34 	movhi	r5,17256
  800298:	29400004 	addi	r5,r5,0
  80029c:	080ab140 	call	80ab14 <__gesf2>
  8002a0:	1004403a 	cmpge	r2,r2,zero
  8002a4:	1000011e 	bne	r2,zero,8002ac <check_wall_collide_ns+0x9c>
  8002a8:	00000306 	br	8002b8 <check_wall_collide_ns+0xa8>
			return WALL_S;
  8002ac:	00800084 	movi	r2,2
  8002b0:	e0bfff15 	stw	r2,-4(fp)
  8002b4:	00000506 	br	8002cc <check_wall_collide_ns+0xbc>
  8002b8:	e0bffe17 	ldw	r2,-8(fp)
  8002bc:	10800044 	addi	r2,r2,1
  8002c0:	e0bffe15 	stw	r2,-8(fp)
  8002c4:	003fd906 	br	80022c <check_wall_collide_ns+0x1c>
	}
	return NO_COLLISION;
  8002c8:	e03fff15 	stw	zero,-4(fp)
}
  8002cc:	e0bfff17 	ldw	r2,-4(fp)
  8002d0:	dfc00517 	ldw	ra,20(sp)
  8002d4:	df000417 	ldw	fp,16(sp)
  8002d8:	dec00604 	addi	sp,sp,24
  8002dc:	f800283a 	ret

008002e0 <check_wall_collide_ew>:

/*---------------------------------------------------------------------------------------------
 * (function: check_wall_collide_ew)
 *-------------------------------------------------------------------------------------------*/
short check_wall_collide_ew(float **matrix, int points_to_check)
{
  8002e0:	defffa04 	addi	sp,sp,-24
  8002e4:	dfc00515 	stw	ra,20(sp)
  8002e8:	df000415 	stw	fp,16(sp)
  8002ec:	df000404 	addi	fp,sp,16
  8002f0:	e13ffc15 	stw	r4,-16(fp)
  8002f4:	e17ffd15 	stw	r5,-12(fp)
	int i;

	/* check if any of the points are hitting the boundary */
	for (i = 0; i < points_to_check; i++)
  8002f8:	e03ffe15 	stw	zero,-8(fp)
  8002fc:	e0fffe17 	ldw	r3,-8(fp)
  800300:	e0bffd17 	ldw	r2,-12(fp)
  800304:	1880220e 	bge	r3,r2,800390 <check_wall_collide_ew+0xb0>
	{
		if (matrix[i][X] <= WEST_WALL) 
  800308:	e0bffe17 	ldw	r2,-8(fp)
  80030c:	10c00124 	muli	r3,r2,4
  800310:	e0bffc17 	ldw	r2,-16(fp)
  800314:	1885883a 	add	r2,r3,r2
  800318:	10800017 	ldw	r2,0(r2)
  80031c:	11000017 	ldw	r4,0(r2)
  800320:	01504034 	movhi	r5,16640
  800324:	29400004 	addi	r5,r5,0
  800328:	080ac140 	call	80ac14 <__lesf2>
  80032c:	10800050 	cmplti	r2,r2,1
  800330:	1000011e 	bne	r2,zero,800338 <check_wall_collide_ew+0x58>
  800334:	00000306 	br	800344 <check_wall_collide_ew+0x64>
			return WALL_W;
  800338:	00800144 	movi	r2,5
  80033c:	e0bfff15 	stw	r2,-4(fp)
  800340:	00001406 	br	800394 <check_wall_collide_ew+0xb4>
		if (matrix[i][X] >= EAST_WALL) 
  800344:	e0bffe17 	ldw	r2,-8(fp)
  800348:	10c00124 	muli	r3,r2,4
  80034c:	e0bffc17 	ldw	r2,-16(fp)
  800350:	1885883a 	add	r2,r3,r2
  800354:	10800017 	ldw	r2,0(r2)
  800358:	11000017 	ldw	r4,0(r2)
  80035c:	0150e734 	movhi	r5,17308
  800360:	29400004 	addi	r5,r5,0
  800364:	080ab140 	call	80ab14 <__gesf2>
  800368:	1004403a 	cmpge	r2,r2,zero
  80036c:	1000011e 	bne	r2,zero,800374 <check_wall_collide_ew+0x94>
  800370:	00000306 	br	800380 <check_wall_collide_ew+0xa0>
			return WALL_E;
  800374:	00800104 	movi	r2,4
  800378:	e0bfff15 	stw	r2,-4(fp)
  80037c:	00000506 	br	800394 <check_wall_collide_ew+0xb4>
  800380:	e0bffe17 	ldw	r2,-8(fp)
  800384:	10800044 	addi	r2,r2,1
  800388:	e0bffe15 	stw	r2,-8(fp)
  80038c:	003fdb06 	br	8002fc <check_wall_collide_ew+0x1c>
	}
	return NO_COLLISION;
  800390:	e03fff15 	stw	zero,-4(fp)
}
  800394:	e0bfff17 	ldw	r2,-4(fp)
  800398:	dfc00517 	ldw	ra,20(sp)
  80039c:	df000417 	ldw	fp,16(sp)
  8003a0:	dec00604 	addi	sp,sp,24
  8003a4:	f800283a 	ret

008003a8 <check_ships_collide>:

/*---------------------------------------------------------------------------------------------
 * (function: check_ships_collide)
 *   Currently calculated based on temp_matrix, so make sure updated before call
 *-------------------------------------------------------------------------------------------*/
short check_ships_collide(ship_t *ship1, ship_t *ship2)
{
  8003a8:	defffb04 	addi	sp,sp,-20
  8003ac:	dfc00415 	stw	ra,16(sp)
  8003b0:	df000315 	stw	fp,12(sp)
  8003b4:	df000304 	addi	fp,sp,12
  8003b8:	e13ffd15 	stw	r4,-12(fp)
  8003bc:	e17ffe15 	stw	r5,-8(fp)
	if (ships_seperating_axis_theorem_collision_detect(ship1, ship2) == TRUE)	
  8003c0:	e13ffd17 	ldw	r4,-12(fp)
  8003c4:	e17ffe17 	ldw	r5,-8(fp)
  8003c8:	08004040 	call	800404 <ships_seperating_axis_theorem_collision_detect>
  8003cc:	10bfffcc 	andi	r2,r2,65535
  8003d0:	10a0001c 	xori	r2,r2,32768
  8003d4:	10a00004 	addi	r2,r2,-32768
  8003d8:	10800058 	cmpnei	r2,r2,1
  8003dc:	1000031e 	bne	r2,zero,8003ec <check_ships_collide+0x44>
	{
		/* If 2 ships are colliding, deal with it */
		return SHIP;
  8003e0:	008000c4 	movi	r2,3
  8003e4:	e0bfff15 	stw	r2,-4(fp)
  8003e8:	00000106 	br	8003f0 <check_ships_collide+0x48>
	}
	
	return NO_COLLISION;
  8003ec:	e03fff15 	stw	zero,-4(fp)
}
  8003f0:	e0bfff17 	ldw	r2,-4(fp)
  8003f4:	dfc00417 	ldw	ra,16(sp)
  8003f8:	df000317 	ldw	fp,12(sp)
  8003fc:	dec00504 	addi	sp,sp,20
  800400:	f800283a 	ret

00800404 <ships_seperating_axis_theorem_collision_detect>:

/*---------------------------------------------------------------------------------------------
 * (function: ships_seperating_axis_theorem_collision_detect)
 *-------------------------------------------------------------------------------------------*/
short ships_seperating_axis_theorem_collision_detect(ship_t *ship1, ship_t *ship2)
{
  800404:	deffdc04 	addi	sp,sp,-144
  800408:	dfc02315 	stw	ra,140(sp)
  80040c:	df002215 	stw	fp,136(sp)
  800410:	dc002115 	stw	r16,132(sp)
  800414:	df002204 	addi	fp,sp,136
  800418:	e13fde15 	stw	r4,-136(fp)
  80041c:	e17fdf15 	stw	r5,-132(fp)
	int i, j;
	vector_t normal;
	vector_t ship1_projections[4];
	vector_t ship1_max_projections;
	vector_t ship1_min_projections;
	vector_t ship2_projections[4];
	vector_t ship2_max_projections;
	vector_t ship2_min_projections;

	/* go through two axis for ship 1 */
	for (i = 0; i < 2; i++)
  800420:	e03fe015 	stw	zero,-128(fp)
  800424:	e0bfe017 	ldw	r2,-128(fp)
  800428:	10800088 	cmpgei	r2,r2,2
  80042c:	10015a1e 	bne	r2,zero,800998 <ships_seperating_axis_theorem_collision_detect+0x594>
	{
		/* calculate the axis */
		calculate_axis_of_ship(ship1, i);
  800430:	e13fde17 	ldw	r4,-136(fp)
  800434:	e17fe017 	ldw	r5,-128(fp)
  800438:	0800f300 	call	800f30 <calculate_axis_of_ship>
		/* find normal of the first axis */
		normal.x = -(ship1->axis[i].y);
  80043c:	e13fde17 	ldw	r4,-136(fp)
  800440:	e0bfe017 	ldw	r2,-128(fp)
  800444:	10c00224 	muli	r3,r2,8
  800448:	20800617 	ldw	r2,24(r4)
  80044c:	1885883a 	add	r2,r3,r2
  800450:	10800117 	ldw	r2,4(r2)
  800454:	10a0003c 	xorhi	r2,r2,32768
  800458:	e0bfe215 	stw	r2,-120(fp)
		normal.y = ship1->axis[i].x;
  80045c:	e13fde17 	ldw	r4,-136(fp)
  800460:	e0bfe017 	ldw	r2,-128(fp)
  800464:	10c00224 	muli	r3,r2,8
  800468:	20800617 	ldw	r2,24(r4)
  80046c:	1885883a 	add	r2,r3,r2
  800470:	10800017 	ldw	r2,0(r2)
  800474:	e0bfe315 	stw	r2,-116(fp)

		/* project all the points in both ships to the normal */
		for (j = 0; j < 4; j++)
  800478:	e03fe115 	stw	zero,-124(fp)
  80047c:	e0bfe117 	ldw	r2,-124(fp)
  800480:	10800108 	cmpgei	r2,r2,4
  800484:	1000921e 	bne	r2,zero,8006d0 <ships_seperating_axis_theorem_collision_detect+0x2cc>
		{
			/* calculate the dot product */
			float dp;
			float project_part;
			dp = ship1->temp_matrix[j][X]*normal.x + ship1->temp_matrix[j][Y]*normal.y;
  800488:	e13fde17 	ldw	r4,-136(fp)
  80048c:	e0bfe117 	ldw	r2,-124(fp)
  800490:	10c00124 	muli	r3,r2,4
  800494:	20800517 	ldw	r2,20(r4)
  800498:	1885883a 	add	r2,r3,r2
  80049c:	10800017 	ldw	r2,0(r2)
  8004a0:	11000017 	ldw	r4,0(r2)
  8004a4:	e17fe217 	ldw	r5,-120(fp)
  8004a8:	080a6980 	call	80a698 <__mulsf3>
  8004ac:	1021883a 	mov	r16,r2
  8004b0:	e13fde17 	ldw	r4,-136(fp)
  8004b4:	e0bfe117 	ldw	r2,-124(fp)
  8004b8:	10c00124 	muli	r3,r2,4
  8004bc:	20800517 	ldw	r2,20(r4)
  8004c0:	1885883a 	add	r2,r3,r2
  8004c4:	10800017 	ldw	r2,0(r2)
  8004c8:	10800104 	addi	r2,r2,4
  8004cc:	11000017 	ldw	r4,0(r2)
  8004d0:	e17fe317 	ldw	r5,-116(fp)
  8004d4:	080a6980 	call	80a698 <__mulsf3>
  8004d8:	8009883a 	mov	r4,r16
  8004dc:	100b883a 	mov	r5,r2
  8004e0:	080a5dc0 	call	80a5dc <__addsf3>
  8004e4:	e0bffc15 	stw	r2,-16(fp)
			project_part = dp/(normal.x*normal.x + normal.y*normal.y);
  8004e8:	e13fe217 	ldw	r4,-120(fp)
  8004ec:	e17fe217 	ldw	r5,-120(fp)
  8004f0:	080a6980 	call	80a698 <__mulsf3>
  8004f4:	1021883a 	mov	r16,r2
  8004f8:	e13fe317 	ldw	r4,-116(fp)
  8004fc:	e17fe317 	ldw	r5,-116(fp)
  800500:	080a6980 	call	80a698 <__mulsf3>
  800504:	8009883a 	mov	r4,r16
  800508:	100b883a 	mov	r5,r2
  80050c:	080a5dc0 	call	80a5dc <__addsf3>
  800510:	e13ffc17 	ldw	r4,-16(fp)
  800514:	100b883a 	mov	r5,r2
  800518:	080a85c0 	call	80a85c <__divsf3>
  80051c:	e0bffd15 	stw	r2,-12(fp)

			ship1_projections[j].x = project_part * normal.x;
  800520:	e0bfe117 	ldw	r2,-124(fp)
  800524:	10800224 	muli	r2,r2,8
  800528:	e0ffde04 	addi	r3,fp,-136
  80052c:	10c5883a 	add	r2,r2,r3
  800530:	14000604 	addi	r16,r2,24
  800534:	e13fe217 	ldw	r4,-120(fp)
  800538:	e17ffd17 	ldw	r5,-12(fp)
  80053c:	080a6980 	call	80a698 <__mulsf3>
  800540:	80800015 	stw	r2,0(r16)
			ship1_projections[j].y = project_part * normal.y;
  800544:	e0bfe117 	ldw	r2,-124(fp)
  800548:	10800224 	muli	r2,r2,8
  80054c:	e0ffde04 	addi	r3,fp,-136
  800550:	10c5883a 	add	r2,r2,r3
  800554:	14000704 	addi	r16,r2,28
  800558:	e13fe317 	ldw	r4,-116(fp)
  80055c:	e17ffd17 	ldw	r5,-12(fp)
  800560:	080a6980 	call	80a698 <__mulsf3>
  800564:	80800015 	stw	r2,0(r16)

			/* calculate the min and max */
			if (j == 0)
  800568:	e0bfe117 	ldw	r2,-124(fp)
  80056c:	1004c03a 	cmpne	r2,r2,zero
  800570:	10000f1e 	bne	r2,zero,8005b0 <ships_seperating_axis_theorem_collision_detect+0x1ac>
			{
				ship1_max_projections.x = ship1_projections[j].x;
  800574:	e0bfe117 	ldw	r2,-124(fp)
  800578:	10800224 	muli	r2,r2,8
  80057c:	e0ffde04 	addi	r3,fp,-136
  800580:	10c5883a 	add	r2,r2,r3
  800584:	10800604 	addi	r2,r2,24
  800588:	10800017 	ldw	r2,0(r2)
  80058c:	e0bfec15 	stw	r2,-80(fp)
				ship1_max_projections.y = ship1_projections[j].y;
  800590:	e0bfe117 	ldw	r2,-124(fp)
  800594:	10800224 	muli	r2,r2,8
  800598:	e0ffde04 	addi	r3,fp,-136
  80059c:	10c5883a 	add	r2,r2,r3
  8005a0:	10800704 	addi	r2,r2,28
  8005a4:	10800017 	ldw	r2,0(r2)
  8005a8:	e0bfed15 	stw	r2,-76(fp)
  8005ac:	00001906 	br	800614 <ships_seperating_axis_theorem_collision_detect+0x210>
			}
			else if (ship1_projections[j].x > ship1_max_projections.x)
  8005b0:	e0bfe117 	ldw	r2,-124(fp)
  8005b4:	10800224 	muli	r2,r2,8
  8005b8:	e0ffde04 	addi	r3,fp,-136
  8005bc:	10c5883a 	add	r2,r2,r3
  8005c0:	10800604 	addi	r2,r2,24
  8005c4:	11000017 	ldw	r4,0(r2)
  8005c8:	e17fec17 	ldw	r5,-80(fp)
  8005cc:	080aa940 	call	80aa94 <__gtsf2>
  8005d0:	10800048 	cmpgei	r2,r2,1
  8005d4:	1000011e 	bne	r2,zero,8005dc <ships_seperating_axis_theorem_collision_detect+0x1d8>
  8005d8:	00000e06 	br	800614 <ships_seperating_axis_theorem_collision_detect+0x210>
			{
				ship1_max_projections.x = ship1_projections[j].x;
  8005dc:	e0bfe117 	ldw	r2,-124(fp)
  8005e0:	10800224 	muli	r2,r2,8
  8005e4:	e0ffde04 	addi	r3,fp,-136
  8005e8:	10c5883a 	add	r2,r2,r3
  8005ec:	10800604 	addi	r2,r2,24
  8005f0:	10800017 	ldw	r2,0(r2)
  8005f4:	e0bfec15 	stw	r2,-80(fp)
				ship1_max_projections.y = ship1_projections[j].y;
  8005f8:	e0bfe117 	ldw	r2,-124(fp)
  8005fc:	10800224 	muli	r2,r2,8
  800600:	e0ffde04 	addi	r3,fp,-136
  800604:	10c5883a 	add	r2,r2,r3
  800608:	10800704 	addi	r2,r2,28
  80060c:	10800017 	ldw	r2,0(r2)
  800610:	e0bfed15 	stw	r2,-76(fp)
			}
			if (j == 0)
  800614:	e0bfe117 	ldw	r2,-124(fp)
  800618:	1004c03a 	cmpne	r2,r2,zero
  80061c:	10000f1e 	bne	r2,zero,80065c <ships_seperating_axis_theorem_collision_detect+0x258>
			{
				ship1_min_projections.x = ship1_projections[j].x;
  800620:	e0bfe117 	ldw	r2,-124(fp)
  800624:	10800224 	muli	r2,r2,8
  800628:	e0ffde04 	addi	r3,fp,-136
  80062c:	10c5883a 	add	r2,r2,r3
  800630:	10800604 	addi	r2,r2,24
  800634:	10800017 	ldw	r2,0(r2)
  800638:	e0bfee15 	stw	r2,-72(fp)
				ship1_min_projections.y = ship1_projections[j].y;
  80063c:	e0bfe117 	ldw	r2,-124(fp)
  800640:	10800224 	muli	r2,r2,8
  800644:	e0ffde04 	addi	r3,fp,-136
  800648:	10c5883a 	add	r2,r2,r3
  80064c:	10800704 	addi	r2,r2,28
  800650:	10800017 	ldw	r2,0(r2)
  800654:	e0bfef15 	stw	r2,-68(fp)
  800658:	00001906 	br	8006c0 <ships_seperating_axis_theorem_collision_detect+0x2bc>
			}
			else if (ship1_projections[j].x < ship1_min_projections.x)
  80065c:	e0bfe117 	ldw	r2,-124(fp)
  800660:	10800224 	muli	r2,r2,8
  800664:	e0ffde04 	addi	r3,fp,-136
  800668:	10c5883a 	add	r2,r2,r3
  80066c:	10800604 	addi	r2,r2,24
  800670:	11000017 	ldw	r4,0(r2)
  800674:	e17fee17 	ldw	r5,-72(fp)
  800678:	080ab940 	call	80ab94 <__ltsf2>
  80067c:	1004803a 	cmplt	r2,r2,zero
  800680:	1000011e 	bne	r2,zero,800688 <ships_seperating_axis_theorem_collision_detect+0x284>
  800684:	00000e06 	br	8006c0 <ships_seperating_axis_theorem_collision_detect+0x2bc>
			{
				ship1_min_projections.x = ship1_projections[j].x;
  800688:	e0bfe117 	ldw	r2,-124(fp)
  80068c:	10800224 	muli	r2,r2,8
  800690:	e0ffde04 	addi	r3,fp,-136
  800694:	10c5883a 	add	r2,r2,r3
  800698:	10800604 	addi	r2,r2,24
  80069c:	10800017 	ldw	r2,0(r2)
  8006a0:	e0bfee15 	stw	r2,-72(fp)
				ship1_min_projections.y = ship1_projections[j].y;
  8006a4:	e0bfe117 	ldw	r2,-124(fp)
  8006a8:	10800224 	muli	r2,r2,8
  8006ac:	e0ffde04 	addi	r3,fp,-136
  8006b0:	10c5883a 	add	r2,r2,r3
  8006b4:	10800704 	addi	r2,r2,28
  8006b8:	10800017 	ldw	r2,0(r2)
  8006bc:	e0bfef15 	stw	r2,-68(fp)
  8006c0:	e0bfe117 	ldw	r2,-124(fp)
  8006c4:	10800044 	addi	r2,r2,1
  8006c8:	e0bfe115 	stw	r2,-124(fp)
  8006cc:	003f6b06 	br	80047c <ships_seperating_axis_theorem_collision_detect+0x78>
			}
		}
		for (j = 0; j < 4; j++)
  8006d0:	e03fe115 	stw	zero,-124(fp)
  8006d4:	e0bfe117 	ldw	r2,-124(fp)
  8006d8:	10800108 	cmpgei	r2,r2,4
  8006dc:	1000921e 	bne	r2,zero,800928 <ships_seperating_axis_theorem_collision_detect+0x524>
		{
			/* calculate the dot product */
			float dp;
			float project_part;
			dp = ship2->temp_matrix[j][X]*normal.x + ship2->temp_matrix[j][Y]*normal.y;
  8006e0:	e13fdf17 	ldw	r4,-132(fp)
  8006e4:	e0bfe117 	ldw	r2,-124(fp)
  8006e8:	10c00124 	muli	r3,r2,4
  8006ec:	20800517 	ldw	r2,20(r4)
  8006f0:	1885883a 	add	r2,r3,r2
  8006f4:	10800017 	ldw	r2,0(r2)
  8006f8:	11000017 	ldw	r4,0(r2)
  8006fc:	e17fe217 	ldw	r5,-120(fp)
  800700:	080a6980 	call	80a698 <__mulsf3>
  800704:	1021883a 	mov	r16,r2
  800708:	e13fdf17 	ldw	r4,-132(fp)
  80070c:	e0bfe117 	ldw	r2,-124(fp)
  800710:	10c00124 	muli	r3,r2,4
  800714:	20800517 	ldw	r2,20(r4)
  800718:	1885883a 	add	r2,r3,r2
  80071c:	10800017 	ldw	r2,0(r2)
  800720:	10800104 	addi	r2,r2,4
  800724:	11000017 	ldw	r4,0(r2)
  800728:	e17fe317 	ldw	r5,-116(fp)
  80072c:	080a6980 	call	80a698 <__mulsf3>
  800730:	8009883a 	mov	r4,r16
  800734:	100b883a 	mov	r5,r2
  800738:	080a5dc0 	call	80a5dc <__addsf3>
  80073c:	e0bffd15 	stw	r2,-12(fp)
			project_part = dp/(normal.x*normal.x + normal.y*normal.y);
  800740:	e13fe217 	ldw	r4,-120(fp)
  800744:	e17fe217 	ldw	r5,-120(fp)
  800748:	080a6980 	call	80a698 <__mulsf3>
  80074c:	1021883a 	mov	r16,r2
  800750:	e13fe317 	ldw	r4,-116(fp)
  800754:	e17fe317 	ldw	r5,-116(fp)
  800758:	080a6980 	call	80a698 <__mulsf3>
  80075c:	8009883a 	mov	r4,r16
  800760:	100b883a 	mov	r5,r2
  800764:	080a5dc0 	call	80a5dc <__addsf3>
  800768:	e13ffd17 	ldw	r4,-12(fp)
  80076c:	100b883a 	mov	r5,r2
  800770:	080a85c0 	call	80a85c <__divsf3>
  800774:	e0bffc15 	stw	r2,-16(fp)

			ship2_projections[j].x = project_part * normal.x;
  800778:	e0bfe117 	ldw	r2,-124(fp)
  80077c:	10800224 	muli	r2,r2,8
  800780:	e0ffde04 	addi	r3,fp,-136
  800784:	10c5883a 	add	r2,r2,r3
  800788:	14001204 	addi	r16,r2,72
  80078c:	e13fe217 	ldw	r4,-120(fp)
  800790:	e17ffc17 	ldw	r5,-16(fp)
  800794:	080a6980 	call	80a698 <__mulsf3>
  800798:	80800015 	stw	r2,0(r16)
			ship2_projections[j].y = project_part * normal.y;
  80079c:	e0bfe117 	ldw	r2,-124(fp)
  8007a0:	10800224 	muli	r2,r2,8
  8007a4:	e0ffde04 	addi	r3,fp,-136
  8007a8:	10c5883a 	add	r2,r2,r3
  8007ac:	14001304 	addi	r16,r2,76
  8007b0:	e13fe317 	ldw	r4,-116(fp)
  8007b4:	e17ffc17 	ldw	r5,-16(fp)
  8007b8:	080a6980 	call	80a698 <__mulsf3>
  8007bc:	80800015 	stw	r2,0(r16)

			/* calculate the min and max */
			if (j == 0)
  8007c0:	e0bfe117 	ldw	r2,-124(fp)
  8007c4:	1004c03a 	cmpne	r2,r2,zero
  8007c8:	10000f1e 	bne	r2,zero,800808 <ships_seperating_axis_theorem_collision_detect+0x404>
			{
				ship2_max_projections.x = ship2_projections[j].x;
  8007cc:	e0bfe117 	ldw	r2,-124(fp)
  8007d0:	10800224 	muli	r2,r2,8
  8007d4:	e0ffde04 	addi	r3,fp,-136
  8007d8:	10c5883a 	add	r2,r2,r3
  8007dc:	10801204 	addi	r2,r2,72
  8007e0:	10800017 	ldw	r2,0(r2)
  8007e4:	e0bff815 	stw	r2,-32(fp)
				ship2_max_projections.y = ship2_projections[j].y;
  8007e8:	e0bfe117 	ldw	r2,-124(fp)
  8007ec:	10800224 	muli	r2,r2,8
  8007f0:	e0ffde04 	addi	r3,fp,-136
  8007f4:	10c5883a 	add	r2,r2,r3
  8007f8:	10801304 	addi	r2,r2,76
  8007fc:	10800017 	ldw	r2,0(r2)
  800800:	e0bff915 	stw	r2,-28(fp)
  800804:	00001906 	br	80086c <ships_seperating_axis_theorem_collision_detect+0x468>
			}
			else if (ship2_projections[j].x > ship2_max_projections.x)
  800808:	e0bfe117 	ldw	r2,-124(fp)
  80080c:	10800224 	muli	r2,r2,8
  800810:	e0ffde04 	addi	r3,fp,-136
  800814:	10c5883a 	add	r2,r2,r3
  800818:	10801204 	addi	r2,r2,72
  80081c:	11000017 	ldw	r4,0(r2)
  800820:	e17ff817 	ldw	r5,-32(fp)
  800824:	080aa940 	call	80aa94 <__gtsf2>
  800828:	10800048 	cmpgei	r2,r2,1
  80082c:	1000011e 	bne	r2,zero,800834 <ships_seperating_axis_theorem_collision_detect+0x430>
  800830:	00000e06 	br	80086c <ships_seperating_axis_theorem_collision_detect+0x468>
			{
				ship2_max_projections.x = ship2_projections[j].x;
  800834:	e0bfe117 	ldw	r2,-124(fp)
  800838:	10800224 	muli	r2,r2,8
  80083c:	e0ffde04 	addi	r3,fp,-136
  800840:	10c5883a 	add	r2,r2,r3
  800844:	10801204 	addi	r2,r2,72
  800848:	10800017 	ldw	r2,0(r2)
  80084c:	e0bff815 	stw	r2,-32(fp)
				ship2_max_projections.y = ship2_projections[j].y;
  800850:	e0bfe117 	ldw	r2,-124(fp)
  800854:	10800224 	muli	r2,r2,8
  800858:	e0ffde04 	addi	r3,fp,-136
  80085c:	10c5883a 	add	r2,r2,r3
  800860:	10801304 	addi	r2,r2,76
  800864:	10800017 	ldw	r2,0(r2)
  800868:	e0bff915 	stw	r2,-28(fp)
			}
			if (j == 0)
  80086c:	e0bfe117 	ldw	r2,-124(fp)
  800870:	1004c03a 	cmpne	r2,r2,zero
  800874:	10000f1e 	bne	r2,zero,8008b4 <ships_seperating_axis_theorem_collision_detect+0x4b0>
			{
				ship2_min_projections.x = ship2_projections[j].x;
  800878:	e0bfe117 	ldw	r2,-124(fp)
  80087c:	10800224 	muli	r2,r2,8
  800880:	e0ffde04 	addi	r3,fp,-136
  800884:	10c5883a 	add	r2,r2,r3
  800888:	10801204 	addi	r2,r2,72
  80088c:	10800017 	ldw	r2,0(r2)
  800890:	e0bffa15 	stw	r2,-24(fp)
				ship2_min_projections.y = ship2_projections[j].y;
  800894:	e0bfe117 	ldw	r2,-124(fp)
  800898:	10800224 	muli	r2,r2,8
  80089c:	e0ffde04 	addi	r3,fp,-136
  8008a0:	10c5883a 	add	r2,r2,r3
  8008a4:	10801304 	addi	r2,r2,76
  8008a8:	10800017 	ldw	r2,0(r2)
  8008ac:	e0bffb15 	stw	r2,-20(fp)
  8008b0:	00001906 	br	800918 <ships_seperating_axis_theorem_collision_detect+0x514>
			}
			else if (ship2_projections[j].x < ship2_min_projections.x)
  8008b4:	e0bfe117 	ldw	r2,-124(fp)
  8008b8:	10800224 	muli	r2,r2,8
  8008bc:	e0ffde04 	addi	r3,fp,-136
  8008c0:	10c5883a 	add	r2,r2,r3
  8008c4:	10801204 	addi	r2,r2,72
  8008c8:	11000017 	ldw	r4,0(r2)
  8008cc:	e17ffa17 	ldw	r5,-24(fp)
  8008d0:	080ab940 	call	80ab94 <__ltsf2>
  8008d4:	1004803a 	cmplt	r2,r2,zero
  8008d8:	1000011e 	bne	r2,zero,8008e0 <ships_seperating_axis_theorem_collision_detect+0x4dc>
  8008dc:	00000e06 	br	800918 <ships_seperating_axis_theorem_collision_detect+0x514>
			{
				ship2_min_projections.x = ship2_projections[j].x;
  8008e0:	e0bfe117 	ldw	r2,-124(fp)
  8008e4:	10800224 	muli	r2,r2,8
  8008e8:	e0ffde04 	addi	r3,fp,-136
  8008ec:	10c5883a 	add	r2,r2,r3
  8008f0:	10801204 	addi	r2,r2,72
  8008f4:	10800017 	ldw	r2,0(r2)
  8008f8:	e0bffa15 	stw	r2,-24(fp)
				ship2_min_projections.y = ship2_projections[j].y;
  8008fc:	e0bfe117 	ldw	r2,-124(fp)
  800900:	10800224 	muli	r2,r2,8
  800904:	e0ffde04 	addi	r3,fp,-136
  800908:	10c5883a 	add	r2,r2,r3
  80090c:	10801304 	addi	r2,r2,76
  800910:	10800017 	ldw	r2,0(r2)
  800914:	e0bffb15 	stw	r2,-20(fp)
  800918:	e0bfe117 	ldw	r2,-124(fp)
  80091c:	10800044 	addi	r2,r2,1
  800920:	e0bfe115 	stw	r2,-124(fp)
  800924:	003f6b06 	br	8006d4 <ships_seperating_axis_theorem_collision_detect+0x2d0>
			}
		}

		if (!((ship1_min_projections.x <= ship2_min_projections.x && ship2_min_projections.x <= ship1_max_projections.x) ||
  800928:	e13fee17 	ldw	r4,-72(fp)
  80092c:	e17ffa17 	ldw	r5,-24(fp)
  800930:	080ac140 	call	80ac14 <__lesf2>
  800934:	10800050 	cmplti	r2,r2,1
  800938:	1000011e 	bne	r2,zero,800940 <ships_seperating_axis_theorem_collision_detect+0x53c>
  80093c:	00000506 	br	800954 <ships_seperating_axis_theorem_collision_detect+0x550>
  800940:	e13ffa17 	ldw	r4,-24(fp)
  800944:	e17fec17 	ldw	r5,-80(fp)
  800948:	080ac140 	call	80ac14 <__lesf2>
  80094c:	10800050 	cmplti	r2,r2,1
  800950:	10000d1e 	bne	r2,zero,800988 <ships_seperating_axis_theorem_collision_detect+0x584>
  800954:	e13ffa17 	ldw	r4,-24(fp)
  800958:	e17fee17 	ldw	r5,-72(fp)
  80095c:	080ac140 	call	80ac14 <__lesf2>
  800960:	10800050 	cmplti	r2,r2,1
  800964:	1000011e 	bne	r2,zero,80096c <ships_seperating_axis_theorem_collision_detect+0x568>
  800968:	00000506 	br	800980 <ships_seperating_axis_theorem_collision_detect+0x57c>
  80096c:	e13fee17 	ldw	r4,-72(fp)
  800970:	e17ff817 	ldw	r5,-32(fp)
  800974:	080ac140 	call	80ac14 <__lesf2>
  800978:	10800050 	cmplti	r2,r2,1
  80097c:	1000021e 	bne	r2,zero,800988 <ships_seperating_axis_theorem_collision_detect+0x584>
			(ship2_min_projections.x <= ship1_min_projections.x && ship1_min_projections.x <= ship2_max_projections.x)))
		{
			/* IF the condition above is ! true then Collision not detected since we've found a separating axis */
			return FALSE;
  800980:	e03ffe15 	stw	zero,-8(fp)
  800984:	00016406 	br	800f18 <ships_seperating_axis_theorem_collision_detect+0xb14>
  800988:	e0bfe017 	ldw	r2,-128(fp)
  80098c:	10800044 	addi	r2,r2,1
  800990:	e0bfe015 	stw	r2,-128(fp)
  800994:	003ea306 	br	800424 <ships_seperating_axis_theorem_collision_detect+0x20>
		}
	}
	/* go through two axis for ship 2 */
	for (i = 0; i < 2; i++)
  800998:	e03fe015 	stw	zero,-128(fp)
  80099c:	e0bfe017 	ldw	r2,-128(fp)
  8009a0:	10800088 	cmpgei	r2,r2,2
  8009a4:	10015a1e 	bne	r2,zero,800f10 <ships_seperating_axis_theorem_collision_detect+0xb0c>
	{
		/* calculate the axis */
		calculate_axis_of_ship(ship2, i);
  8009a8:	e13fdf17 	ldw	r4,-132(fp)
  8009ac:	e17fe017 	ldw	r5,-128(fp)
  8009b0:	0800f300 	call	800f30 <calculate_axis_of_ship>
		/* find normal of the first axis */
		normal.x = -(ship2->axis[i].y);
  8009b4:	e13fdf17 	ldw	r4,-132(fp)
  8009b8:	e0bfe017 	ldw	r2,-128(fp)
  8009bc:	10c00224 	muli	r3,r2,8
  8009c0:	20800617 	ldw	r2,24(r4)
  8009c4:	1885883a 	add	r2,r3,r2
  8009c8:	10800117 	ldw	r2,4(r2)
  8009cc:	10a0003c 	xorhi	r2,r2,32768
  8009d0:	e0bfe215 	stw	r2,-120(fp)
		normal.y = ship2->axis[i].x;
  8009d4:	e13fdf17 	ldw	r4,-132(fp)
  8009d8:	e0bfe017 	ldw	r2,-128(fp)
  8009dc:	10c00224 	muli	r3,r2,8
  8009e0:	20800617 	ldw	r2,24(r4)
  8009e4:	1885883a 	add	r2,r3,r2
  8009e8:	10800017 	ldw	r2,0(r2)
  8009ec:	e0bfe315 	stw	r2,-116(fp)

		/* project all the points in both ships to the normal */
		for (j = 0; j < 4; j++)
  8009f0:	e03fe115 	stw	zero,-124(fp)
  8009f4:	e0bfe117 	ldw	r2,-124(fp)
  8009f8:	10800108 	cmpgei	r2,r2,4
  8009fc:	1000921e 	bne	r2,zero,800c48 <ships_seperating_axis_theorem_collision_detect+0x844>
		{
			/* calculate the dot product */
			float dp;
			float project_part;
			dp = ship1->temp_matrix[j][X]*normal.x + ship1->temp_matrix[j][Y]*normal.y;
  800a00:	e13fde17 	ldw	r4,-136(fp)
  800a04:	e0bfe117 	ldw	r2,-124(fp)
  800a08:	10c00124 	muli	r3,r2,4
  800a0c:	20800517 	ldw	r2,20(r4)
  800a10:	1885883a 	add	r2,r3,r2
  800a14:	10800017 	ldw	r2,0(r2)
  800a18:	11000017 	ldw	r4,0(r2)
  800a1c:	e17fe217 	ldw	r5,-120(fp)
  800a20:	080a6980 	call	80a698 <__mulsf3>
  800a24:	1021883a 	mov	r16,r2
  800a28:	e13fde17 	ldw	r4,-136(fp)
  800a2c:	e0bfe117 	ldw	r2,-124(fp)
  800a30:	10c00124 	muli	r3,r2,4
  800a34:	20800517 	ldw	r2,20(r4)
  800a38:	1885883a 	add	r2,r3,r2
  800a3c:	10800017 	ldw	r2,0(r2)
  800a40:	10800104 	addi	r2,r2,4
  800a44:	11000017 	ldw	r4,0(r2)
  800a48:	e17fe317 	ldw	r5,-116(fp)
  800a4c:	080a6980 	call	80a698 <__mulsf3>
  800a50:	8009883a 	mov	r4,r16
  800a54:	100b883a 	mov	r5,r2
  800a58:	080a5dc0 	call	80a5dc <__addsf3>
  800a5c:	e0bffd15 	stw	r2,-12(fp)
			project_part = dp/(normal.x*normal.x + normal.y*normal.y);
  800a60:	e13fe217 	ldw	r4,-120(fp)
  800a64:	e17fe217 	ldw	r5,-120(fp)
  800a68:	080a6980 	call	80a698 <__mulsf3>
  800a6c:	1021883a 	mov	r16,r2
  800a70:	e13fe317 	ldw	r4,-116(fp)
  800a74:	e17fe317 	ldw	r5,-116(fp)
  800a78:	080a6980 	call	80a698 <__mulsf3>
  800a7c:	8009883a 	mov	r4,r16
  800a80:	100b883a 	mov	r5,r2
  800a84:	080a5dc0 	call	80a5dc <__addsf3>
  800a88:	e13ffd17 	ldw	r4,-12(fp)
  800a8c:	100b883a 	mov	r5,r2
  800a90:	080a85c0 	call	80a85c <__divsf3>
  800a94:	e0bffc15 	stw	r2,-16(fp)

			ship1_projections[j].x = project_part * normal.x;
  800a98:	e0bfe117 	ldw	r2,-124(fp)
  800a9c:	10800224 	muli	r2,r2,8
  800aa0:	e0ffde04 	addi	r3,fp,-136
  800aa4:	10c5883a 	add	r2,r2,r3
  800aa8:	14000604 	addi	r16,r2,24
  800aac:	e13fe217 	ldw	r4,-120(fp)
  800ab0:	e17ffc17 	ldw	r5,-16(fp)
  800ab4:	080a6980 	call	80a698 <__mulsf3>
  800ab8:	80800015 	stw	r2,0(r16)
			ship1_projections[j].y = project_part * normal.y;
  800abc:	e0bfe117 	ldw	r2,-124(fp)
  800ac0:	10800224 	muli	r2,r2,8
  800ac4:	e0ffde04 	addi	r3,fp,-136
  800ac8:	10c5883a 	add	r2,r2,r3
  800acc:	14000704 	addi	r16,r2,28
  800ad0:	e13fe317 	ldw	r4,-116(fp)
  800ad4:	e17ffc17 	ldw	r5,-16(fp)
  800ad8:	080a6980 	call	80a698 <__mulsf3>
  800adc:	80800015 	stw	r2,0(r16)

			/* calculate the min and max */
			if (j == 0)
  800ae0:	e0bfe117 	ldw	r2,-124(fp)
  800ae4:	1004c03a 	cmpne	r2,r2,zero
  800ae8:	10000f1e 	bne	r2,zero,800b28 <ships_seperating_axis_theorem_collision_detect+0x724>
			{
				ship1_max_projections.x = ship1_projections[j].x;
  800aec:	e0bfe117 	ldw	r2,-124(fp)
  800af0:	10800224 	muli	r2,r2,8
  800af4:	e0ffde04 	addi	r3,fp,-136
  800af8:	10c5883a 	add	r2,r2,r3
  800afc:	10800604 	addi	r2,r2,24
  800b00:	10800017 	ldw	r2,0(r2)
  800b04:	e0bfec15 	stw	r2,-80(fp)
				ship1_max_projections.y = ship1_projections[j].y;
  800b08:	e0bfe117 	ldw	r2,-124(fp)
  800b0c:	10800224 	muli	r2,r2,8
  800b10:	e0ffde04 	addi	r3,fp,-136
  800b14:	10c5883a 	add	r2,r2,r3
  800b18:	10800704 	addi	r2,r2,28
  800b1c:	10800017 	ldw	r2,0(r2)
  800b20:	e0bfed15 	stw	r2,-76(fp)
  800b24:	00001906 	br	800b8c <ships_seperating_axis_theorem_collision_detect+0x788>
			}
			else if (ship1_projections[j].x > ship1_max_projections.x)
  800b28:	e0bfe117 	ldw	r2,-124(fp)
  800b2c:	10800224 	muli	r2,r2,8
  800b30:	e0ffde04 	addi	r3,fp,-136
  800b34:	10c5883a 	add	r2,r2,r3
  800b38:	10800604 	addi	r2,r2,24
  800b3c:	11000017 	ldw	r4,0(r2)
  800b40:	e17fec17 	ldw	r5,-80(fp)
  800b44:	080aa940 	call	80aa94 <__gtsf2>
  800b48:	10800048 	cmpgei	r2,r2,1
  800b4c:	1000011e 	bne	r2,zero,800b54 <ships_seperating_axis_theorem_collision_detect+0x750>
  800b50:	00000e06 	br	800b8c <ships_seperating_axis_theorem_collision_detect+0x788>
			{
				ship1_max_projections.x = ship1_projections[j].x;
  800b54:	e0bfe117 	ldw	r2,-124(fp)
  800b58:	10800224 	muli	r2,r2,8
  800b5c:	e0ffde04 	addi	r3,fp,-136
  800b60:	10c5883a 	add	r2,r2,r3
  800b64:	10800604 	addi	r2,r2,24
  800b68:	10800017 	ldw	r2,0(r2)
  800b6c:	e0bfec15 	stw	r2,-80(fp)
				ship1_max_projections.y = ship1_projections[j].y;
  800b70:	e0bfe117 	ldw	r2,-124(fp)
  800b74:	10800224 	muli	r2,r2,8
  800b78:	e0ffde04 	addi	r3,fp,-136
  800b7c:	10c5883a 	add	r2,r2,r3
  800b80:	10800704 	addi	r2,r2,28
  800b84:	10800017 	ldw	r2,0(r2)
  800b88:	e0bfed15 	stw	r2,-76(fp)
			}
			if (j == 0)
  800b8c:	e0bfe117 	ldw	r2,-124(fp)
  800b90:	1004c03a 	cmpne	r2,r2,zero
  800b94:	10000f1e 	bne	r2,zero,800bd4 <ships_seperating_axis_theorem_collision_detect+0x7d0>
			{
				ship1_min_projections.x = ship1_projections[j].x;
  800b98:	e0bfe117 	ldw	r2,-124(fp)
  800b9c:	10800224 	muli	r2,r2,8
  800ba0:	e0ffde04 	addi	r3,fp,-136
  800ba4:	10c5883a 	add	r2,r2,r3
  800ba8:	10800604 	addi	r2,r2,24
  800bac:	10800017 	ldw	r2,0(r2)
  800bb0:	e0bfee15 	stw	r2,-72(fp)
				ship1_min_projections.y = ship1_projections[j].y;
  800bb4:	e0bfe117 	ldw	r2,-124(fp)
  800bb8:	10800224 	muli	r2,r2,8
  800bbc:	e0ffde04 	addi	r3,fp,-136
  800bc0:	10c5883a 	add	r2,r2,r3
  800bc4:	10800704 	addi	r2,r2,28
  800bc8:	10800017 	ldw	r2,0(r2)
  800bcc:	e0bfef15 	stw	r2,-68(fp)
  800bd0:	00001906 	br	800c38 <ships_seperating_axis_theorem_collision_detect+0x834>
			}
			else if (ship1_projections[j].x < ship1_min_projections.x)
  800bd4:	e0bfe117 	ldw	r2,-124(fp)
  800bd8:	10800224 	muli	r2,r2,8
  800bdc:	e0ffde04 	addi	r3,fp,-136
  800be0:	10c5883a 	add	r2,r2,r3
  800be4:	10800604 	addi	r2,r2,24
  800be8:	11000017 	ldw	r4,0(r2)
  800bec:	e17fee17 	ldw	r5,-72(fp)
  800bf0:	080ab940 	call	80ab94 <__ltsf2>
  800bf4:	1004803a 	cmplt	r2,r2,zero
  800bf8:	1000011e 	bne	r2,zero,800c00 <ships_seperating_axis_theorem_collision_detect+0x7fc>
  800bfc:	00000e06 	br	800c38 <ships_seperating_axis_theorem_collision_detect+0x834>
			{
				ship1_min_projections.x = ship1_projections[j].x;
  800c00:	e0bfe117 	ldw	r2,-124(fp)
  800c04:	10800224 	muli	r2,r2,8
  800c08:	e0ffde04 	addi	r3,fp,-136
  800c0c:	10c5883a 	add	r2,r2,r3
  800c10:	10800604 	addi	r2,r2,24
  800c14:	10800017 	ldw	r2,0(r2)
  800c18:	e0bfee15 	stw	r2,-72(fp)
				ship1_min_projections.y = ship1_projections[j].y;
  800c1c:	e0bfe117 	ldw	r2,-124(fp)
  800c20:	10800224 	muli	r2,r2,8
  800c24:	e0ffde04 	addi	r3,fp,-136
  800c28:	10c5883a 	add	r2,r2,r3
  800c2c:	10800704 	addi	r2,r2,28
  800c30:	10800017 	ldw	r2,0(r2)
  800c34:	e0bfef15 	stw	r2,-68(fp)
  800c38:	e0bfe117 	ldw	r2,-124(fp)
  800c3c:	10800044 	addi	r2,r2,1
  800c40:	e0bfe115 	stw	r2,-124(fp)
  800c44:	003f6b06 	br	8009f4 <ships_seperating_axis_theorem_collision_detect+0x5f0>
			}
		}
		for (j = 0; j < 4; j++)
  800c48:	e03fe115 	stw	zero,-124(fp)
  800c4c:	e0bfe117 	ldw	r2,-124(fp)
  800c50:	10800108 	cmpgei	r2,r2,4
  800c54:	1000921e 	bne	r2,zero,800ea0 <ships_seperating_axis_theorem_collision_detect+0xa9c>
		{
			/* calculate the dot product */
			float dp;
			float project_part;
			dp = ship2->temp_matrix[j][X]*normal.x + ship2->temp_matrix[j][Y]*normal.y;
  800c58:	e13fdf17 	ldw	r4,-132(fp)
  800c5c:	e0bfe117 	ldw	r2,-124(fp)
  800c60:	10c00124 	muli	r3,r2,4
  800c64:	20800517 	ldw	r2,20(r4)
  800c68:	1885883a 	add	r2,r3,r2
  800c6c:	10800017 	ldw	r2,0(r2)
  800c70:	11000017 	ldw	r4,0(r2)
  800c74:	e17fe217 	ldw	r5,-120(fp)
  800c78:	080a6980 	call	80a698 <__mulsf3>
  800c7c:	1021883a 	mov	r16,r2
  800c80:	e13fdf17 	ldw	r4,-132(fp)
  800c84:	e0bfe117 	ldw	r2,-124(fp)
  800c88:	10c00124 	muli	r3,r2,4
  800c8c:	20800517 	ldw	r2,20(r4)
  800c90:	1885883a 	add	r2,r3,r2
  800c94:	10800017 	ldw	r2,0(r2)
  800c98:	10800104 	addi	r2,r2,4
  800c9c:	11000017 	ldw	r4,0(r2)
  800ca0:	e17fe317 	ldw	r5,-116(fp)
  800ca4:	080a6980 	call	80a698 <__mulsf3>
  800ca8:	8009883a 	mov	r4,r16
  800cac:	100b883a 	mov	r5,r2
  800cb0:	080a5dc0 	call	80a5dc <__addsf3>
  800cb4:	e0bffd15 	stw	r2,-12(fp)
			project_part = dp/(normal.x*normal.x + normal.y*normal.y);
  800cb8:	e13fe217 	ldw	r4,-120(fp)
  800cbc:	e17fe217 	ldw	r5,-120(fp)
  800cc0:	080a6980 	call	80a698 <__mulsf3>
  800cc4:	1021883a 	mov	r16,r2
  800cc8:	e13fe317 	ldw	r4,-116(fp)
  800ccc:	e17fe317 	ldw	r5,-116(fp)
  800cd0:	080a6980 	call	80a698 <__mulsf3>
  800cd4:	8009883a 	mov	r4,r16
  800cd8:	100b883a 	mov	r5,r2
  800cdc:	080a5dc0 	call	80a5dc <__addsf3>
  800ce0:	e13ffd17 	ldw	r4,-12(fp)
  800ce4:	100b883a 	mov	r5,r2
  800ce8:	080a85c0 	call	80a85c <__divsf3>
  800cec:	e0bffc15 	stw	r2,-16(fp)

			ship2_projections[j].x = project_part * normal.x;
  800cf0:	e0bfe117 	ldw	r2,-124(fp)
  800cf4:	10800224 	muli	r2,r2,8
  800cf8:	e0ffde04 	addi	r3,fp,-136
  800cfc:	10c5883a 	add	r2,r2,r3
  800d00:	14001204 	addi	r16,r2,72
  800d04:	e13fe217 	ldw	r4,-120(fp)
  800d08:	e17ffc17 	ldw	r5,-16(fp)
  800d0c:	080a6980 	call	80a698 <__mulsf3>
  800d10:	80800015 	stw	r2,0(r16)
			ship2_projections[j].y = project_part * normal.y;
  800d14:	e0bfe117 	ldw	r2,-124(fp)
  800d18:	10800224 	muli	r2,r2,8
  800d1c:	e0ffde04 	addi	r3,fp,-136
  800d20:	10c5883a 	add	r2,r2,r3
  800d24:	14001304 	addi	r16,r2,76
  800d28:	e13fe317 	ldw	r4,-116(fp)
  800d2c:	e17ffc17 	ldw	r5,-16(fp)
  800d30:	080a6980 	call	80a698 <__mulsf3>
  800d34:	80800015 	stw	r2,0(r16)

			/* calculate the min and max */
			if (j == 0)
  800d38:	e0bfe117 	ldw	r2,-124(fp)
  800d3c:	1004c03a 	cmpne	r2,r2,zero
  800d40:	10000f1e 	bne	r2,zero,800d80 <ships_seperating_axis_theorem_collision_detect+0x97c>
			{
				ship2_max_projections.x = ship2_projections[j].x;
  800d44:	e0bfe117 	ldw	r2,-124(fp)
  800d48:	10800224 	muli	r2,r2,8
  800d4c:	e0ffde04 	addi	r3,fp,-136
  800d50:	10c5883a 	add	r2,r2,r3
  800d54:	10801204 	addi	r2,r2,72
  800d58:	10800017 	ldw	r2,0(r2)
  800d5c:	e0bff815 	stw	r2,-32(fp)
				ship2_max_projections.y = ship2_projections[j].y;
  800d60:	e0bfe117 	ldw	r2,-124(fp)
  800d64:	10800224 	muli	r2,r2,8
  800d68:	e0ffde04 	addi	r3,fp,-136
  800d6c:	10c5883a 	add	r2,r2,r3
  800d70:	10801304 	addi	r2,r2,76
  800d74:	10800017 	ldw	r2,0(r2)
  800d78:	e0bff915 	stw	r2,-28(fp)
  800d7c:	00001906 	br	800de4 <ships_seperating_axis_theorem_collision_detect+0x9e0>
			}
			else if (ship2_projections[j].x > ship2_max_projections.x)
  800d80:	e0bfe117 	ldw	r2,-124(fp)
  800d84:	10800224 	muli	r2,r2,8
  800d88:	e0ffde04 	addi	r3,fp,-136
  800d8c:	10c5883a 	add	r2,r2,r3
  800d90:	10801204 	addi	r2,r2,72
  800d94:	11000017 	ldw	r4,0(r2)
  800d98:	e17ff817 	ldw	r5,-32(fp)
  800d9c:	080aa940 	call	80aa94 <__gtsf2>
  800da0:	10800048 	cmpgei	r2,r2,1
  800da4:	1000011e 	bne	r2,zero,800dac <ships_seperating_axis_theorem_collision_detect+0x9a8>
  800da8:	00000e06 	br	800de4 <ships_seperating_axis_theorem_collision_detect+0x9e0>
			{
				ship2_max_projections.x = ship2_projections[j].x;
  800dac:	e0bfe117 	ldw	r2,-124(fp)
  800db0:	10800224 	muli	r2,r2,8
  800db4:	e0ffde04 	addi	r3,fp,-136
  800db8:	10c5883a 	add	r2,r2,r3
  800dbc:	10801204 	addi	r2,r2,72
  800dc0:	10800017 	ldw	r2,0(r2)
  800dc4:	e0bff815 	stw	r2,-32(fp)
				ship2_max_projections.y = ship2_projections[j].y;
  800dc8:	e0bfe117 	ldw	r2,-124(fp)
  800dcc:	10800224 	muli	r2,r2,8
  800dd0:	e0ffde04 	addi	r3,fp,-136
  800dd4:	10c5883a 	add	r2,r2,r3
  800dd8:	10801304 	addi	r2,r2,76
  800ddc:	10800017 	ldw	r2,0(r2)
  800de0:	e0bff915 	stw	r2,-28(fp)
			}
			if (j == 0)
  800de4:	e0bfe117 	ldw	r2,-124(fp)
  800de8:	1004c03a 	cmpne	r2,r2,zero
  800dec:	10000f1e 	bne	r2,zero,800e2c <ships_seperating_axis_theorem_collision_detect+0xa28>
			{
				ship2_min_projections.x = ship2_projections[j].x;
  800df0:	e0bfe117 	ldw	r2,-124(fp)
  800df4:	10800224 	muli	r2,r2,8
  800df8:	e0ffde04 	addi	r3,fp,-136
  800dfc:	10c5883a 	add	r2,r2,r3
  800e00:	10801204 	addi	r2,r2,72
  800e04:	10800017 	ldw	r2,0(r2)
  800e08:	e0bffa15 	stw	r2,-24(fp)
				ship2_min_projections.y = ship2_projections[j].y;
  800e0c:	e0bfe117 	ldw	r2,-124(fp)
  800e10:	10800224 	muli	r2,r2,8
  800e14:	e0ffde04 	addi	r3,fp,-136
  800e18:	10c5883a 	add	r2,r2,r3
  800e1c:	10801304 	addi	r2,r2,76
  800e20:	10800017 	ldw	r2,0(r2)
  800e24:	e0bffb15 	stw	r2,-20(fp)
  800e28:	00001906 	br	800e90 <ships_seperating_axis_theorem_collision_detect+0xa8c>
			}
			else if (ship2_projections[j].x < ship2_min_projections.x)
  800e2c:	e0bfe117 	ldw	r2,-124(fp)
  800e30:	10800224 	muli	r2,r2,8
  800e34:	e0ffde04 	addi	r3,fp,-136
  800e38:	10c5883a 	add	r2,r2,r3
  800e3c:	10801204 	addi	r2,r2,72
  800e40:	11000017 	ldw	r4,0(r2)
  800e44:	e17ffa17 	ldw	r5,-24(fp)
  800e48:	080ab940 	call	80ab94 <__ltsf2>
  800e4c:	1004803a 	cmplt	r2,r2,zero
  800e50:	1000011e 	bne	r2,zero,800e58 <ships_seperating_axis_theorem_collision_detect+0xa54>
  800e54:	00000e06 	br	800e90 <ships_seperating_axis_theorem_collision_detect+0xa8c>
			{
				ship2_min_projections.x = ship2_projections[j].x;
  800e58:	e0bfe117 	ldw	r2,-124(fp)
  800e5c:	10800224 	muli	r2,r2,8
  800e60:	e0ffde04 	addi	r3,fp,-136
  800e64:	10c5883a 	add	r2,r2,r3
  800e68:	10801204 	addi	r2,r2,72
  800e6c:	10800017 	ldw	r2,0(r2)
  800e70:	e0bffa15 	stw	r2,-24(fp)
				ship2_min_projections.y = ship2_projections[j].y;
  800e74:	e0bfe117 	ldw	r2,-124(fp)
  800e78:	10800224 	muli	r2,r2,8
  800e7c:	e0ffde04 	addi	r3,fp,-136
  800e80:	10c5883a 	add	r2,r2,r3
  800e84:	10801304 	addi	r2,r2,76
  800e88:	10800017 	ldw	r2,0(r2)
  800e8c:	e0bffb15 	stw	r2,-20(fp)
  800e90:	e0bfe117 	ldw	r2,-124(fp)
  800e94:	10800044 	addi	r2,r2,1
  800e98:	e0bfe115 	stw	r2,-124(fp)
  800e9c:	003f6b06 	br	800c4c <ships_seperating_axis_theorem_collision_detect+0x848>
			}
		}

		if (!((ship1_min_projections.x <= ship2_min_projections.x && ship2_min_projections.x <= ship1_max_projections.x) ||
  800ea0:	e13fee17 	ldw	r4,-72(fp)
  800ea4:	e17ffa17 	ldw	r5,-24(fp)
  800ea8:	080ac140 	call	80ac14 <__lesf2>
  800eac:	10800050 	cmplti	r2,r2,1
  800eb0:	1000011e 	bne	r2,zero,800eb8 <ships_seperating_axis_theorem_collision_detect+0xab4>
  800eb4:	00000506 	br	800ecc <ships_seperating_axis_theorem_collision_detect+0xac8>
  800eb8:	e13ffa17 	ldw	r4,-24(fp)
  800ebc:	e17fec17 	ldw	r5,-80(fp)
  800ec0:	080ac140 	call	80ac14 <__lesf2>
  800ec4:	10800050 	cmplti	r2,r2,1
  800ec8:	10000d1e 	bne	r2,zero,800f00 <ships_seperating_axis_theorem_collision_detect+0xafc>
  800ecc:	e13ffa17 	ldw	r4,-24(fp)
  800ed0:	e17fee17 	ldw	r5,-72(fp)
  800ed4:	080ac140 	call	80ac14 <__lesf2>
  800ed8:	10800050 	cmplti	r2,r2,1
  800edc:	1000011e 	bne	r2,zero,800ee4 <ships_seperating_axis_theorem_collision_detect+0xae0>
  800ee0:	00000506 	br	800ef8 <ships_seperating_axis_theorem_collision_detect+0xaf4>
  800ee4:	e13fee17 	ldw	r4,-72(fp)
  800ee8:	e17ff817 	ldw	r5,-32(fp)
  800eec:	080ac140 	call	80ac14 <__lesf2>
  800ef0:	10800050 	cmplti	r2,r2,1
  800ef4:	1000021e 	bne	r2,zero,800f00 <ships_seperating_axis_theorem_collision_detect+0xafc>
			(ship2_min_projections.x <= ship1_min_projections.x && ship1_min_projections.x <= ship2_max_projections.x)))
		{
			/* IF the condition above is ! true then Collision not detected since we've found a separating axis */
			return FALSE;
  800ef8:	e03ffe15 	stw	zero,-8(fp)
  800efc:	00000606 	br	800f18 <ships_seperating_axis_theorem_collision_detect+0xb14>
  800f00:	e0bfe017 	ldw	r2,-128(fp)
  800f04:	10800044 	addi	r2,r2,1
  800f08:	e0bfe015 	stw	r2,-128(fp)
  800f0c:	003ea306 	br	80099c <ships_seperating_axis_theorem_collision_detect+0x598>
		}
	}

	/* IF all sepration axis are overlapping then yes, we have a collision */
	return TRUE;
  800f10:	00800044 	movi	r2,1
  800f14:	e0bffe15 	stw	r2,-8(fp)
}
  800f18:	e0bffe17 	ldw	r2,-8(fp)
  800f1c:	dfc02317 	ldw	ra,140(sp)
  800f20:	df002217 	ldw	fp,136(sp)
  800f24:	dc002117 	ldw	r16,132(sp)
  800f28:	dec02404 	addi	sp,sp,144
  800f2c:	f800283a 	ret

00800f30 <calculate_axis_of_ship>:

/*---------------------------------------------------------------------------------------------
 * (function: calculate_axis_of_ship)
 *	Point 1 - Point 2 ... since the rectangle for the ship is in the order P1, P2, P3, P4 then P4 to P1
 *-------------------------------------------------------------------------------------------*/
void calculate_axis_of_ship(ship_t *ship, int axis_idx)
{
  800f30:	defffb04 	addi	sp,sp,-20
  800f34:	dfc00415 	stw	ra,16(sp)
  800f38:	df000315 	stw	fp,12(sp)
  800f3c:	dc000215 	stw	r16,8(sp)
  800f40:	df000304 	addi	fp,sp,12
  800f44:	e13ffd15 	stw	r4,-12(fp)
  800f48:	e17ffe15 	stw	r5,-8(fp)
	ship->axis[axis_idx].x = ship->temp_matrix[axis_idx][X] - ship->temp_matrix[axis_idx + 1][X];
  800f4c:	e13ffd17 	ldw	r4,-12(fp)
  800f50:	e0bffe17 	ldw	r2,-8(fp)
  800f54:	10c00224 	muli	r3,r2,8
  800f58:	20800617 	ldw	r2,24(r4)
  800f5c:	18a1883a 	add	r16,r3,r2
  800f60:	e13ffd17 	ldw	r4,-12(fp)
  800f64:	e0bffe17 	ldw	r2,-8(fp)
  800f68:	10c00124 	muli	r3,r2,4
  800f6c:	20800517 	ldw	r2,20(r4)
  800f70:	1885883a 	add	r2,r3,r2
  800f74:	11400017 	ldw	r5,0(r2)
  800f78:	e13ffd17 	ldw	r4,-12(fp)
  800f7c:	e0bffe17 	ldw	r2,-8(fp)
  800f80:	10c00124 	muli	r3,r2,4
  800f84:	20800517 	ldw	r2,20(r4)
  800f88:	1885883a 	add	r2,r3,r2
  800f8c:	10800104 	addi	r2,r2,4
  800f90:	10800017 	ldw	r2,0(r2)
  800f94:	29000017 	ldw	r4,0(r5)
  800f98:	11400017 	ldw	r5,0(r2)
  800f9c:	080a6340 	call	80a634 <__subsf3>
  800fa0:	80800015 	stw	r2,0(r16)
	ship->axis[axis_idx].y = ship->temp_matrix[axis_idx][Y] - ship->temp_matrix[axis_idx + 1][Y];
  800fa4:	e13ffd17 	ldw	r4,-12(fp)
  800fa8:	e0bffe17 	ldw	r2,-8(fp)
  800fac:	10c00224 	muli	r3,r2,8
  800fb0:	20800617 	ldw	r2,24(r4)
  800fb4:	18a1883a 	add	r16,r3,r2
  800fb8:	e13ffd17 	ldw	r4,-12(fp)
  800fbc:	e0bffe17 	ldw	r2,-8(fp)
  800fc0:	10c00124 	muli	r3,r2,4
  800fc4:	20800517 	ldw	r2,20(r4)
  800fc8:	1885883a 	add	r2,r3,r2
  800fcc:	10800017 	ldw	r2,0(r2)
  800fd0:	11400104 	addi	r5,r2,4
  800fd4:	e13ffd17 	ldw	r4,-12(fp)
  800fd8:	e0bffe17 	ldw	r2,-8(fp)
  800fdc:	10c00124 	muli	r3,r2,4
  800fe0:	20800517 	ldw	r2,20(r4)
  800fe4:	1885883a 	add	r2,r3,r2
  800fe8:	10800104 	addi	r2,r2,4
  800fec:	10800017 	ldw	r2,0(r2)
  800ff0:	10800104 	addi	r2,r2,4
  800ff4:	29000017 	ldw	r4,0(r5)
  800ff8:	11400017 	ldw	r5,0(r2)
  800ffc:	080a6340 	call	80a634 <__subsf3>
  801000:	80800115 	stw	r2,4(r16)
}
  801004:	dfc00417 	ldw	ra,16(sp)
  801008:	df000317 	ldw	fp,12(sp)
  80100c:	dc000217 	ldw	r16,8(sp)
  801010:	dec00504 	addi	sp,sp,20
  801014:	f800283a 	ret

00801018 <straight_line_vector_projection>:

/*---------------------------------------------------------------------------------------------
 * (function: straight_line_vector)
 *-------------------------------------------------------------------------------------------*/
short straight_line_vector_projection(ship_t *ship, int angle, float x, float y, int is_shot)
{
  801018:	deffdf04 	addi	sp,sp,-132
  80101c:	dfc02015 	stw	ra,128(sp)
  801020:	df001f15 	stw	fp,124(sp)
  801024:	dc001e15 	stw	r16,120(sp)
  801028:	dc401d15 	stw	r17,116(sp)
  80102c:	df001f04 	addi	fp,sp,124
  801030:	e13fe315 	stw	r4,-116(fp)
  801034:	e17fe415 	stw	r5,-112(fp)
  801038:	e1bfe515 	stw	r6,-108(fp)
  80103c:	e1ffe615 	stw	r7,-104(fp)
	ship_t* current_ship;
	int i;
	int j;
	vector_t point1;
	vector_t point2;
	vector_t slope_point;
	float line_slope;
	float c;
	
	point1.x = x;
  801040:	e0bfe517 	ldw	r2,-108(fp)
  801044:	e0bfea15 	stw	r2,-88(fp)
	point1.y = y;
  801048:	e0bfe617 	ldw	r2,-104(fp)
  80104c:	e0bfeb15 	stw	r2,-84(fp)

	for (i = 0; i < 2; i++)
  801050:	e03fe815 	stw	zero,-96(fp)
  801054:	e0bfe817 	ldw	r2,-96(fp)
  801058:	10800088 	cmpgei	r2,r2,2
  80105c:	1001c71e 	bne	r2,zero,80177c <straight_line_vector_projection+0x764>
	{
		
		if (i == 0)
  801060:	e0bfe817 	ldw	r2,-96(fp)
  801064:	1004c03a 	cmpne	r2,r2,zero
  801068:	1000041e 	bne	r2,zero,80107c <straight_line_vector_projection+0x64>
		{
			current_ship = &p1_ship;
  80106c:	008020b4 	movhi	r2,130
  801070:	10afc004 	addi	r2,r2,-16640
  801074:	e0bfe715 	stw	r2,-100(fp)
  801078:	00000306 	br	801088 <straight_line_vector_projection+0x70>
		}
		else
		{
			current_ship = &p2_ship;
  80107c:	008020b4 	movhi	r2,130
  801080:	10b0e804 	addi	r2,r2,-15456
  801084:	e0bfe715 	stw	r2,-100(fp)
		}

		if ((ship == current_ship) || (ship == current_ship))
  801088:	e0ffe317 	ldw	r3,-116(fp)
  80108c:	e0bfe717 	ldw	r2,-100(fp)
  801090:	1881b626 	beq	r3,r2,80176c <straight_line_vector_projection+0x754>
  801094:	e0ffe317 	ldw	r3,-116(fp)
  801098:	e0bfe717 	ldw	r2,-100(fp)
  80109c:	1881b326 	beq	r3,r2,80176c <straight_line_vector_projection+0x754>
		{
			continue;
		}

		slope_point.x = cos((angle-270)*PI/180) + x;
  8010a0:	e0bfe417 	ldw	r2,-112(fp)
  8010a4:	113fbc84 	addi	r4,r2,-270
  8010a8:	080bb280 	call	80bb28 <__floatsidf>
  8010ac:	100b883a 	mov	r5,r2
  8010b0:	180d883a 	mov	r6,r3
  8010b4:	2809883a 	mov	r4,r5
  8010b8:	300b883a 	mov	r5,r6
  8010bc:	0194f274 	movhi	r6,21449
  8010c0:	31b53c44 	addi	r6,r6,-11023
  8010c4:	01d00274 	movhi	r7,16393
  8010c8:	39c87ec4 	addi	r7,r7,8699
  8010cc:	080b21c0 	call	80b21c <__muldf3>
  8010d0:	100b883a 	mov	r5,r2
  8010d4:	180d883a 	mov	r6,r3
  8010d8:	2809883a 	mov	r4,r5
  8010dc:	300b883a 	mov	r5,r6
  8010e0:	000d883a 	mov	r6,zero
  8010e4:	01d019f4 	movhi	r7,16487
  8010e8:	39e00004 	addi	r7,r7,-32768
  8010ec:	080b61c0 	call	80b61c <__divdf3>
  8010f0:	100b883a 	mov	r5,r2
  8010f4:	180d883a 	mov	r6,r3
  8010f8:	2809883a 	mov	r4,r5
  8010fc:	300b883a 	mov	r5,r6
  801100:	0807a1c0 	call	807a1c <cos>
  801104:	1009883a 	mov	r4,r2
  801108:	180b883a 	mov	r5,r3
  80110c:	2021883a 	mov	r16,r4
  801110:	2823883a 	mov	r17,r5
  801114:	e13fe517 	ldw	r4,-108(fp)
  801118:	080adc00 	call	80adc0 <__extendsfdf2>
  80111c:	100f883a 	mov	r7,r2
  801120:	1811883a 	mov	r8,r3
  801124:	8009883a 	mov	r4,r16
  801128:	880b883a 	mov	r5,r17
  80112c:	380d883a 	mov	r6,r7
  801130:	400f883a 	mov	r7,r8
  801134:	080b1380 	call	80b138 <__adddf3>
  801138:	100b883a 	mov	r5,r2
  80113c:	180d883a 	mov	r6,r3
  801140:	2809883a 	mov	r4,r5
  801144:	300b883a 	mov	r5,r6
  801148:	080bce80 	call	80bce8 <__truncdfsf2>
  80114c:	e0bfee15 	stw	r2,-72(fp)
		slope_point.y = sin((angle-270)*PI/180) + y;
  801150:	e0bfe417 	ldw	r2,-112(fp)
  801154:	113fbc84 	addi	r4,r2,-270
  801158:	080bb280 	call	80bb28 <__floatsidf>
  80115c:	100b883a 	mov	r5,r2
  801160:	180d883a 	mov	r6,r3
  801164:	2809883a 	mov	r4,r5
  801168:	300b883a 	mov	r5,r6
  80116c:	0194f274 	movhi	r6,21449
  801170:	31b53c44 	addi	r6,r6,-11023
  801174:	01d00274 	movhi	r7,16393
  801178:	39c87ec4 	addi	r7,r7,8699
  80117c:	080b21c0 	call	80b21c <__muldf3>
  801180:	100b883a 	mov	r5,r2
  801184:	180d883a 	mov	r6,r3
  801188:	2809883a 	mov	r4,r5
  80118c:	300b883a 	mov	r5,r6
  801190:	000d883a 	mov	r6,zero
  801194:	01d019f4 	movhi	r7,16487
  801198:	39e00004 	addi	r7,r7,-32768
  80119c:	080b61c0 	call	80b61c <__divdf3>
  8011a0:	100b883a 	mov	r5,r2
  8011a4:	180d883a 	mov	r6,r3
  8011a8:	2809883a 	mov	r4,r5
  8011ac:	300b883a 	mov	r5,r6
  8011b0:	0807b8c0 	call	807b8c <sin>
  8011b4:	1009883a 	mov	r4,r2
  8011b8:	180b883a 	mov	r5,r3
  8011bc:	2021883a 	mov	r16,r4
  8011c0:	2823883a 	mov	r17,r5
  8011c4:	e13fe617 	ldw	r4,-104(fp)
  8011c8:	080adc00 	call	80adc0 <__extendsfdf2>
  8011cc:	100f883a 	mov	r7,r2
  8011d0:	1811883a 	mov	r8,r3
  8011d4:	8009883a 	mov	r4,r16
  8011d8:	880b883a 	mov	r5,r17
  8011dc:	380d883a 	mov	r6,r7
  8011e0:	400f883a 	mov	r7,r8
  8011e4:	080b1380 	call	80b138 <__adddf3>
  8011e8:	100b883a 	mov	r5,r2
  8011ec:	180d883a 	mov	r6,r3
  8011f0:	2809883a 	mov	r4,r5
  8011f4:	300b883a 	mov	r5,r6
  8011f8:	080bce80 	call	80bce8 <__truncdfsf2>
  8011fc:	e0bfef15 	stw	r2,-68(fp)
		if ((x - slope_point.x) != 0)
  801200:	e13fe517 	ldw	r4,-108(fp)
  801204:	e17fee17 	ldw	r5,-72(fp)
  801208:	080a6340 	call	80a634 <__subsf3>
  80120c:	1009883a 	mov	r4,r2
  801210:	000b883a 	mov	r5,zero
  801214:	080aa140 	call	80aa14 <__nesf2>
  801218:	1004c03a 	cmpne	r2,r2,zero
  80121c:	1000011e 	bne	r2,zero,801224 <straight_line_vector_projection+0x20c>
  801220:	00007306 	br	8013f0 <straight_line_vector_projection+0x3d8>
		{
			line_slope = (slope_point.y - y)/(slope_point.x - x);  
  801224:	e13fef17 	ldw	r4,-68(fp)
  801228:	e17fe617 	ldw	r5,-104(fp)
  80122c:	080a6340 	call	80a634 <__subsf3>
  801230:	1021883a 	mov	r16,r2
  801234:	e13fee17 	ldw	r4,-72(fp)
  801238:	e17fe517 	ldw	r5,-108(fp)
  80123c:	080a6340 	call	80a634 <__subsf3>
  801240:	8009883a 	mov	r4,r16
  801244:	100b883a 	mov	r5,r2
  801248:	080a85c0 	call	80a85c <__divsf3>
  80124c:	e0bff015 	stw	r2,-64(fp)

			if ((slope_point.x - x) < 0)
  801250:	e13fee17 	ldw	r4,-72(fp)
  801254:	e17fe517 	ldw	r5,-108(fp)
  801258:	080a6340 	call	80a634 <__subsf3>
  80125c:	1009883a 	mov	r4,r2
  801260:	000b883a 	mov	r5,zero
  801264:	080ab940 	call	80ab94 <__ltsf2>
  801268:	1004803a 	cmplt	r2,r2,zero
  80126c:	1000011e 	bne	r2,zero,801274 <straight_line_vector_projection+0x25c>
  801270:	00002c06 	br	801324 <straight_line_vector_projection+0x30c>
			{
				/* heading towards x = 0 get the c of the line equation "y = mx + b" */
				c = y - line_slope*x;
  801274:	e13ff017 	ldw	r4,-64(fp)
  801278:	e17fe517 	ldw	r5,-108(fp)
  80127c:	080a6980 	call	80a698 <__mulsf3>
  801280:	e13fe617 	ldw	r4,-104(fp)
  801284:	100b883a 	mov	r5,r2
  801288:	080a6340 	call	80a634 <__subsf3>
  80128c:	e0bff115 	stw	r2,-60(fp)
				point2.x = 0;
  801290:	e03fec15 	stw	zero,-80(fp)
				point2.y = c; 
  801294:	e0bff117 	ldw	r2,-60(fp)
  801298:	e0bfed15 	stw	r2,-76(fp)

				/* don't go outside screen boundary */
				if (point2.y < 0)
  80129c:	e13fed17 	ldw	r4,-76(fp)
  8012a0:	000b883a 	mov	r5,zero
  8012a4:	080ab940 	call	80ab94 <__ltsf2>
  8012a8:	1004803a 	cmplt	r2,r2,zero
  8012ac:	1000011e 	bne	r2,zero,8012b4 <straight_line_vector_projection+0x29c>
  8012b0:	00000906 	br	8012d8 <straight_line_vector_projection+0x2c0>
				{
					point2.y = 0;
  8012b4:	e03fed15 	stw	zero,-76(fp)
					point2.x = (0 - c)/line_slope;
  8012b8:	0009883a 	mov	r4,zero
  8012bc:	e17ff117 	ldw	r5,-60(fp)
  8012c0:	080a6340 	call	80a634 <__subsf3>
  8012c4:	1009883a 	mov	r4,r2
  8012c8:	e17ff017 	ldw	r5,-64(fp)
  8012cc:	080a85c0 	call	80a85c <__divsf3>
  8012d0:	e0bfec15 	stw	r2,-80(fp)
  8012d4:	00005806 	br	801438 <straight_line_vector_projection+0x420>
				}
				else if (point2.y > 240)
  8012d8:	e13fed17 	ldw	r4,-76(fp)
  8012dc:	0150dc34 	movhi	r5,17264
  8012e0:	29400004 	addi	r5,r5,0
  8012e4:	080aa940 	call	80aa94 <__gtsf2>
  8012e8:	10800048 	cmpgei	r2,r2,1
  8012ec:	1000011e 	bne	r2,zero,8012f4 <straight_line_vector_projection+0x2dc>
  8012f0:	00005106 	br	801438 <straight_line_vector_projection+0x420>
				{
					point2.y = 240;
  8012f4:	0090dc34 	movhi	r2,17264
  8012f8:	10800004 	addi	r2,r2,0
  8012fc:	e0bfed15 	stw	r2,-76(fp)
					point2.x = (240 - c)/line_slope;
  801300:	0110dc34 	movhi	r4,17264
  801304:	21000004 	addi	r4,r4,0
  801308:	e17ff117 	ldw	r5,-60(fp)
  80130c:	080a6340 	call	80a634 <__subsf3>
  801310:	1009883a 	mov	r4,r2
  801314:	e17ff017 	ldw	r5,-64(fp)
  801318:	080a85c0 	call	80a85c <__divsf3>
  80131c:	e0bfec15 	stw	r2,-80(fp)
  801320:	00004506 	br	801438 <straight_line_vector_projection+0x420>
				}
			}
			else 
			{
				/* heading towards 320*240 */
				c = y - line_slope*x;
  801324:	e13ff017 	ldw	r4,-64(fp)
  801328:	e17fe517 	ldw	r5,-108(fp)
  80132c:	080a6980 	call	80a698 <__mulsf3>
  801330:	e13fe617 	ldw	r4,-104(fp)
  801334:	100b883a 	mov	r5,r2
  801338:	080a6340 	call	80a634 <__subsf3>
  80133c:	e0bff115 	stw	r2,-60(fp)
				point2.x = 320;
  801340:	0090e834 	movhi	r2,17312
  801344:	10800004 	addi	r2,r2,0
  801348:	e0bfec15 	stw	r2,-80(fp)
				point2.y = line_slope*point2.x + c;
  80134c:	e13fec17 	ldw	r4,-80(fp)
  801350:	e17ff017 	ldw	r5,-64(fp)
  801354:	080a6980 	call	80a698 <__mulsf3>
  801358:	1009883a 	mov	r4,r2
  80135c:	e17ff117 	ldw	r5,-60(fp)
  801360:	080a5dc0 	call	80a5dc <__addsf3>
  801364:	e0bfed15 	stw	r2,-76(fp)

				/* don't go outside screen boundary */
				if (point2.y < 0)
  801368:	e13fed17 	ldw	r4,-76(fp)
  80136c:	000b883a 	mov	r5,zero
  801370:	080ab940 	call	80ab94 <__ltsf2>
  801374:	1004803a 	cmplt	r2,r2,zero
  801378:	1000011e 	bne	r2,zero,801380 <straight_line_vector_projection+0x368>
  80137c:	00000906 	br	8013a4 <straight_line_vector_projection+0x38c>
				{
					point2.y = 0;
  801380:	e03fed15 	stw	zero,-76(fp)
					point2.x = (0 - c)/line_slope;
  801384:	0009883a 	mov	r4,zero
  801388:	e17ff117 	ldw	r5,-60(fp)
  80138c:	080a6340 	call	80a634 <__subsf3>
  801390:	1009883a 	mov	r4,r2
  801394:	e17ff017 	ldw	r5,-64(fp)
  801398:	080a85c0 	call	80a85c <__divsf3>
  80139c:	e0bfec15 	stw	r2,-80(fp)
  8013a0:	00002506 	br	801438 <straight_line_vector_projection+0x420>
				}
				else if (point2.y > 240)
  8013a4:	e13fed17 	ldw	r4,-76(fp)
  8013a8:	0150dc34 	movhi	r5,17264
  8013ac:	29400004 	addi	r5,r5,0
  8013b0:	080aa940 	call	80aa94 <__gtsf2>
  8013b4:	10800048 	cmpgei	r2,r2,1
  8013b8:	1000011e 	bne	r2,zero,8013c0 <straight_line_vector_projection+0x3a8>
  8013bc:	00001e06 	br	801438 <straight_line_vector_projection+0x420>
				{
					point2.y = 240;
  8013c0:	0090dc34 	movhi	r2,17264
  8013c4:	10800004 	addi	r2,r2,0
  8013c8:	e0bfed15 	stw	r2,-76(fp)
					point2.x = (240 - c)/line_slope;
  8013cc:	0110dc34 	movhi	r4,17264
  8013d0:	21000004 	addi	r4,r4,0
  8013d4:	e17ff117 	ldw	r5,-60(fp)
  8013d8:	080a6340 	call	80a634 <__subsf3>
  8013dc:	1009883a 	mov	r4,r2
  8013e0:	e17ff017 	ldw	r5,-64(fp)
  8013e4:	080a85c0 	call	80a85c <__divsf3>
  8013e8:	e0bfec15 	stw	r2,-80(fp)
  8013ec:	00001206 	br	801438 <straight_line_vector_projection+0x420>
				}
			}
		}
		else
		{
			/* x component of slope is 0, therefore line is perpendicular to x-axis */
			if (angle == 360 || angle == 0)
  8013f0:	e0bfe417 	ldw	r2,-112(fp)
  8013f4:	10805a20 	cmpeqi	r2,r2,360
  8013f8:	1000031e 	bne	r2,zero,801408 <straight_line_vector_projection+0x3f0>
  8013fc:	e0bfe417 	ldw	r2,-112(fp)
  801400:	1004c03a 	cmpne	r2,r2,zero
  801404:	1000061e 	bne	r2,zero,801420 <straight_line_vector_projection+0x408>
			{
				/* pointing to y = 240 */
				point2.x = point1.x;
  801408:	e0bfea17 	ldw	r2,-88(fp)
  80140c:	e0bfec15 	stw	r2,-80(fp)
				point2.y = 240;
  801410:	0090dc34 	movhi	r2,17264
  801414:	10800004 	addi	r2,r2,0
  801418:	e0bfed15 	stw	r2,-76(fp)
  80141c:	00000606 	br	801438 <straight_line_vector_projection+0x420>
			}
			else if (angle == 180)
  801420:	e0bfe417 	ldw	r2,-112(fp)
  801424:	10802d18 	cmpnei	r2,r2,180
  801428:	1000031e 	bne	r2,zero,801438 <straight_line_vector_projection+0x420>
			{
				point2.x = point1.x;
  80142c:	e0bfea17 	ldw	r2,-88(fp)
  801430:	e0bfec15 	stw	r2,-80(fp)
				point2.y = 0;
  801434:	e03fed15 	stw	zero,-76(fp)
			}
		}

		if (is_shot)
  801438:	e0800217 	ldw	r2,8(fp)
  80143c:	1005003a 	cmpeq	r2,r2,zero
  801440:	10000d1e 	bne	r2,zero,801478 <straight_line_vector_projection+0x460>
		{
			ship->shot_start.x = x;
  801444:	e0ffe317 	ldw	r3,-116(fp)
  801448:	e0bfe517 	ldw	r2,-108(fp)
  80144c:	18800e15 	stw	r2,56(r3)
			ship->shot_start.y = y;
  801450:	e0ffe317 	ldw	r3,-116(fp)
  801454:	e0bfe617 	ldw	r2,-104(fp)
  801458:	18800f15 	stw	r2,60(r3)
			ship->shot_end.x = point2.x;
  80145c:	e0ffe317 	ldw	r3,-116(fp)
  801460:	e0bfec17 	ldw	r2,-80(fp)
  801464:	18801015 	stw	r2,64(r3)
			ship->shot_end.y = point2.y;
  801468:	e0ffe317 	ldw	r3,-116(fp)
  80146c:	e0bfed17 	ldw	r2,-76(fp)
  801470:	18801115 	stw	r2,68(r3)
  801474:	00000c06 	br	8014a8 <straight_line_vector_projection+0x490>
		}
		else // is sensor beam
		{
			ship->sensor_start.x = x;
  801478:	e0ffe317 	ldw	r3,-116(fp)
  80147c:	e0bfe517 	ldw	r2,-108(fp)
  801480:	18801215 	stw	r2,72(r3)
			ship->sensor_start.y = y;
  801484:	e0ffe317 	ldw	r3,-116(fp)
  801488:	e0bfe617 	ldw	r2,-104(fp)
  80148c:	18801315 	stw	r2,76(r3)
			ship->sensor_end.x = point2.x;
  801490:	e0ffe317 	ldw	r3,-116(fp)
  801494:	e0bfec17 	ldw	r2,-80(fp)
  801498:	18801415 	stw	r2,80(r3)
			ship->sensor_end.y = point2.y;
  80149c:	e0ffe317 	ldw	r3,-116(fp)
  8014a0:	e0bfed17 	ldw	r2,-76(fp)
  8014a4:	18801515 	stw	r2,84(r3)
		}

		/* now that we have the line projection, return what it hits - first check for ship */
		for (j = 0; j < 4; j++)
  8014a8:	e03fe915 	stw	zero,-92(fp)
  8014ac:	e0bfe917 	ldw	r2,-92(fp)
  8014b0:	10800108 	cmpgei	r2,r2,4
  8014b4:	10006d1e 	bne	r2,zero,80166c <straight_line_vector_projection+0x654>
		{
			vector_t ship_vertices1;
			vector_t ship_vertices2;
			short test1;
			short test2;

			ship_vertices1.x = current_ship->matrix_location[j][X];
  8014b8:	e13fe717 	ldw	r4,-100(fp)
  8014bc:	e0bfe917 	ldw	r2,-92(fp)
  8014c0:	10c00124 	muli	r3,r2,4
  8014c4:	20800417 	ldw	r2,16(r4)
  8014c8:	1885883a 	add	r2,r3,r2
  8014cc:	10800017 	ldw	r2,0(r2)
  8014d0:	10800017 	ldw	r2,0(r2)
  8014d4:	e0bff215 	stw	r2,-56(fp)
			ship_vertices1.y = current_ship->matrix_location[j][Y];
  8014d8:	e13fe717 	ldw	r4,-100(fp)
  8014dc:	e0bfe917 	ldw	r2,-92(fp)
  8014e0:	10c00124 	muli	r3,r2,4
  8014e4:	20800417 	ldw	r2,16(r4)
  8014e8:	1885883a 	add	r2,r3,r2
  8014ec:	10800017 	ldw	r2,0(r2)
  8014f0:	10800104 	addi	r2,r2,4
  8014f4:	10800017 	ldw	r2,0(r2)
  8014f8:	e0bff315 	stw	r2,-52(fp)
			ship_vertices2.x = current_ship->matrix_location[(j+1)%4][X];
  8014fc:	e0bfe717 	ldw	r2,-100(fp)
  801500:	e0bff815 	stw	r2,-32(fp)
  801504:	e0bfe917 	ldw	r2,-92(fp)
  801508:	10800044 	addi	r2,r2,1
  80150c:	e0bff915 	stw	r2,-28(fp)
  801510:	e0fff917 	ldw	r3,-28(fp)
  801514:	e0fffa15 	stw	r3,-24(fp)
  801518:	e13ffa17 	ldw	r4,-24(fp)
  80151c:	2004403a 	cmpge	r2,r4,zero
  801520:	1000031e 	bne	r2,zero,801530 <straight_line_vector_projection+0x518>
  801524:	e0bffa17 	ldw	r2,-24(fp)
  801528:	108000c4 	addi	r2,r2,3
  80152c:	e0bffa15 	stw	r2,-24(fp)
  801530:	e0fffa17 	ldw	r3,-24(fp)
  801534:	1805d0ba 	srai	r2,r3,2
  801538:	10800124 	muli	r2,r2,4
  80153c:	e13ff917 	ldw	r4,-28(fp)
  801540:	2085c83a 	sub	r2,r4,r2
  801544:	10c00124 	muli	r3,r2,4
  801548:	e13ff817 	ldw	r4,-32(fp)
  80154c:	20800417 	ldw	r2,16(r4)
  801550:	1885883a 	add	r2,r3,r2
  801554:	10800017 	ldw	r2,0(r2)
  801558:	10800017 	ldw	r2,0(r2)
  80155c:	e0bff415 	stw	r2,-48(fp)
			ship_vertices2.y = current_ship->matrix_location[(j+1)%4][Y];
  801560:	e0bfe717 	ldw	r2,-100(fp)
  801564:	e0bffb15 	stw	r2,-20(fp)
  801568:	e0bfe917 	ldw	r2,-92(fp)
  80156c:	10800044 	addi	r2,r2,1
  801570:	e0bffc15 	stw	r2,-16(fp)
  801574:	e0fffc17 	ldw	r3,-16(fp)
  801578:	e0fffd15 	stw	r3,-12(fp)
  80157c:	e13ffd17 	ldw	r4,-12(fp)
  801580:	2004403a 	cmpge	r2,r4,zero
  801584:	1000031e 	bne	r2,zero,801594 <straight_line_vector_projection+0x57c>
  801588:	e0bffd17 	ldw	r2,-12(fp)
  80158c:	108000c4 	addi	r2,r2,3
  801590:	e0bffd15 	stw	r2,-12(fp)
  801594:	e0fffd17 	ldw	r3,-12(fp)
  801598:	1805d0ba 	srai	r2,r3,2
  80159c:	10800124 	muli	r2,r2,4
  8015a0:	e13ffc17 	ldw	r4,-16(fp)
  8015a4:	2085c83a 	sub	r2,r4,r2
  8015a8:	10c00124 	muli	r3,r2,4
  8015ac:	e13ffb17 	ldw	r4,-20(fp)
  8015b0:	20800417 	ldw	r2,16(r4)
  8015b4:	1885883a 	add	r2,r3,r2
  8015b8:	10800017 	ldw	r2,0(r2)
  8015bc:	10800104 	addi	r2,r2,4
  8015c0:	10800017 	ldw	r2,0(r2)
  8015c4:	e0bff515 	stw	r2,-44(fp)

			test1 = is_ccw_abc(point1.x, point1.y, ship_vertices1.x, ship_vertices1.y, point2.x, point2.y);
  8015c8:	e0bfec17 	ldw	r2,-80(fp)
  8015cc:	d8800015 	stw	r2,0(sp)
  8015d0:	e0bfed17 	ldw	r2,-76(fp)
  8015d4:	d8800115 	stw	r2,4(sp)
  8015d8:	e13fea17 	ldw	r4,-88(fp)
  8015dc:	e17feb17 	ldw	r5,-84(fp)
  8015e0:	e1bff217 	ldw	r6,-56(fp)
  8015e4:	e1fff317 	ldw	r7,-52(fp)
  8015e8:	080179c0 	call	80179c <is_ccw_abc>
  8015ec:	e0bff60d 	sth	r2,-40(fp)
			test2 = is_ccw_abc(point1.x, point1.y, ship_vertices2.x, ship_vertices2.y, point2.x, point2.y);
  8015f0:	e0bfec17 	ldw	r2,-80(fp)
  8015f4:	d8800015 	stw	r2,0(sp)
  8015f8:	e0bfed17 	ldw	r2,-76(fp)
  8015fc:	d8800115 	stw	r2,4(sp)
  801600:	e13fea17 	ldw	r4,-88(fp)
  801604:	e17feb17 	ldw	r5,-84(fp)
  801608:	e1bff417 	ldw	r6,-48(fp)
  80160c:	e1fff517 	ldw	r7,-44(fp)
  801610:	080179c0 	call	80179c <is_ccw_abc>
  801614:	e0bff68d 	sth	r2,-38(fp)

			/* theres is a collision if the clockwise tests are XOR TRUE */
			if ((test1 == TRUE && test2 == FALSE) || (test1 == FALSE && test2 == TRUE))
  801618:	e0bff60f 	ldh	r2,-40(fp)
  80161c:	10800058 	cmpnei	r2,r2,1
  801620:	1000041e 	bne	r2,zero,801634 <straight_line_vector_projection+0x61c>
  801624:	e0bff68f 	ldh	r2,-38(fp)
  801628:	1004c03a 	cmpne	r2,r2,zero
  80162c:	1000011e 	bne	r2,zero,801634 <straight_line_vector_projection+0x61c>
  801630:	00000706 	br	801650 <straight_line_vector_projection+0x638>
  801634:	e0bff60f 	ldh	r2,-40(fp)
  801638:	1004c03a 	cmpne	r2,r2,zero
  80163c:	1000071e 	bne	r2,zero,80165c <straight_line_vector_projection+0x644>
  801640:	e0bff68f 	ldh	r2,-38(fp)
  801644:	10800060 	cmpeqi	r2,r2,1
  801648:	1000011e 	bne	r2,zero,801650 <straight_line_vector_projection+0x638>
  80164c:	00000306 	br	80165c <straight_line_vector_projection+0x644>
			{
				/* ship collision */
				return SHIP;
  801650:	008000c4 	movi	r2,3
  801654:	e0bff715 	stw	r2,-36(fp)
  801658:	00004906 	br	801780 <straight_line_vector_projection+0x768>
  80165c:	e0bfe917 	ldw	r2,-92(fp)
  801660:	10800044 	addi	r2,r2,1
  801664:	e0bfe915 	stw	r2,-92(fp)
  801668:	003f9006 	br	8014ac <straight_line_vector_projection+0x494>
			}
		}

		/* if it's not a ship, return wall it hits */
		if (point2.x >= 0 && point2.x <= 320)
  80166c:	e13fec17 	ldw	r4,-80(fp)
  801670:	000b883a 	mov	r5,zero
  801674:	080ab140 	call	80ab14 <__gesf2>
  801678:	1004403a 	cmpge	r2,r2,zero
  80167c:	1000011e 	bne	r2,zero,801684 <straight_line_vector_projection+0x66c>
  801680:	00001a06 	br	8016ec <straight_line_vector_projection+0x6d4>
  801684:	e13fec17 	ldw	r4,-80(fp)
  801688:	0150e834 	movhi	r5,17312
  80168c:	29400004 	addi	r5,r5,0
  801690:	080ac140 	call	80ac14 <__lesf2>
  801694:	10800050 	cmplti	r2,r2,1
  801698:	1000011e 	bne	r2,zero,8016a0 <straight_line_vector_projection+0x688>
  80169c:	00001306 	br	8016ec <straight_line_vector_projection+0x6d4>
		{
			if (point2.y == 0)
  8016a0:	e13fed17 	ldw	r4,-76(fp)
  8016a4:	000b883a 	mov	r5,zero
  8016a8:	080a9940 	call	80a994 <__eqsf2>
  8016ac:	1005003a 	cmpeq	r2,r2,zero
  8016b0:	1000011e 	bne	r2,zero,8016b8 <straight_line_vector_projection+0x6a0>
  8016b4:	00000306 	br	8016c4 <straight_line_vector_projection+0x6ac>
				return WALL_N;
  8016b8:	00c00044 	movi	r3,1
  8016bc:	e0fff715 	stw	r3,-36(fp)
  8016c0:	00002f06 	br	801780 <straight_line_vector_projection+0x768>
			else if (point2.y == 240)
  8016c4:	e13fed17 	ldw	r4,-76(fp)
  8016c8:	0150dc34 	movhi	r5,17264
  8016cc:	29400004 	addi	r5,r5,0
  8016d0:	080a9940 	call	80a994 <__eqsf2>
  8016d4:	1005003a 	cmpeq	r2,r2,zero
  8016d8:	1000011e 	bne	r2,zero,8016e0 <straight_line_vector_projection+0x6c8>
  8016dc:	00002306 	br	80176c <straight_line_vector_projection+0x754>
				return WALL_S;
  8016e0:	01000084 	movi	r4,2
  8016e4:	e13ff715 	stw	r4,-36(fp)
  8016e8:	00002506 	br	801780 <straight_line_vector_projection+0x768>
		}
		else if (point2.y >= 0 && point2.y <=240)
  8016ec:	e13fed17 	ldw	r4,-76(fp)
  8016f0:	000b883a 	mov	r5,zero
  8016f4:	080ab140 	call	80ab14 <__gesf2>
  8016f8:	1004403a 	cmpge	r2,r2,zero
  8016fc:	1000011e 	bne	r2,zero,801704 <straight_line_vector_projection+0x6ec>
  801700:	00001a06 	br	80176c <straight_line_vector_projection+0x754>
  801704:	e13fed17 	ldw	r4,-76(fp)
  801708:	0150dc34 	movhi	r5,17264
  80170c:	29400004 	addi	r5,r5,0
  801710:	080ac140 	call	80ac14 <__lesf2>
  801714:	10800050 	cmplti	r2,r2,1
  801718:	1000011e 	bne	r2,zero,801720 <straight_line_vector_projection+0x708>
  80171c:	00001306 	br	80176c <straight_line_vector_projection+0x754>
		{
			if (point2.x == 0)
  801720:	e13fec17 	ldw	r4,-80(fp)
  801724:	000b883a 	mov	r5,zero
  801728:	080a9940 	call	80a994 <__eqsf2>
  80172c:	1005003a 	cmpeq	r2,r2,zero
  801730:	1000011e 	bne	r2,zero,801738 <straight_line_vector_projection+0x720>
  801734:	00000306 	br	801744 <straight_line_vector_projection+0x72c>
				return WALL_W;
  801738:	00800144 	movi	r2,5
  80173c:	e0bff715 	stw	r2,-36(fp)
  801740:	00000f06 	br	801780 <straight_line_vector_projection+0x768>
			else if (point2.x == 320)
  801744:	e13fec17 	ldw	r4,-80(fp)
  801748:	0150e834 	movhi	r5,17312
  80174c:	29400004 	addi	r5,r5,0
  801750:	080a9940 	call	80a994 <__eqsf2>
  801754:	1005003a 	cmpeq	r2,r2,zero
  801758:	1000011e 	bne	r2,zero,801760 <straight_line_vector_projection+0x748>
  80175c:	00000306 	br	80176c <straight_line_vector_projection+0x754>
				return WALL_E;
  801760:	00c00104 	movi	r3,4
  801764:	e0fff715 	stw	r3,-36(fp)
  801768:	00000506 	br	801780 <straight_line_vector_projection+0x768>
  80176c:	e0bfe817 	ldw	r2,-96(fp)
  801770:	10800044 	addi	r2,r2,1
  801774:	e0bfe815 	stw	r2,-96(fp)
  801778:	003e3606 	br	801054 <straight_line_vector_projection+0x3c>
		}
	}

	return NO_COLLISION;
  80177c:	e03ff715 	stw	zero,-36(fp)
}
  801780:	e0bff717 	ldw	r2,-36(fp)
  801784:	dfc02017 	ldw	ra,128(sp)
  801788:	df001f17 	ldw	fp,124(sp)
  80178c:	dc001e17 	ldw	r16,120(sp)
  801790:	dc401d17 	ldw	r17,116(sp)
  801794:	dec02104 	addi	sp,sp,132
  801798:	f800283a 	ret

0080179c <is_ccw_abc>:

/*---------------------------------------------------------------------------------------------
 * (function: is_ccw_abc)
 * 	checks if the points a, b, c are in the clockwise detection
 *-------------------------------------------------------------------------------------------*/
short is_ccw_abc(float a_x, float a_y, float b_x, float b_y, float c_x, float c_y)
{
  80179c:	defff604 	addi	sp,sp,-40
  8017a0:	dfc00915 	stw	ra,36(sp)
  8017a4:	df000815 	stw	fp,32(sp)
  8017a8:	dc000715 	stw	r16,28(sp)
  8017ac:	df000804 	addi	fp,sp,32
  8017b0:	e13ff815 	stw	r4,-32(fp)
  8017b4:	e17ff915 	stw	r5,-28(fp)
  8017b8:	e1bffa15 	stw	r6,-24(fp)
  8017bc:	e1fffb15 	stw	r7,-20(fp)
	float slope_ab = (b_y - a_y) / (b_x - a_x);
  8017c0:	e13ffb17 	ldw	r4,-20(fp)
  8017c4:	e17ff917 	ldw	r5,-28(fp)
  8017c8:	080a6340 	call	80a634 <__subsf3>
  8017cc:	1021883a 	mov	r16,r2
  8017d0:	e13ffa17 	ldw	r4,-24(fp)
  8017d4:	e17ff817 	ldw	r5,-32(fp)
  8017d8:	080a6340 	call	80a634 <__subsf3>
  8017dc:	8009883a 	mov	r4,r16
  8017e0:	100b883a 	mov	r5,r2
  8017e4:	080a85c0 	call	80a85c <__divsf3>
  8017e8:	e0bffc15 	stw	r2,-16(fp)
	float slope_bc = (c_y - b_y) / (c_x - b_x);
  8017ec:	e1000317 	ldw	r4,12(fp)
  8017f0:	e17ffb17 	ldw	r5,-20(fp)
  8017f4:	080a6340 	call	80a634 <__subsf3>
  8017f8:	1021883a 	mov	r16,r2
  8017fc:	e1000217 	ldw	r4,8(fp)
  801800:	e17ffa17 	ldw	r5,-24(fp)
  801804:	080a6340 	call	80a634 <__subsf3>
  801808:	8009883a 	mov	r4,r16
  80180c:	100b883a 	mov	r5,r2
  801810:	080a85c0 	call	80a85c <__divsf3>
  801814:	e0bffd15 	stw	r2,-12(fp)

	if (slope_ab < slope_bc)
  801818:	e13ffc17 	ldw	r4,-16(fp)
  80181c:	e17ffd17 	ldw	r5,-12(fp)
  801820:	080ab940 	call	80ab94 <__ltsf2>
  801824:	1004803a 	cmplt	r2,r2,zero
  801828:	1000011e 	bne	r2,zero,801830 <is_ccw_abc+0x94>
  80182c:	00000306 	br	80183c <is_ccw_abc+0xa0>
		return TRUE;
  801830:	00800044 	movi	r2,1
  801834:	e0bffe15 	stw	r2,-8(fp)
  801838:	00000106 	br	801840 <is_ccw_abc+0xa4>
	else
		return FALSE;
  80183c:	e03ffe15 	stw	zero,-8(fp)
}
  801840:	e0bffe17 	ldw	r2,-8(fp)
  801844:	dfc00917 	ldw	ra,36(sp)
  801848:	df000817 	ldw	fp,32(sp)
  80184c:	dc000717 	ldw	r16,28(sp)
  801850:	dec00a04 	addi	sp,sp,40
  801854:	f800283a 	ret

00801858 <draw_ship>:
 * (function: draw_ship)
 *	SHIP is a rectangle held in a matrix...the 0th row holds x coord and the 1st row holds y coord
 *-------------------------------------------------------------------------------------------*/
void draw_ship(ship_t *ship, alt_up_pixel_buffer_dev *pixel_buffer, int buf)
{
  801858:	defff504 	addi	sp,sp,-44
  80185c:	dfc00a15 	stw	ra,40(sp)
  801860:	df000915 	stw	fp,36(sp)
  801864:	dc000815 	stw	r16,32(sp)
  801868:	dc400715 	stw	r17,28(sp)
  80186c:	dc800615 	stw	r18,24(sp)
  801870:	df000904 	addi	fp,sp,36
  801874:	e13ffa15 	stw	r4,-24(fp)
  801878:	e17ffb15 	stw	r5,-20(fp)
  80187c:	e1bffc15 	stw	r6,-16(fp)
	alt_up_pixel_buffer_draw_line(pixel_buffer, 
  801880:	e0bffa17 	ldw	r2,-24(fp)
  801884:	10800417 	ldw	r2,16(r2)
  801888:	10800017 	ldw	r2,0(r2)
  80188c:	11000017 	ldw	r4,0(r2)
  801890:	080ad2c0 	call	80ad2c <__fixsfsi>
  801894:	1021883a 	mov	r16,r2
  801898:	e0bffa17 	ldw	r2,-24(fp)
  80189c:	10800417 	ldw	r2,16(r2)
  8018a0:	10800017 	ldw	r2,0(r2)
  8018a4:	10800104 	addi	r2,r2,4
  8018a8:	11000017 	ldw	r4,0(r2)
  8018ac:	080ad2c0 	call	80ad2c <__fixsfsi>
  8018b0:	1023883a 	mov	r17,r2
  8018b4:	e0bffa17 	ldw	r2,-24(fp)
  8018b8:	10800417 	ldw	r2,16(r2)
  8018bc:	10800104 	addi	r2,r2,4
  8018c0:	10800017 	ldw	r2,0(r2)
  8018c4:	11000017 	ldw	r4,0(r2)
  8018c8:	080ad2c0 	call	80ad2c <__fixsfsi>
  8018cc:	1025883a 	mov	r18,r2
  8018d0:	e0bffa17 	ldw	r2,-24(fp)
  8018d4:	10800417 	ldw	r2,16(r2)
  8018d8:	10800104 	addi	r2,r2,4
  8018dc:	10800017 	ldw	r2,0(r2)
  8018e0:	10800104 	addi	r2,r2,4
  8018e4:	11000017 	ldw	r4,0(r2)
  8018e8:	080ad2c0 	call	80ad2c <__fixsfsi>
  8018ec:	d8800015 	stw	r2,0(sp)
  8018f0:	e0bffa17 	ldw	r2,-24(fp)
  8018f4:	10800717 	ldw	r2,28(r2)
  8018f8:	d8800115 	stw	r2,4(sp)
  8018fc:	e0bffc17 	ldw	r2,-16(fp)
  801900:	d8800215 	stw	r2,8(sp)
  801904:	e13ffb17 	ldw	r4,-20(fp)
  801908:	800b883a 	mov	r5,r16
  80190c:	880d883a 	mov	r6,r17
  801910:	900f883a 	mov	r7,r18
  801914:	08184080 	call	818408 <alt_up_pixel_buffer_draw_line>
			ship->matrix_location[0][0], ship->matrix_location[0][1], 
			ship->matrix_location[1][0], ship->matrix_location[1][1], 
			ship->color[0], buf);
	alt_up_pixel_buffer_draw_line(pixel_buffer, 
  801918:	e0bffa17 	ldw	r2,-24(fp)
  80191c:	10800417 	ldw	r2,16(r2)
  801920:	10800104 	addi	r2,r2,4
  801924:	10800017 	ldw	r2,0(r2)
  801928:	11000017 	ldw	r4,0(r2)
  80192c:	080ad2c0 	call	80ad2c <__fixsfsi>
  801930:	1021883a 	mov	r16,r2
  801934:	e0bffa17 	ldw	r2,-24(fp)
  801938:	10800417 	ldw	r2,16(r2)
  80193c:	10800104 	addi	r2,r2,4
  801940:	10800017 	ldw	r2,0(r2)
  801944:	10800104 	addi	r2,r2,4
  801948:	11000017 	ldw	r4,0(r2)
  80194c:	080ad2c0 	call	80ad2c <__fixsfsi>
  801950:	1023883a 	mov	r17,r2
  801954:	e0bffa17 	ldw	r2,-24(fp)
  801958:	10800417 	ldw	r2,16(r2)
  80195c:	10800204 	addi	r2,r2,8
  801960:	10800017 	ldw	r2,0(r2)
  801964:	11000017 	ldw	r4,0(r2)
  801968:	080ad2c0 	call	80ad2c <__fixsfsi>
  80196c:	1025883a 	mov	r18,r2
  801970:	e0bffa17 	ldw	r2,-24(fp)
  801974:	10800417 	ldw	r2,16(r2)
  801978:	10800204 	addi	r2,r2,8
  80197c:	10800017 	ldw	r2,0(r2)
  801980:	10800104 	addi	r2,r2,4
  801984:	11000017 	ldw	r4,0(r2)
  801988:	080ad2c0 	call	80ad2c <__fixsfsi>
  80198c:	d8800015 	stw	r2,0(sp)
  801990:	e0bffa17 	ldw	r2,-24(fp)
  801994:	10800717 	ldw	r2,28(r2)
  801998:	d8800115 	stw	r2,4(sp)
  80199c:	e0bffc17 	ldw	r2,-16(fp)
  8019a0:	d8800215 	stw	r2,8(sp)
  8019a4:	e13ffb17 	ldw	r4,-20(fp)
  8019a8:	800b883a 	mov	r5,r16
  8019ac:	880d883a 	mov	r6,r17
  8019b0:	900f883a 	mov	r7,r18
  8019b4:	08184080 	call	818408 <alt_up_pixel_buffer_draw_line>
			ship->matrix_location[1][0], ship->matrix_location[1][1], 
			ship->matrix_location[2][0], ship->matrix_location[2][1], 
			ship->color[0], buf);
	alt_up_pixel_buffer_draw_line(pixel_buffer, 
  8019b8:	e0bffa17 	ldw	r2,-24(fp)
  8019bc:	10800417 	ldw	r2,16(r2)
  8019c0:	10800204 	addi	r2,r2,8
  8019c4:	10800017 	ldw	r2,0(r2)
  8019c8:	11000017 	ldw	r4,0(r2)
  8019cc:	080ad2c0 	call	80ad2c <__fixsfsi>
  8019d0:	1021883a 	mov	r16,r2
  8019d4:	e0bffa17 	ldw	r2,-24(fp)
  8019d8:	10800417 	ldw	r2,16(r2)
  8019dc:	10800204 	addi	r2,r2,8
  8019e0:	10800017 	ldw	r2,0(r2)
  8019e4:	10800104 	addi	r2,r2,4
  8019e8:	11000017 	ldw	r4,0(r2)
  8019ec:	080ad2c0 	call	80ad2c <__fixsfsi>
  8019f0:	1023883a 	mov	r17,r2
  8019f4:	e0bffa17 	ldw	r2,-24(fp)
  8019f8:	10800417 	ldw	r2,16(r2)
  8019fc:	10800304 	addi	r2,r2,12
  801a00:	10800017 	ldw	r2,0(r2)
  801a04:	11000017 	ldw	r4,0(r2)
  801a08:	080ad2c0 	call	80ad2c <__fixsfsi>
  801a0c:	1025883a 	mov	r18,r2
  801a10:	e0bffa17 	ldw	r2,-24(fp)
  801a14:	10800417 	ldw	r2,16(r2)
  801a18:	10800304 	addi	r2,r2,12
  801a1c:	10800017 	ldw	r2,0(r2)
  801a20:	10800104 	addi	r2,r2,4
  801a24:	11000017 	ldw	r4,0(r2)
  801a28:	080ad2c0 	call	80ad2c <__fixsfsi>
  801a2c:	d8800015 	stw	r2,0(sp)
  801a30:	e0bffa17 	ldw	r2,-24(fp)
  801a34:	10800717 	ldw	r2,28(r2)
  801a38:	d8800115 	stw	r2,4(sp)
  801a3c:	e0bffc17 	ldw	r2,-16(fp)
  801a40:	d8800215 	stw	r2,8(sp)
  801a44:	e13ffb17 	ldw	r4,-20(fp)
  801a48:	800b883a 	mov	r5,r16
  801a4c:	880d883a 	mov	r6,r17
  801a50:	900f883a 	mov	r7,r18
  801a54:	08184080 	call	818408 <alt_up_pixel_buffer_draw_line>
			ship->matrix_location[2][0], ship->matrix_location[2][1], 
			ship->matrix_location[3][0], ship->matrix_location[3][1], 
			ship->color[0], buf);
	alt_up_pixel_buffer_draw_line(pixel_buffer, 
  801a58:	e0bffa17 	ldw	r2,-24(fp)
  801a5c:	10800417 	ldw	r2,16(r2)
  801a60:	10800304 	addi	r2,r2,12
  801a64:	10800017 	ldw	r2,0(r2)
  801a68:	11000017 	ldw	r4,0(r2)
  801a6c:	080ad2c0 	call	80ad2c <__fixsfsi>
  801a70:	1021883a 	mov	r16,r2
  801a74:	e0bffa17 	ldw	r2,-24(fp)
  801a78:	10800417 	ldw	r2,16(r2)
  801a7c:	10800304 	addi	r2,r2,12
  801a80:	10800017 	ldw	r2,0(r2)
  801a84:	10800104 	addi	r2,r2,4
  801a88:	11000017 	ldw	r4,0(r2)
  801a8c:	080ad2c0 	call	80ad2c <__fixsfsi>
  801a90:	1023883a 	mov	r17,r2
  801a94:	e0bffa17 	ldw	r2,-24(fp)
  801a98:	10800417 	ldw	r2,16(r2)
  801a9c:	10800017 	ldw	r2,0(r2)
  801aa0:	11000017 	ldw	r4,0(r2)
  801aa4:	080ad2c0 	call	80ad2c <__fixsfsi>
  801aa8:	1025883a 	mov	r18,r2
  801aac:	e0bffa17 	ldw	r2,-24(fp)
  801ab0:	10800417 	ldw	r2,16(r2)
  801ab4:	10800017 	ldw	r2,0(r2)
  801ab8:	10800104 	addi	r2,r2,4
  801abc:	11000017 	ldw	r4,0(r2)
  801ac0:	080ad2c0 	call	80ad2c <__fixsfsi>
  801ac4:	d8800015 	stw	r2,0(sp)
  801ac8:	e0bffa17 	ldw	r2,-24(fp)
  801acc:	10800717 	ldw	r2,28(r2)
  801ad0:	d8800115 	stw	r2,4(sp)
  801ad4:	e0bffc17 	ldw	r2,-16(fp)
  801ad8:	d8800215 	stw	r2,8(sp)
  801adc:	e13ffb17 	ldw	r4,-20(fp)
  801ae0:	800b883a 	mov	r5,r16
  801ae4:	880d883a 	mov	r6,r17
  801ae8:	900f883a 	mov	r7,r18
  801aec:	08184080 	call	818408 <alt_up_pixel_buffer_draw_line>
			ship->matrix_location[3][0], ship->matrix_location[3][1], 
			ship->matrix_location[0][0], ship->matrix_location[0][1], 
			ship->color[0], buf);
	alt_up_pixel_buffer_draw_line(pixel_buffer, 
  801af0:	e0bffa17 	ldw	r2,-24(fp)
  801af4:	10800417 	ldw	r2,16(r2)
  801af8:	10800404 	addi	r2,r2,16
  801afc:	10800017 	ldw	r2,0(r2)
  801b00:	11000017 	ldw	r4,0(r2)
  801b04:	080ad2c0 	call	80ad2c <__fixsfsi>
  801b08:	1021883a 	mov	r16,r2
  801b0c:	e0bffa17 	ldw	r2,-24(fp)
  801b10:	10800417 	ldw	r2,16(r2)
  801b14:	10800404 	addi	r2,r2,16
  801b18:	10800017 	ldw	r2,0(r2)
  801b1c:	10800104 	addi	r2,r2,4
  801b20:	11000017 	ldw	r4,0(r2)
  801b24:	080ad2c0 	call	80ad2c <__fixsfsi>
  801b28:	1023883a 	mov	r17,r2
  801b2c:	e0bffa17 	ldw	r2,-24(fp)
  801b30:	10800417 	ldw	r2,16(r2)
  801b34:	10800504 	addi	r2,r2,20
  801b38:	10800017 	ldw	r2,0(r2)
  801b3c:	11000017 	ldw	r4,0(r2)
  801b40:	080ad2c0 	call	80ad2c <__fixsfsi>
  801b44:	1025883a 	mov	r18,r2
  801b48:	e0bffa17 	ldw	r2,-24(fp)
  801b4c:	10800417 	ldw	r2,16(r2)
  801b50:	10800504 	addi	r2,r2,20
  801b54:	10800017 	ldw	r2,0(r2)
  801b58:	10800104 	addi	r2,r2,4
  801b5c:	11000017 	ldw	r4,0(r2)
  801b60:	080ad2c0 	call	80ad2c <__fixsfsi>
  801b64:	d8800015 	stw	r2,0(sp)
  801b68:	e0bffa17 	ldw	r2,-24(fp)
  801b6c:	10800817 	ldw	r2,32(r2)
  801b70:	d8800115 	stw	r2,4(sp)
  801b74:	e0bffc17 	ldw	r2,-16(fp)
  801b78:	d8800215 	stw	r2,8(sp)
  801b7c:	e13ffb17 	ldw	r4,-20(fp)
  801b80:	800b883a 	mov	r5,r16
  801b84:	880d883a 	mov	r6,r17
  801b88:	900f883a 	mov	r7,r18
  801b8c:	08184080 	call	818408 <alt_up_pixel_buffer_draw_line>
			ship->matrix_location[4][0], ship->matrix_location[4][1], 
			ship->matrix_location[5][0], ship->matrix_location[5][1], 
			ship->color[1], buf);
}
  801b90:	dfc00a17 	ldw	ra,40(sp)
  801b94:	df000917 	ldw	fp,36(sp)
  801b98:	dc000817 	ldw	r16,32(sp)
  801b9c:	dc400717 	ldw	r17,28(sp)
  801ba0:	dc800617 	ldw	r18,24(sp)
  801ba4:	dec00b04 	addi	sp,sp,44
  801ba8:	f800283a 	ret

00801bac <clean_ship>:

/*---------------------------------------------------------------------------------------------
 * (function: clean_ship)
 *-------------------------------------------------------------------------------------------*/
void clean_ship(ship_t *ship, alt_up_pixel_buffer_dev *pixel_buffer, int buf)
{
  801bac:	defff504 	addi	sp,sp,-44
  801bb0:	dfc00a15 	stw	ra,40(sp)
  801bb4:	df000915 	stw	fp,36(sp)
  801bb8:	dc000815 	stw	r16,32(sp)
  801bbc:	dc400715 	stw	r17,28(sp)
  801bc0:	dc800615 	stw	r18,24(sp)
  801bc4:	df000904 	addi	fp,sp,36
  801bc8:	e13ffa15 	stw	r4,-24(fp)
  801bcc:	e17ffb15 	stw	r5,-20(fp)
  801bd0:	e1bffc15 	stw	r6,-16(fp)
	alt_up_pixel_buffer_draw_line(pixel_buffer, 
  801bd4:	e0bffa17 	ldw	r2,-24(fp)
  801bd8:	10800417 	ldw	r2,16(r2)
  801bdc:	10800017 	ldw	r2,0(r2)
  801be0:	11000017 	ldw	r4,0(r2)
  801be4:	080ad2c0 	call	80ad2c <__fixsfsi>
  801be8:	1021883a 	mov	r16,r2
  801bec:	e0bffa17 	ldw	r2,-24(fp)
  801bf0:	10800417 	ldw	r2,16(r2)
  801bf4:	10800017 	ldw	r2,0(r2)
  801bf8:	10800104 	addi	r2,r2,4
  801bfc:	11000017 	ldw	r4,0(r2)
  801c00:	080ad2c0 	call	80ad2c <__fixsfsi>
  801c04:	1023883a 	mov	r17,r2
  801c08:	e0bffa17 	ldw	r2,-24(fp)
  801c0c:	10800417 	ldw	r2,16(r2)
  801c10:	10800104 	addi	r2,r2,4
  801c14:	10800017 	ldw	r2,0(r2)
  801c18:	11000017 	ldw	r4,0(r2)
  801c1c:	080ad2c0 	call	80ad2c <__fixsfsi>
  801c20:	1025883a 	mov	r18,r2
  801c24:	e0bffa17 	ldw	r2,-24(fp)
  801c28:	10800417 	ldw	r2,16(r2)
  801c2c:	10800104 	addi	r2,r2,4
  801c30:	10800017 	ldw	r2,0(r2)
  801c34:	10800104 	addi	r2,r2,4
  801c38:	11000017 	ldw	r4,0(r2)
  801c3c:	080ad2c0 	call	80ad2c <__fixsfsi>
  801c40:	d8800015 	stw	r2,0(sp)
  801c44:	d8000115 	stw	zero,4(sp)
  801c48:	e0bffc17 	ldw	r2,-16(fp)
  801c4c:	d8800215 	stw	r2,8(sp)
  801c50:	e13ffb17 	ldw	r4,-20(fp)
  801c54:	800b883a 	mov	r5,r16
  801c58:	880d883a 	mov	r6,r17
  801c5c:	900f883a 	mov	r7,r18
  801c60:	08184080 	call	818408 <alt_up_pixel_buffer_draw_line>
			ship->matrix_location[0][0], ship->matrix_location[0][1], 
			ship->matrix_location[1][0], ship->matrix_location[1][1], 
			0x0000, buf);
	alt_up_pixel_buffer_draw_line(pixel_buffer, 
  801c64:	e0bffa17 	ldw	r2,-24(fp)
  801c68:	10800417 	ldw	r2,16(r2)
  801c6c:	10800104 	addi	r2,r2,4
  801c70:	10800017 	ldw	r2,0(r2)
  801c74:	11000017 	ldw	r4,0(r2)
  801c78:	080ad2c0 	call	80ad2c <__fixsfsi>
  801c7c:	1021883a 	mov	r16,r2
  801c80:	e0bffa17 	ldw	r2,-24(fp)
  801c84:	10800417 	ldw	r2,16(r2)
  801c88:	10800104 	addi	r2,r2,4
  801c8c:	10800017 	ldw	r2,0(r2)
  801c90:	10800104 	addi	r2,r2,4
  801c94:	11000017 	ldw	r4,0(r2)
  801c98:	080ad2c0 	call	80ad2c <__fixsfsi>
  801c9c:	1023883a 	mov	r17,r2
  801ca0:	e0bffa17 	ldw	r2,-24(fp)
  801ca4:	10800417 	ldw	r2,16(r2)
  801ca8:	10800204 	addi	r2,r2,8
  801cac:	10800017 	ldw	r2,0(r2)
  801cb0:	11000017 	ldw	r4,0(r2)
  801cb4:	080ad2c0 	call	80ad2c <__fixsfsi>
  801cb8:	1025883a 	mov	r18,r2
  801cbc:	e0bffa17 	ldw	r2,-24(fp)
  801cc0:	10800417 	ldw	r2,16(r2)
  801cc4:	10800204 	addi	r2,r2,8
  801cc8:	10800017 	ldw	r2,0(r2)
  801ccc:	10800104 	addi	r2,r2,4
  801cd0:	11000017 	ldw	r4,0(r2)
  801cd4:	080ad2c0 	call	80ad2c <__fixsfsi>
  801cd8:	d8800015 	stw	r2,0(sp)
  801cdc:	d8000115 	stw	zero,4(sp)
  801ce0:	e0bffc17 	ldw	r2,-16(fp)
  801ce4:	d8800215 	stw	r2,8(sp)
  801ce8:	e13ffb17 	ldw	r4,-20(fp)
  801cec:	800b883a 	mov	r5,r16
  801cf0:	880d883a 	mov	r6,r17
  801cf4:	900f883a 	mov	r7,r18
  801cf8:	08184080 	call	818408 <alt_up_pixel_buffer_draw_line>
			ship->matrix_location[1][0], ship->matrix_location[1][1], 
			ship->matrix_location[2][0], ship->matrix_location[2][1], 
			0x0000, buf);
	alt_up_pixel_buffer_draw_line(pixel_buffer, 
  801cfc:	e0bffa17 	ldw	r2,-24(fp)
  801d00:	10800417 	ldw	r2,16(r2)
  801d04:	10800204 	addi	r2,r2,8
  801d08:	10800017 	ldw	r2,0(r2)
  801d0c:	11000017 	ldw	r4,0(r2)
  801d10:	080ad2c0 	call	80ad2c <__fixsfsi>
  801d14:	1021883a 	mov	r16,r2
  801d18:	e0bffa17 	ldw	r2,-24(fp)
  801d1c:	10800417 	ldw	r2,16(r2)
  801d20:	10800204 	addi	r2,r2,8
  801d24:	10800017 	ldw	r2,0(r2)
  801d28:	10800104 	addi	r2,r2,4
  801d2c:	11000017 	ldw	r4,0(r2)
  801d30:	080ad2c0 	call	80ad2c <__fixsfsi>
  801d34:	1023883a 	mov	r17,r2
  801d38:	e0bffa17 	ldw	r2,-24(fp)
  801d3c:	10800417 	ldw	r2,16(r2)
  801d40:	10800304 	addi	r2,r2,12
  801d44:	10800017 	ldw	r2,0(r2)
  801d48:	11000017 	ldw	r4,0(r2)
  801d4c:	080ad2c0 	call	80ad2c <__fixsfsi>
  801d50:	1025883a 	mov	r18,r2
  801d54:	e0bffa17 	ldw	r2,-24(fp)
  801d58:	10800417 	ldw	r2,16(r2)
  801d5c:	10800304 	addi	r2,r2,12
  801d60:	10800017 	ldw	r2,0(r2)
  801d64:	10800104 	addi	r2,r2,4
  801d68:	11000017 	ldw	r4,0(r2)
  801d6c:	080ad2c0 	call	80ad2c <__fixsfsi>
  801d70:	d8800015 	stw	r2,0(sp)
  801d74:	d8000115 	stw	zero,4(sp)
  801d78:	e0bffc17 	ldw	r2,-16(fp)
  801d7c:	d8800215 	stw	r2,8(sp)
  801d80:	e13ffb17 	ldw	r4,-20(fp)
  801d84:	800b883a 	mov	r5,r16
  801d88:	880d883a 	mov	r6,r17
  801d8c:	900f883a 	mov	r7,r18
  801d90:	08184080 	call	818408 <alt_up_pixel_buffer_draw_line>
			ship->matrix_location[2][0], ship->matrix_location[2][1], 
			ship->matrix_location[3][0], ship->matrix_location[3][1], 
			0x0000, buf);
	alt_up_pixel_buffer_draw_line(pixel_buffer, 
  801d94:	e0bffa17 	ldw	r2,-24(fp)
  801d98:	10800417 	ldw	r2,16(r2)
  801d9c:	10800304 	addi	r2,r2,12
  801da0:	10800017 	ldw	r2,0(r2)
  801da4:	11000017 	ldw	r4,0(r2)
  801da8:	080ad2c0 	call	80ad2c <__fixsfsi>
  801dac:	1021883a 	mov	r16,r2
  801db0:	e0bffa17 	ldw	r2,-24(fp)
  801db4:	10800417 	ldw	r2,16(r2)
  801db8:	10800304 	addi	r2,r2,12
  801dbc:	10800017 	ldw	r2,0(r2)
  801dc0:	10800104 	addi	r2,r2,4
  801dc4:	11000017 	ldw	r4,0(r2)
  801dc8:	080ad2c0 	call	80ad2c <__fixsfsi>
  801dcc:	1023883a 	mov	r17,r2
  801dd0:	e0bffa17 	ldw	r2,-24(fp)
  801dd4:	10800417 	ldw	r2,16(r2)
  801dd8:	10800017 	ldw	r2,0(r2)
  801ddc:	11000017 	ldw	r4,0(r2)
  801de0:	080ad2c0 	call	80ad2c <__fixsfsi>
  801de4:	1025883a 	mov	r18,r2
  801de8:	e0bffa17 	ldw	r2,-24(fp)
  801dec:	10800417 	ldw	r2,16(r2)
  801df0:	10800017 	ldw	r2,0(r2)
  801df4:	10800104 	addi	r2,r2,4
  801df8:	11000017 	ldw	r4,0(r2)
  801dfc:	080ad2c0 	call	80ad2c <__fixsfsi>
  801e00:	d8800015 	stw	r2,0(sp)
  801e04:	d8000115 	stw	zero,4(sp)
  801e08:	e0bffc17 	ldw	r2,-16(fp)
  801e0c:	d8800215 	stw	r2,8(sp)
  801e10:	e13ffb17 	ldw	r4,-20(fp)
  801e14:	800b883a 	mov	r5,r16
  801e18:	880d883a 	mov	r6,r17
  801e1c:	900f883a 	mov	r7,r18
  801e20:	08184080 	call	818408 <alt_up_pixel_buffer_draw_line>
			ship->matrix_location[3][0], ship->matrix_location[3][1], 
			ship->matrix_location[0][0], ship->matrix_location[0][1], 
			0x0000, buf);
	alt_up_pixel_buffer_draw_line(pixel_buffer, 
  801e24:	e0bffa17 	ldw	r2,-24(fp)
  801e28:	10800417 	ldw	r2,16(r2)
  801e2c:	10800404 	addi	r2,r2,16
  801e30:	10800017 	ldw	r2,0(r2)
  801e34:	11000017 	ldw	r4,0(r2)
  801e38:	080ad2c0 	call	80ad2c <__fixsfsi>
  801e3c:	1021883a 	mov	r16,r2
  801e40:	e0bffa17 	ldw	r2,-24(fp)
  801e44:	10800417 	ldw	r2,16(r2)
  801e48:	10800404 	addi	r2,r2,16
  801e4c:	10800017 	ldw	r2,0(r2)
  801e50:	10800104 	addi	r2,r2,4
  801e54:	11000017 	ldw	r4,0(r2)
  801e58:	080ad2c0 	call	80ad2c <__fixsfsi>
  801e5c:	1023883a 	mov	r17,r2
  801e60:	e0bffa17 	ldw	r2,-24(fp)
  801e64:	10800417 	ldw	r2,16(r2)
  801e68:	10800504 	addi	r2,r2,20
  801e6c:	10800017 	ldw	r2,0(r2)
  801e70:	11000017 	ldw	r4,0(r2)
  801e74:	080ad2c0 	call	80ad2c <__fixsfsi>
  801e78:	1025883a 	mov	r18,r2
  801e7c:	e0bffa17 	ldw	r2,-24(fp)
  801e80:	10800417 	ldw	r2,16(r2)
  801e84:	10800504 	addi	r2,r2,20
  801e88:	10800017 	ldw	r2,0(r2)
  801e8c:	10800104 	addi	r2,r2,4
  801e90:	11000017 	ldw	r4,0(r2)
  801e94:	080ad2c0 	call	80ad2c <__fixsfsi>
  801e98:	d8800015 	stw	r2,0(sp)
  801e9c:	d8000115 	stw	zero,4(sp)
  801ea0:	e0bffc17 	ldw	r2,-16(fp)
  801ea4:	d8800215 	stw	r2,8(sp)
  801ea8:	e13ffb17 	ldw	r4,-20(fp)
  801eac:	800b883a 	mov	r5,r16
  801eb0:	880d883a 	mov	r6,r17
  801eb4:	900f883a 	mov	r7,r18
  801eb8:	08184080 	call	818408 <alt_up_pixel_buffer_draw_line>
			ship->matrix_location[4][0], ship->matrix_location[4][1], 
			ship->matrix_location[5][0], ship->matrix_location[5][1], 
			0x0000, buf);
}
  801ebc:	dfc00a17 	ldw	ra,40(sp)
  801ec0:	df000917 	ldw	fp,36(sp)
  801ec4:	dc000817 	ldw	r16,32(sp)
  801ec8:	dc400717 	ldw	r17,28(sp)
  801ecc:	dc800617 	ldw	r18,24(sp)
  801ed0:	dec00b04 	addi	sp,sp,44
  801ed4:	f800283a 	ret

00801ed8 <init_draw>:

/*---------------------------------------------------------------------------------------------
 * (function: init_draw)
 *-------------------------------------------------------------------------------------------*/
void init_draw()
{
  801ed8:	defffe04 	addi	sp,sp,-8
  801edc:	dfc00115 	stw	ra,4(sp)
  801ee0:	df000015 	stw	fp,0(sp)
  801ee4:	d839883a 	mov	fp,sp
	translate_matrix = allocate_matrix(3, 3);
  801ee8:	010000c4 	movi	r4,3
  801eec:	014000c4 	movi	r5,3
  801ef0:	08023840 	call	802384 <allocate_matrix>
  801ef4:	d0a01e15 	stw	r2,-32648(gp)
	translate_matrix[0][0] = 1.0;
  801ef8:	d0a01e17 	ldw	r2,-32648(gp)
  801efc:	10c00017 	ldw	r3,0(r2)
  801f00:	008fe034 	movhi	r2,16256
  801f04:	10800004 	addi	r2,r2,0
  801f08:	18800015 	stw	r2,0(r3)
	translate_matrix[1][1] = 1.0;
  801f0c:	d0a01e17 	ldw	r2,-32648(gp)
  801f10:	10800104 	addi	r2,r2,4
  801f14:	10800017 	ldw	r2,0(r2)
  801f18:	10c00104 	addi	r3,r2,4
  801f1c:	008fe034 	movhi	r2,16256
  801f20:	10800004 	addi	r2,r2,0
  801f24:	18800015 	stw	r2,0(r3)
	translate_matrix[2][2] = 1.0;
  801f28:	d0a01e17 	ldw	r2,-32648(gp)
  801f2c:	10800204 	addi	r2,r2,8
  801f30:	10800017 	ldw	r2,0(r2)
  801f34:	10c00204 	addi	r3,r2,8
  801f38:	008fe034 	movhi	r2,16256
  801f3c:	10800004 	addi	r2,r2,0
  801f40:	18800015 	stw	r2,0(r3)

	rotate_matrix = allocate_matrix(3, 3);
  801f44:	010000c4 	movi	r4,3
  801f48:	014000c4 	movi	r5,3
  801f4c:	08023840 	call	802384 <allocate_matrix>
  801f50:	d0a01f15 	stw	r2,-32644(gp)
	rotate_matrix[2][2] = 1.0;
  801f54:	d0a01f17 	ldw	r2,-32644(gp)
  801f58:	10800204 	addi	r2,r2,8
  801f5c:	10800017 	ldw	r2,0(r2)
  801f60:	10c00204 	addi	r3,r2,8
  801f64:	008fe034 	movhi	r2,16256
  801f68:	10800004 	addi	r2,r2,0
  801f6c:	18800015 	stw	r2,0(r3)
}
  801f70:	dfc00117 	ldw	ra,4(sp)
  801f74:	df000017 	ldw	fp,0(sp)
  801f78:	dec00204 	addi	sp,sp,8
  801f7c:	f800283a 	ret

00801f80 <translate_a_matrix>:

/*---------------------------------------------------------------------------------------------
 * (function: translate_matrix)
 *-------------------------------------------------------------------------------------------*/
void translate_a_matrix(float **matrix, int row, int column, int x, int y)
{
  801f80:	defff604 	addi	sp,sp,-40
  801f84:	dfc00915 	stw	ra,36(sp)
  801f88:	df000815 	stw	fp,32(sp)
  801f8c:	dc000715 	stw	r16,28(sp)
  801f90:	df000804 	addi	fp,sp,32
  801f94:	e13ffa15 	stw	r4,-24(fp)
  801f98:	e17ffb15 	stw	r5,-20(fp)
  801f9c:	e1bffc15 	stw	r6,-16(fp)
  801fa0:	e1fffd15 	stw	r7,-12(fp)
	float **temp_matrix;

	/* update the translate matrix with x and y */
	translate_matrix[2][0] = (float)x;
  801fa4:	d0a01e17 	ldw	r2,-32648(gp)
  801fa8:	10800204 	addi	r2,r2,8
  801fac:	14000017 	ldw	r16,0(r2)
  801fb0:	e13ffd17 	ldw	r4,-12(fp)
  801fb4:	080ac940 	call	80ac94 <__floatsisf>
  801fb8:	80800015 	stw	r2,0(r16)
	translate_matrix[2][1] = (float)y;
  801fbc:	d0a01e17 	ldw	r2,-32648(gp)
  801fc0:	10800204 	addi	r2,r2,8
  801fc4:	10800017 	ldw	r2,0(r2)
  801fc8:	14000104 	addi	r16,r2,4
  801fcc:	e1000217 	ldw	r4,8(fp)
  801fd0:	080ac940 	call	80ac94 <__floatsisf>
  801fd4:	80800015 	stw	r2,0(r16)

	/* translate */
	temp_matrix = matrix_mult(translate_matrix, 3, 3, matrix, row, column);
  801fd8:	e0bffb17 	ldw	r2,-20(fp)
  801fdc:	d8800015 	stw	r2,0(sp)
  801fe0:	e0bffc17 	ldw	r2,-16(fp)
  801fe4:	d8800115 	stw	r2,4(sp)
  801fe8:	d1201e17 	ldw	r4,-32648(gp)
  801fec:	014000c4 	movi	r5,3
  801ff0:	018000c4 	movi	r6,3
  801ff4:	e1fffa17 	ldw	r7,-24(fp)
  801ff8:	08024740 	call	802474 <matrix_mult>
  801ffc:	e0bffe15 	stw	r2,-8(fp)
	/* copy the return values into the data structure */
	copy_matrix_and_round(temp_matrix, row, column, matrix);
  802000:	e13ffe17 	ldw	r4,-8(fp)
  802004:	e17ffb17 	ldw	r5,-20(fp)
  802008:	e1bffc17 	ldw	r6,-16(fp)
  80200c:	e1fffa17 	ldw	r7,-24(fp)
  802010:	08022140 	call	802214 <copy_matrix_and_round>
	/* delete the temp_matrix */
	free_matrix(temp_matrix, row, column);
  802014:	e13ffe17 	ldw	r4,-8(fp)
  802018:	e17ffb17 	ldw	r5,-20(fp)
  80201c:	e1bffc17 	ldw	r6,-16(fp)
  802020:	08024080 	call	802408 <free_matrix>
}
  802024:	dfc00917 	ldw	ra,36(sp)
  802028:	df000817 	ldw	fp,32(sp)
  80202c:	dc000717 	ldw	r16,28(sp)
  802030:	dec00a04 	addi	sp,sp,40
  802034:	f800283a 	ret

00802038 <rotate_a_matrix>:

/*---------------------------------------------------------------------------------------------
 * (function: rotate_a_matrix)
 *-------------------------------------------------------------------------------------------*/
void rotate_a_matrix(float **matrix, int row, int column, int angle)
{
  802038:	defff604 	addi	sp,sp,-40
  80203c:	dfc00915 	stw	ra,36(sp)
  802040:	df000815 	stw	fp,32(sp)
  802044:	dc000715 	stw	r16,28(sp)
  802048:	df000804 	addi	fp,sp,32
  80204c:	e13ffa15 	stw	r4,-24(fp)
  802050:	e17ffb15 	stw	r5,-20(fp)
  802054:	e1bffc15 	stw	r6,-16(fp)
  802058:	e1fffd15 	stw	r7,-12(fp)
	float **temp_matrix;

	/* calculate cos of the angle */
	rotate_matrix[0][0] = cos(angle*PI/180);
  80205c:	d0a01f17 	ldw	r2,-32644(gp)
  802060:	14000017 	ldw	r16,0(r2)
  802064:	e13ffd17 	ldw	r4,-12(fp)
  802068:	080bb280 	call	80bb28 <__floatsidf>
  80206c:	100b883a 	mov	r5,r2
  802070:	180d883a 	mov	r6,r3
  802074:	2809883a 	mov	r4,r5
  802078:	300b883a 	mov	r5,r6
  80207c:	0194f274 	movhi	r6,21449
  802080:	31b53c44 	addi	r6,r6,-11023
  802084:	01d00274 	movhi	r7,16393
  802088:	39c87ec4 	addi	r7,r7,8699
  80208c:	080b21c0 	call	80b21c <__muldf3>
  802090:	100b883a 	mov	r5,r2
  802094:	180d883a 	mov	r6,r3
  802098:	2809883a 	mov	r4,r5
  80209c:	300b883a 	mov	r5,r6
  8020a0:	000d883a 	mov	r6,zero
  8020a4:	01d019f4 	movhi	r7,16487
  8020a8:	39e00004 	addi	r7,r7,-32768
  8020ac:	080b61c0 	call	80b61c <__divdf3>
  8020b0:	100b883a 	mov	r5,r2
  8020b4:	180d883a 	mov	r6,r3
  8020b8:	2809883a 	mov	r4,r5
  8020bc:	300b883a 	mov	r5,r6
  8020c0:	0807a1c0 	call	807a1c <cos>
  8020c4:	1009883a 	mov	r4,r2
  8020c8:	180b883a 	mov	r5,r3
  8020cc:	2005883a 	mov	r2,r4
  8020d0:	2807883a 	mov	r3,r5
  8020d4:	1009883a 	mov	r4,r2
  8020d8:	180b883a 	mov	r5,r3
  8020dc:	080bce80 	call	80bce8 <__truncdfsf2>
  8020e0:	80800015 	stw	r2,0(r16)
	rotate_matrix[1][1] = rotate_matrix[0][0];
  8020e4:	d0a01f17 	ldw	r2,-32644(gp)
  8020e8:	10800104 	addi	r2,r2,4
  8020ec:	10800017 	ldw	r2,0(r2)
  8020f0:	10c00104 	addi	r3,r2,4
  8020f4:	d0a01f17 	ldw	r2,-32644(gp)
  8020f8:	10800017 	ldw	r2,0(r2)
  8020fc:	10800017 	ldw	r2,0(r2)
  802100:	18800015 	stw	r2,0(r3)
	/* calculate sin of the angle */
	rotate_matrix[0][1] = sin(angle*PI/180);
  802104:	d0a01f17 	ldw	r2,-32644(gp)
  802108:	10800017 	ldw	r2,0(r2)
  80210c:	14000104 	addi	r16,r2,4
  802110:	e13ffd17 	ldw	r4,-12(fp)
  802114:	080bb280 	call	80bb28 <__floatsidf>
  802118:	100b883a 	mov	r5,r2
  80211c:	180d883a 	mov	r6,r3
  802120:	2809883a 	mov	r4,r5
  802124:	300b883a 	mov	r5,r6
  802128:	0194f274 	movhi	r6,21449
  80212c:	31b53c44 	addi	r6,r6,-11023
  802130:	01d00274 	movhi	r7,16393
  802134:	39c87ec4 	addi	r7,r7,8699
  802138:	080b21c0 	call	80b21c <__muldf3>
  80213c:	100b883a 	mov	r5,r2
  802140:	180d883a 	mov	r6,r3
  802144:	2809883a 	mov	r4,r5
  802148:	300b883a 	mov	r5,r6
  80214c:	000d883a 	mov	r6,zero
  802150:	01d019f4 	movhi	r7,16487
  802154:	39e00004 	addi	r7,r7,-32768
  802158:	080b61c0 	call	80b61c <__divdf3>
  80215c:	100b883a 	mov	r5,r2
  802160:	180d883a 	mov	r6,r3
  802164:	2809883a 	mov	r4,r5
  802168:	300b883a 	mov	r5,r6
  80216c:	0807b8c0 	call	807b8c <sin>
  802170:	1009883a 	mov	r4,r2
  802174:	180b883a 	mov	r5,r3
  802178:	2005883a 	mov	r2,r4
  80217c:	2807883a 	mov	r3,r5
  802180:	1009883a 	mov	r4,r2
  802184:	180b883a 	mov	r5,r3
  802188:	080bce80 	call	80bce8 <__truncdfsf2>
  80218c:	80800015 	stw	r2,0(r16)
	rotate_matrix[1][0] = -rotate_matrix[0][1];
  802190:	d0a01f17 	ldw	r2,-32644(gp)
  802194:	10800104 	addi	r2,r2,4
  802198:	10c00017 	ldw	r3,0(r2)
  80219c:	d0a01f17 	ldw	r2,-32644(gp)
  8021a0:	10800017 	ldw	r2,0(r2)
  8021a4:	10800104 	addi	r2,r2,4
  8021a8:	10800017 	ldw	r2,0(r2)
  8021ac:	10a0003c 	xorhi	r2,r2,32768
  8021b0:	18800015 	stw	r2,0(r3)

	/* rotate */
	temp_matrix = matrix_mult(rotate_matrix, 3, 3, matrix, row, column);
  8021b4:	e0bffb17 	ldw	r2,-20(fp)
  8021b8:	d8800015 	stw	r2,0(sp)
  8021bc:	e0bffc17 	ldw	r2,-16(fp)
  8021c0:	d8800115 	stw	r2,4(sp)
  8021c4:	d1201f17 	ldw	r4,-32644(gp)
  8021c8:	014000c4 	movi	r5,3
  8021cc:	018000c4 	movi	r6,3
  8021d0:	e1fffa17 	ldw	r7,-24(fp)
  8021d4:	08024740 	call	802474 <matrix_mult>
  8021d8:	e0bffe15 	stw	r2,-8(fp)
	/* copy the return values into the data structure */
	copy_matrix_and_round(temp_matrix, row, column, matrix);
  8021dc:	e13ffe17 	ldw	r4,-8(fp)
  8021e0:	e17ffb17 	ldw	r5,-20(fp)
  8021e4:	e1bffc17 	ldw	r6,-16(fp)
  8021e8:	e1fffa17 	ldw	r7,-24(fp)
  8021ec:	08022140 	call	802214 <copy_matrix_and_round>
	/* delete the temp_matrix */
	free_matrix(temp_matrix, row, column);
  8021f0:	e13ffe17 	ldw	r4,-8(fp)
  8021f4:	e17ffb17 	ldw	r5,-20(fp)
  8021f8:	e1bffc17 	ldw	r6,-16(fp)
  8021fc:	08024080 	call	802408 <free_matrix>
}
  802200:	dfc00917 	ldw	ra,36(sp)
  802204:	df000817 	ldw	fp,32(sp)
  802208:	dc000717 	ldw	r16,28(sp)
  80220c:	dec00a04 	addi	sp,sp,40
  802210:	f800283a 	ret

00802214 <copy_matrix_and_round>:

/*---------------------------------------------------------------------------------------------
 * (function: copy_matrix_and_round)
 *-------------------------------------------------------------------------------------------*/
void copy_matrix_and_round(float **from, int row1, int column1, float **to)
{
  802214:	defff804 	addi	sp,sp,-32
  802218:	dfc00715 	stw	ra,28(sp)
  80221c:	df000615 	stw	fp,24(sp)
  802220:	df000604 	addi	fp,sp,24
  802224:	e13ffa15 	stw	r4,-24(fp)
  802228:	e17ffb15 	stw	r5,-20(fp)
  80222c:	e1bffc15 	stw	r6,-16(fp)
  802230:	e1fffd15 	stw	r7,-12(fp)
	int i, j;

	for (i = 0; i < column1; i++)
  802234:	e03ffe15 	stw	zero,-8(fp)
  802238:	e0fffe17 	ldw	r3,-8(fp)
  80223c:	e0bffc17 	ldw	r2,-16(fp)
  802240:	1880200e 	bge	r3,r2,8022c4 <copy_matrix_and_round+0xb0>
	{
		for (j = 0; j < row1; j++)
  802244:	e03fff15 	stw	zero,-4(fp)
  802248:	e0ffff17 	ldw	r3,-4(fp)
  80224c:	e0bffb17 	ldw	r2,-20(fp)
  802250:	1880180e 	bge	r3,r2,8022b4 <copy_matrix_and_round+0xa0>
		{
			to[i][j] = (float)roundf(from[i][j]);
  802254:	e0bffe17 	ldw	r2,-8(fp)
  802258:	10c00124 	muli	r3,r2,4
  80225c:	e0bffa17 	ldw	r2,-24(fp)
  802260:	1889883a 	add	r4,r3,r2
  802264:	e0bfff17 	ldw	r2,-4(fp)
  802268:	10c00124 	muli	r3,r2,4
  80226c:	20800017 	ldw	r2,0(r4)
  802270:	1885883a 	add	r2,r3,r2
  802274:	11000017 	ldw	r4,0(r2)
  802278:	0807cfc0 	call	807cfc <roundf>
  80227c:	100b883a 	mov	r5,r2
  802280:	e0bffe17 	ldw	r2,-8(fp)
  802284:	10c00124 	muli	r3,r2,4
  802288:	e0bffd17 	ldw	r2,-12(fp)
  80228c:	1889883a 	add	r4,r3,r2
  802290:	e0bfff17 	ldw	r2,-4(fp)
  802294:	10c00124 	muli	r3,r2,4
  802298:	20800017 	ldw	r2,0(r4)
  80229c:	1885883a 	add	r2,r3,r2
  8022a0:	11400015 	stw	r5,0(r2)
  8022a4:	e0bfff17 	ldw	r2,-4(fp)
  8022a8:	10800044 	addi	r2,r2,1
  8022ac:	e0bfff15 	stw	r2,-4(fp)
  8022b0:	003fe506 	br	802248 <copy_matrix_and_round+0x34>
  8022b4:	e0bffe17 	ldw	r2,-8(fp)
  8022b8:	10800044 	addi	r2,r2,1
  8022bc:	e0bffe15 	stw	r2,-8(fp)
  8022c0:	003fdd06 	br	802238 <copy_matrix_and_round+0x24>
		}
	}
}
  8022c4:	dfc00717 	ldw	ra,28(sp)
  8022c8:	df000617 	ldw	fp,24(sp)
  8022cc:	dec00804 	addi	sp,sp,32
  8022d0:	f800283a 	ret

008022d4 <copy_matrix>:

/*---------------------------------------------------------------------------------------------
 * (function: copy_matrix_and_round)
 *-------------------------------------------------------------------------------------------*/
void copy_matrix(float **from, int row1, int column1, float **to)
{
  8022d4:	defff904 	addi	sp,sp,-28
  8022d8:	df000615 	stw	fp,24(sp)
  8022dc:	df000604 	addi	fp,sp,24
  8022e0:	e13ffa15 	stw	r4,-24(fp)
  8022e4:	e17ffb15 	stw	r5,-20(fp)
  8022e8:	e1bffc15 	stw	r6,-16(fp)
  8022ec:	e1fffd15 	stw	r7,-12(fp)
	int i, j;

	for (i = 0; i < column1; i++)
  8022f0:	e03ffe15 	stw	zero,-8(fp)
  8022f4:	e0fffe17 	ldw	r3,-8(fp)
  8022f8:	e0bffc17 	ldw	r2,-16(fp)
  8022fc:	18801e0e 	bge	r3,r2,802378 <copy_matrix+0xa4>
	{
		for (j = 0; j < row1; j++)
  802300:	e03fff15 	stw	zero,-4(fp)
  802304:	e0ffff17 	ldw	r3,-4(fp)
  802308:	e0bffb17 	ldw	r2,-20(fp)
  80230c:	1880160e 	bge	r3,r2,802368 <copy_matrix+0x94>
		{
			to[i][j] = from[i][j];
  802310:	e0bffe17 	ldw	r2,-8(fp)
  802314:	10c00124 	muli	r3,r2,4
  802318:	e0bffd17 	ldw	r2,-12(fp)
  80231c:	1889883a 	add	r4,r3,r2
  802320:	e0bfff17 	ldw	r2,-4(fp)
  802324:	10c00124 	muli	r3,r2,4
  802328:	20800017 	ldw	r2,0(r4)
  80232c:	188b883a 	add	r5,r3,r2
  802330:	e0bffe17 	ldw	r2,-8(fp)
  802334:	10c00124 	muli	r3,r2,4
  802338:	e0bffa17 	ldw	r2,-24(fp)
  80233c:	1889883a 	add	r4,r3,r2
  802340:	e0bfff17 	ldw	r2,-4(fp)
  802344:	10c00124 	muli	r3,r2,4
  802348:	20800017 	ldw	r2,0(r4)
  80234c:	1885883a 	add	r2,r3,r2
  802350:	10800017 	ldw	r2,0(r2)
  802354:	28800015 	stw	r2,0(r5)
  802358:	e0bfff17 	ldw	r2,-4(fp)
  80235c:	10800044 	addi	r2,r2,1
  802360:	e0bfff15 	stw	r2,-4(fp)
  802364:	003fe706 	br	802304 <copy_matrix+0x30>
  802368:	e0bffe17 	ldw	r2,-8(fp)
  80236c:	10800044 	addi	r2,r2,1
  802370:	e0bffe15 	stw	r2,-8(fp)
  802374:	003fdf06 	br	8022f4 <copy_matrix+0x20>
		}
	}
}
  802378:	df000617 	ldw	fp,24(sp)
  80237c:	dec00704 	addi	sp,sp,28
  802380:	f800283a 	ret

00802384 <allocate_matrix>:
/*---------------------------------------------------------------------------------------------
 * (function: allocate_matrix)
 *-------------------------------------------------------------------------------------------*/
float **allocate_matrix(int row1, int column1)
{
  802384:	defff904 	addi	sp,sp,-28
  802388:	dfc00615 	stw	ra,24(sp)
  80238c:	df000515 	stw	fp,20(sp)
  802390:	dc000415 	stw	r16,16(sp)
  802394:	df000504 	addi	fp,sp,20
  802398:	e13ffb15 	stw	r4,-20(fp)
  80239c:	e17ffc15 	stw	r5,-16(fp)
	int i;
	float **matrix;

	matrix = (float**)malloc(sizeof(float*)*column1);
  8023a0:	e0bffc17 	ldw	r2,-16(fp)
  8023a4:	11000124 	muli	r4,r2,4
  8023a8:	080cf7c0 	call	80cf7c <malloc>
  8023ac:	e0bffe15 	stw	r2,-8(fp)
	for (i = 0; i < column1; i++)
  8023b0:	e03ffd15 	stw	zero,-12(fp)
  8023b4:	e0fffd17 	ldw	r3,-12(fp)
  8023b8:	e0bffc17 	ldw	r2,-16(fp)
  8023bc:	18800c0e 	bge	r3,r2,8023f0 <allocate_matrix+0x6c>
	{
		matrix[i] = (float*)calloc(sizeof(float),row1);
  8023c0:	e0bffd17 	ldw	r2,-12(fp)
  8023c4:	10c00124 	muli	r3,r2,4
  8023c8:	e0bffe17 	ldw	r2,-8(fp)
  8023cc:	18a1883a 	add	r16,r3,r2
  8023d0:	01000104 	movi	r4,4
  8023d4:	e17ffb17 	ldw	r5,-20(fp)
  8023d8:	080c7980 	call	80c798 <calloc>
  8023dc:	80800015 	stw	r2,0(r16)
  8023e0:	e0bffd17 	ldw	r2,-12(fp)
  8023e4:	10800044 	addi	r2,r2,1
  8023e8:	e0bffd15 	stw	r2,-12(fp)
  8023ec:	003ff106 	br	8023b4 <allocate_matrix+0x30>
	}

	return matrix;
  8023f0:	e0bffe17 	ldw	r2,-8(fp)
}
  8023f4:	dfc00617 	ldw	ra,24(sp)
  8023f8:	df000517 	ldw	fp,20(sp)
  8023fc:	dc000417 	ldw	r16,16(sp)
  802400:	dec00704 	addi	sp,sp,28
  802404:	f800283a 	ret

00802408 <free_matrix>:

/*---------------------------------------------------------------------------------------------
 * (function: free_matrix)
 *-------------------------------------------------------------------------------------------*/
void free_matrix(float **matrix, int row1, int column1)
{
  802408:	defffa04 	addi	sp,sp,-24
  80240c:	dfc00515 	stw	ra,20(sp)
  802410:	df000415 	stw	fp,16(sp)
  802414:	df000404 	addi	fp,sp,16
  802418:	e13ffc15 	stw	r4,-16(fp)
  80241c:	e17ffd15 	stw	r5,-12(fp)
  802420:	e1bffe15 	stw	r6,-8(fp)
	int i;

	for (i = 0; i < row1; i++)
  802424:	e03fff15 	stw	zero,-4(fp)
  802428:	e0ffff17 	ldw	r3,-4(fp)
  80242c:	e0bffd17 	ldw	r2,-12(fp)
  802430:	18800a0e 	bge	r3,r2,80245c <free_matrix+0x54>
	{
		free(matrix[i]);
  802434:	e0bfff17 	ldw	r2,-4(fp)
  802438:	10c00124 	muli	r3,r2,4
  80243c:	e0bffc17 	ldw	r2,-16(fp)
  802440:	1885883a 	add	r2,r3,r2
  802444:	11000017 	ldw	r4,0(r2)
  802448:	080cf900 	call	80cf90 <free>
  80244c:	e0bfff17 	ldw	r2,-4(fp)
  802450:	10800044 	addi	r2,r2,1
  802454:	e0bfff15 	stw	r2,-4(fp)
  802458:	003ff306 	br	802428 <free_matrix+0x20>
	}
	free(matrix);
  80245c:	e13ffc17 	ldw	r4,-16(fp)
  802460:	080cf900 	call	80cf90 <free>
}
  802464:	dfc00517 	ldw	ra,20(sp)
  802468:	df000417 	ldw	fp,16(sp)
  80246c:	dec00604 	addi	sp,sp,24
  802470:	f800283a 	ret

00802474 <matrix_mult>:

/*---------------------------------------------------------------------------------------------
 * (function: matrix_mult)
 * [c][r] is the matrix ordering in 2d array
 * matrix 1       * matrix 2		=> matrix 3
 * 
 * c = 3, r = 4   * c = 4, r = 3   	=> c = c2(4), r = r1(4) 
 *
 * [a b c]	[1 2 3 4]		[a1+b5+c9 a2+b6+cm a3+b7+cn a4+b8+co]
 * [d e f]	[5 6 7 8]		[d1+e5+f9 d2+e6+fm d3+e7+fn d4+e8+fo]
 * [g h i]	[9 m n o]		[g1+h5+i9 g2+h6+im g3+h7+in g4+h8+io]
 * [j k l]				[j1+k5+l9 j2+k6+lm j3+k7+ln j4+k8+lo]
 *-------------------------------------------------------------------------------------------*/
float **matrix_mult(float **matrix1, int row1, int column1, float **matrix2, int row2, int column2)
{
  802474:	defff204 	addi	sp,sp,-56
  802478:	dfc00d15 	stw	ra,52(sp)
  80247c:	df000c15 	stw	fp,48(sp)
  802480:	dc000b15 	stw	r16,44(sp)
  802484:	dc400a15 	stw	r17,40(sp)
  802488:	df000c04 	addi	fp,sp,48
  80248c:	e13ff415 	stw	r4,-48(fp)
  802490:	e17ff515 	stw	r5,-44(fp)
  802494:	e1bff615 	stw	r6,-40(fp)
  802498:	e1fff715 	stw	r7,-36(fp)
	int c, r, i;
	int column3 = column2;
  80249c:	e0800317 	ldw	r2,12(fp)
  8024a0:	e0bffb15 	stw	r2,-20(fp)
	int row3 = row1;
  8024a4:	e0bff517 	ldw	r2,-44(fp)
  8024a8:	e0bffc15 	stw	r2,-16(fp)
	float **matrix3 = (float**)malloc(sizeof(float*)*column3);
  8024ac:	e0bffb17 	ldw	r2,-20(fp)
  8024b0:	11000124 	muli	r4,r2,4
  8024b4:	080cf7c0 	call	80cf7c <malloc>
  8024b8:	e0bffd15 	stw	r2,-12(fp)

	for (c = 0; c < column3; c++)
  8024bc:	e03ff815 	stw	zero,-32(fp)
  8024c0:	e0fff817 	ldw	r3,-32(fp)
  8024c4:	e0bffb17 	ldw	r2,-20(fp)
  8024c8:	18800c0e 	bge	r3,r2,8024fc <matrix_mult+0x88>
	{
		matrix3[c] = (float*)calloc(sizeof(float), row3);
  8024cc:	e0bff817 	ldw	r2,-32(fp)
  8024d0:	10c00124 	muli	r3,r2,4
  8024d4:	e0bffd17 	ldw	r2,-12(fp)
  8024d8:	18a1883a 	add	r16,r3,r2
  8024dc:	01000104 	movi	r4,4
  8024e0:	e17ffc17 	ldw	r5,-16(fp)
  8024e4:	080c7980 	call	80c798 <calloc>
  8024e8:	80800015 	stw	r2,0(r16)
  8024ec:	e0bff817 	ldw	r2,-32(fp)
  8024f0:	10800044 	addi	r2,r2,1
  8024f4:	e0bff815 	stw	r2,-32(fp)
  8024f8:	003ff106 	br	8024c0 <matrix_mult+0x4c>
	}

	for (c = 0; c < column3; c++)
  8024fc:	e03ff815 	stw	zero,-32(fp)
  802500:	e0fff817 	ldw	r3,-32(fp)
  802504:	e0bffb17 	ldw	r2,-20(fp)
  802508:	18803b0e 	bge	r3,r2,8025f8 <matrix_mult+0x184>
	{	
		for (r = 0; r < row3; r++)
  80250c:	e03ff915 	stw	zero,-28(fp)
  802510:	e0fff917 	ldw	r3,-28(fp)
  802514:	e0bffc17 	ldw	r2,-16(fp)
  802518:	1880330e 	bge	r3,r2,8025e8 <matrix_mult+0x174>
		{
			for (i = 0; i < column1; i++)
  80251c:	e03ffa15 	stw	zero,-24(fp)
  802520:	e0fffa17 	ldw	r3,-24(fp)
  802524:	e0bff617 	ldw	r2,-40(fp)
  802528:	18802b0e 	bge	r3,r2,8025d8 <matrix_mult+0x164>
			{
				matrix3[c][r] += matrix1[i][r] * matrix2[c][i];
  80252c:	e0bff817 	ldw	r2,-32(fp)
  802530:	10c00124 	muli	r3,r2,4
  802534:	e0bffd17 	ldw	r2,-12(fp)
  802538:	1889883a 	add	r4,r3,r2
  80253c:	e0bff917 	ldw	r2,-28(fp)
  802540:	10c00124 	muli	r3,r2,4
  802544:	20800017 	ldw	r2,0(r4)
  802548:	18a1883a 	add	r16,r3,r2
  80254c:	e0bff817 	ldw	r2,-32(fp)
  802550:	10c00124 	muli	r3,r2,4
  802554:	e0bffd17 	ldw	r2,-12(fp)
  802558:	1889883a 	add	r4,r3,r2
  80255c:	e0bff917 	ldw	r2,-28(fp)
  802560:	10c00124 	muli	r3,r2,4
  802564:	20800017 	ldw	r2,0(r4)
  802568:	18a3883a 	add	r17,r3,r2
  80256c:	e0bffa17 	ldw	r2,-24(fp)
  802570:	10c00124 	muli	r3,r2,4
  802574:	e0bff417 	ldw	r2,-48(fp)
  802578:	1889883a 	add	r4,r3,r2
  80257c:	e0bff917 	ldw	r2,-28(fp)
  802580:	10c00124 	muli	r3,r2,4
  802584:	20800017 	ldw	r2,0(r4)
  802588:	188b883a 	add	r5,r3,r2
  80258c:	e0bff817 	ldw	r2,-32(fp)
  802590:	10c00124 	muli	r3,r2,4
  802594:	e0bff717 	ldw	r2,-36(fp)
  802598:	1889883a 	add	r4,r3,r2
  80259c:	e0bffa17 	ldw	r2,-24(fp)
  8025a0:	10c00124 	muli	r3,r2,4
  8025a4:	20800017 	ldw	r2,0(r4)
  8025a8:	1885883a 	add	r2,r3,r2
  8025ac:	29000017 	ldw	r4,0(r5)
  8025b0:	11400017 	ldw	r5,0(r2)
  8025b4:	080a6980 	call	80a698 <__mulsf3>
  8025b8:	89000017 	ldw	r4,0(r17)
  8025bc:	100b883a 	mov	r5,r2
  8025c0:	080a5dc0 	call	80a5dc <__addsf3>
  8025c4:	80800015 	stw	r2,0(r16)
  8025c8:	e0bffa17 	ldw	r2,-24(fp)
  8025cc:	10800044 	addi	r2,r2,1
  8025d0:	e0bffa15 	stw	r2,-24(fp)
  8025d4:	003fd206 	br	802520 <matrix_mult+0xac>
  8025d8:	e0bff917 	ldw	r2,-28(fp)
  8025dc:	10800044 	addi	r2,r2,1
  8025e0:	e0bff915 	stw	r2,-28(fp)
  8025e4:	003fca06 	br	802510 <matrix_mult+0x9c>
  8025e8:	e0bff817 	ldw	r2,-32(fp)
  8025ec:	10800044 	addi	r2,r2,1
  8025f0:	e0bff815 	stw	r2,-32(fp)
  8025f4:	003fc206 	br	802500 <matrix_mult+0x8c>
			}
		}
	}

	return matrix3;
  8025f8:	e0bffd17 	ldw	r2,-12(fp)
}
  8025fc:	dfc00d17 	ldw	ra,52(sp)
  802600:	df000c17 	ldw	fp,48(sp)
  802604:	dc000b17 	ldw	r16,44(sp)
  802608:	dc400a17 	ldw	r17,40(sp)
  80260c:	dec00e04 	addi	sp,sp,56
  802610:	f800283a 	ret

00802614 <clean_sensor>:


/*---------------------------------------------------------------------------------------------
 * (function: clean_sensor)
 *-------------------------------------------------------------------------------------------*/
void clean_sensor(ship_t *ship, alt_up_pixel_buffer_dev *pixel_buffer, int buf)
{
  802614:	defff504 	addi	sp,sp,-44
  802618:	dfc00a15 	stw	ra,40(sp)
  80261c:	df000915 	stw	fp,36(sp)
  802620:	dc000815 	stw	r16,32(sp)
  802624:	dc400715 	stw	r17,28(sp)
  802628:	dc800615 	stw	r18,24(sp)
  80262c:	df000904 	addi	fp,sp,36
  802630:	e13ffa15 	stw	r4,-24(fp)
  802634:	e17ffb15 	stw	r5,-20(fp)
  802638:	e1bffc15 	stw	r6,-16(fp)
	alt_up_pixel_buffer_draw_line(pixel_buffer, 
  80263c:	e0bffa17 	ldw	r2,-24(fp)
  802640:	11001217 	ldw	r4,72(r2)
  802644:	0807cfc0 	call	807cfc <roundf>
  802648:	1009883a 	mov	r4,r2
  80264c:	080ad2c0 	call	80ad2c <__fixsfsi>
  802650:	1021883a 	mov	r16,r2
  802654:	e0bffa17 	ldw	r2,-24(fp)
  802658:	11001317 	ldw	r4,76(r2)
  80265c:	0807cfc0 	call	807cfc <roundf>
  802660:	1009883a 	mov	r4,r2
  802664:	080ad2c0 	call	80ad2c <__fixsfsi>
  802668:	1023883a 	mov	r17,r2
  80266c:	e0bffa17 	ldw	r2,-24(fp)
  802670:	11001417 	ldw	r4,80(r2)
  802674:	0807cfc0 	call	807cfc <roundf>
  802678:	1009883a 	mov	r4,r2
  80267c:	080ad2c0 	call	80ad2c <__fixsfsi>
  802680:	1025883a 	mov	r18,r2
  802684:	e0bffa17 	ldw	r2,-24(fp)
  802688:	11001517 	ldw	r4,84(r2)
  80268c:	0807cfc0 	call	807cfc <roundf>
  802690:	1009883a 	mov	r4,r2
  802694:	080ad2c0 	call	80ad2c <__fixsfsi>
  802698:	d8800015 	stw	r2,0(sp)
  80269c:	d8000115 	stw	zero,4(sp)
  8026a0:	e0bffc17 	ldw	r2,-16(fp)
  8026a4:	d8800215 	stw	r2,8(sp)
  8026a8:	e13ffb17 	ldw	r4,-20(fp)
  8026ac:	800b883a 	mov	r5,r16
  8026b0:	880d883a 	mov	r6,r17
  8026b4:	900f883a 	mov	r7,r18
  8026b8:	08184080 	call	818408 <alt_up_pixel_buffer_draw_line>
			roundf(ship->sensor_start.x), roundf(ship->sensor_start.y),
			roundf(ship->sensor_end.x), roundf(ship->sensor_end.y),
			0x0000, buf);
}
  8026bc:	dfc00a17 	ldw	ra,40(sp)
  8026c0:	df000917 	ldw	fp,36(sp)
  8026c4:	dc000817 	ldw	r16,32(sp)
  8026c8:	dc400717 	ldw	r17,28(sp)
  8026cc:	dc800617 	ldw	r18,24(sp)
  8026d0:	dec00b04 	addi	sp,sp,44
  8026d4:	f800283a 	ret

008026d8 <draw_sensor>:
/*---------------------------------------------------------------------------------------------
 * (function: draw_sensor)
 *-------------------------------------------------------------------------------------------*/
void draw_sensor(ship_t *ship, alt_up_pixel_buffer_dev *pixel_buffer, int buf)
{
  8026d8:	defff504 	addi	sp,sp,-44
  8026dc:	dfc00a15 	stw	ra,40(sp)
  8026e0:	df000915 	stw	fp,36(sp)
  8026e4:	dc000815 	stw	r16,32(sp)
  8026e8:	dc400715 	stw	r17,28(sp)
  8026ec:	dc800615 	stw	r18,24(sp)
  8026f0:	df000904 	addi	fp,sp,36
  8026f4:	e13ffa15 	stw	r4,-24(fp)
  8026f8:	e17ffb15 	stw	r5,-20(fp)
  8026fc:	e1bffc15 	stw	r6,-16(fp)
	alt_up_pixel_buffer_draw_line(pixel_buffer, 
  802700:	e0bffa17 	ldw	r2,-24(fp)
  802704:	11001217 	ldw	r4,72(r2)
  802708:	0807cfc0 	call	807cfc <roundf>
  80270c:	1009883a 	mov	r4,r2
  802710:	080ad2c0 	call	80ad2c <__fixsfsi>
  802714:	1021883a 	mov	r16,r2
  802718:	e0bffa17 	ldw	r2,-24(fp)
  80271c:	11001317 	ldw	r4,76(r2)
  802720:	0807cfc0 	call	807cfc <roundf>
  802724:	1009883a 	mov	r4,r2
  802728:	080ad2c0 	call	80ad2c <__fixsfsi>
  80272c:	1023883a 	mov	r17,r2
  802730:	e0bffa17 	ldw	r2,-24(fp)
  802734:	11001417 	ldw	r4,80(r2)
  802738:	0807cfc0 	call	807cfc <roundf>
  80273c:	1009883a 	mov	r4,r2
  802740:	080ad2c0 	call	80ad2c <__fixsfsi>
  802744:	1025883a 	mov	r18,r2
  802748:	e0bffa17 	ldw	r2,-24(fp)
  80274c:	11001517 	ldw	r4,84(r2)
  802750:	0807cfc0 	call	807cfc <roundf>
  802754:	1009883a 	mov	r4,r2
  802758:	080ad2c0 	call	80ad2c <__fixsfsi>
  80275c:	d8800015 	stw	r2,0(sp)
  802760:	00803004 	movi	r2,192
  802764:	d8800115 	stw	r2,4(sp)
  802768:	e0bffc17 	ldw	r2,-16(fp)
  80276c:	d8800215 	stw	r2,8(sp)
  802770:	e13ffb17 	ldw	r4,-20(fp)
  802774:	800b883a 	mov	r5,r16
  802778:	880d883a 	mov	r6,r17
  80277c:	900f883a 	mov	r7,r18
  802780:	08184080 	call	818408 <alt_up_pixel_buffer_draw_line>
			roundf(ship->sensor_start.x), roundf(ship->sensor_start.y),
			roundf(ship->sensor_end.x), roundf(ship->sensor_end.y),
			0x00C0, buf);
}
  802784:	dfc00a17 	ldw	ra,40(sp)
  802788:	df000917 	ldw	fp,36(sp)
  80278c:	dc000817 	ldw	r16,32(sp)
  802790:	dc400717 	ldw	r17,28(sp)
  802794:	dc800617 	ldw	r18,24(sp)
  802798:	dec00b04 	addi	sp,sp,44
  80279c:	f800283a 	ret

008027a0 <clean_shot>:

/*---------------------------------------------------------------------------------------------
 * (function: clean_shot)
 *-------------------------------------------------------------------------------------------*/
void clean_shot(ship_t *ship, alt_up_pixel_buffer_dev *pixel_buffer, int buf)
{
  8027a0:	defff504 	addi	sp,sp,-44
  8027a4:	dfc00a15 	stw	ra,40(sp)
  8027a8:	df000915 	stw	fp,36(sp)
  8027ac:	dc000815 	stw	r16,32(sp)
  8027b0:	dc400715 	stw	r17,28(sp)
  8027b4:	dc800615 	stw	r18,24(sp)
  8027b8:	df000904 	addi	fp,sp,36
  8027bc:	e13ffa15 	stw	r4,-24(fp)
  8027c0:	e17ffb15 	stw	r5,-20(fp)
  8027c4:	e1bffc15 	stw	r6,-16(fp)
	alt_up_pixel_buffer_draw_line(pixel_buffer, 
  8027c8:	e0bffa17 	ldw	r2,-24(fp)
  8027cc:	11000e17 	ldw	r4,56(r2)
  8027d0:	0807cfc0 	call	807cfc <roundf>
  8027d4:	1009883a 	mov	r4,r2
  8027d8:	080ad2c0 	call	80ad2c <__fixsfsi>
  8027dc:	1021883a 	mov	r16,r2
  8027e0:	e0bffa17 	ldw	r2,-24(fp)
  8027e4:	11000f17 	ldw	r4,60(r2)
  8027e8:	0807cfc0 	call	807cfc <roundf>
  8027ec:	1009883a 	mov	r4,r2
  8027f0:	080ad2c0 	call	80ad2c <__fixsfsi>
  8027f4:	1023883a 	mov	r17,r2
  8027f8:	e0bffa17 	ldw	r2,-24(fp)
  8027fc:	11001017 	ldw	r4,64(r2)
  802800:	0807cfc0 	call	807cfc <roundf>
  802804:	1009883a 	mov	r4,r2
  802808:	080ad2c0 	call	80ad2c <__fixsfsi>
  80280c:	1025883a 	mov	r18,r2
  802810:	e0bffa17 	ldw	r2,-24(fp)
  802814:	11001117 	ldw	r4,68(r2)
  802818:	0807cfc0 	call	807cfc <roundf>
  80281c:	1009883a 	mov	r4,r2
  802820:	080ad2c0 	call	80ad2c <__fixsfsi>
  802824:	d8800015 	stw	r2,0(sp)
  802828:	d8000115 	stw	zero,4(sp)
  80282c:	e0bffc17 	ldw	r2,-16(fp)
  802830:	d8800215 	stw	r2,8(sp)
  802834:	e13ffb17 	ldw	r4,-20(fp)
  802838:	800b883a 	mov	r5,r16
  80283c:	880d883a 	mov	r6,r17
  802840:	900f883a 	mov	r7,r18
  802844:	08184080 	call	818408 <alt_up_pixel_buffer_draw_line>
			roundf(ship->shot_start.x), roundf(ship->shot_start.y),
			roundf(ship->shot_end.x), roundf(ship->shot_end.y),
			0x0000, buf);
}
  802848:	dfc00a17 	ldw	ra,40(sp)
  80284c:	df000917 	ldw	fp,36(sp)
  802850:	dc000817 	ldw	r16,32(sp)
  802854:	dc400717 	ldw	r17,28(sp)
  802858:	dc800617 	ldw	r18,24(sp)
  80285c:	dec00b04 	addi	sp,sp,44
  802860:	f800283a 	ret

00802864 <draw_shot>:

/*---------------------------------------------------------------------------------------------
 * (function: draw_shot)
 *-------------------------------------------------------------------------------------------*/
void draw_shot(ship_t *ship, alt_up_pixel_buffer_dev *pixel_buffer, int buf, int sec)
{
  802864:	defff404 	addi	sp,sp,-48
  802868:	dfc00b15 	stw	ra,44(sp)
  80286c:	df000a15 	stw	fp,40(sp)
  802870:	dc000915 	stw	r16,36(sp)
  802874:	dc400815 	stw	r17,32(sp)
  802878:	dc800715 	stw	r18,28(sp)
  80287c:	df000a04 	addi	fp,sp,40
  802880:	e13ff915 	stw	r4,-28(fp)
  802884:	e17ffa15 	stw	r5,-24(fp)
  802888:	e1bffb15 	stw	r6,-20(fp)
  80288c:	e1fffc15 	stw	r7,-16(fp)
	alt_up_pixel_buffer_draw_line(pixel_buffer, 
  802890:	e0bff917 	ldw	r2,-28(fp)
  802894:	11000e17 	ldw	r4,56(r2)
  802898:	0807cfc0 	call	807cfc <roundf>
  80289c:	1009883a 	mov	r4,r2
  8028a0:	080ad2c0 	call	80ad2c <__fixsfsi>
  8028a4:	1021883a 	mov	r16,r2
  8028a8:	e0bff917 	ldw	r2,-28(fp)
  8028ac:	11000f17 	ldw	r4,60(r2)
  8028b0:	0807cfc0 	call	807cfc <roundf>
  8028b4:	1009883a 	mov	r4,r2
  8028b8:	080ad2c0 	call	80ad2c <__fixsfsi>
  8028bc:	1023883a 	mov	r17,r2
  8028c0:	e0bff917 	ldw	r2,-28(fp)
  8028c4:	11001017 	ldw	r4,64(r2)
  8028c8:	0807cfc0 	call	807cfc <roundf>
  8028cc:	1009883a 	mov	r4,r2
  8028d0:	080ad2c0 	call	80ad2c <__fixsfsi>
  8028d4:	1025883a 	mov	r18,r2
  8028d8:	e0bff917 	ldw	r2,-28(fp)
  8028dc:	11001117 	ldw	r4,68(r2)
  8028e0:	0807cfc0 	call	807cfc <roundf>
  8028e4:	1009883a 	mov	r4,r2
  8028e8:	080ad2c0 	call	80ad2c <__fixsfsi>
  8028ec:	d8800015 	stw	r2,0(sp)
  8028f0:	e0bffc17 	ldw	r2,-16(fp)
  8028f4:	10c03c24 	muli	r3,r2,240
  8028f8:	0083fc04 	movi	r2,4080
  8028fc:	10c5c83a 	sub	r2,r2,r3
  802900:	d8800115 	stw	r2,4(sp)
  802904:	e0bffb17 	ldw	r2,-20(fp)
  802908:	d8800215 	stw	r2,8(sp)
  80290c:	e13ffa17 	ldw	r4,-24(fp)
  802910:	800b883a 	mov	r5,r16
  802914:	880d883a 	mov	r6,r17
  802918:	900f883a 	mov	r7,r18
  80291c:	08184080 	call	818408 <alt_up_pixel_buffer_draw_line>
			roundf(ship->shot_start.x), roundf(ship->shot_start.y),
			roundf(ship->shot_end.x), roundf(ship->shot_end.y),
			0x0FF0 - (0x0F0*sec), buf);
}
  802920:	dfc00b17 	ldw	ra,44(sp)
  802924:	df000a17 	ldw	fp,40(sp)
  802928:	dc000917 	ldw	r16,36(sp)
  80292c:	dc400817 	ldw	r17,32(sp)
  802930:	dc800717 	ldw	r18,28(sp)
  802934:	dec00c04 	addi	sp,sp,48
  802938:	f800283a 	ret

0080293c <draw_string>:

/*---------------------------------------------------------------------------------------------
 * (function: draw_string)
 *-------------------------------------------------------------------------------------------*/
void draw_string(alt_up_pixel_buffer_dev *pixel_buffer, int color, int buf, int x0, int y0, char *string, int size)
{
  80293c:	defff704 	addi	sp,sp,-36
  802940:	dfc00815 	stw	ra,32(sp)
  802944:	df000715 	stw	fp,28(sp)
  802948:	df000704 	addi	fp,sp,28
  80294c:	e13ffb15 	stw	r4,-20(fp)
  802950:	e17ffc15 	stw	r5,-16(fp)
  802954:	e1bffd15 	stw	r6,-12(fp)
  802958:	e1fffe15 	stw	r7,-8(fp)
	int i;

	for (i = 0; i < size; i++)
  80295c:	e03fff15 	stw	zero,-4(fp)
  802960:	e0ffff17 	ldw	r3,-4(fp)
  802964:	e0800417 	ldw	r2,16(fp)
  802968:	1880130e 	bge	r3,r2,8029b8 <draw_string+0x7c>
	{
		draw_letter(pixel_buffer, color, buf, string[i], x0+(i*6), y0);
  80296c:	e0c00317 	ldw	r3,12(fp)
  802970:	e0bfff17 	ldw	r2,-4(fp)
  802974:	1885883a 	add	r2,r3,r2
  802978:	11c00007 	ldb	r7,0(r2)
  80297c:	e0bfff17 	ldw	r2,-4(fp)
  802980:	10c001a4 	muli	r3,r2,6
  802984:	e0bffe17 	ldw	r2,-8(fp)
  802988:	1885883a 	add	r2,r3,r2
  80298c:	d8800015 	stw	r2,0(sp)
  802990:	e0800217 	ldw	r2,8(fp)
  802994:	d8800115 	stw	r2,4(sp)
  802998:	e13ffb17 	ldw	r4,-20(fp)
  80299c:	e17ffc17 	ldw	r5,-16(fp)
  8029a0:	e1bffd17 	ldw	r6,-12(fp)
  8029a4:	08029c80 	call	8029c8 <draw_letter>
  8029a8:	e0bfff17 	ldw	r2,-4(fp)
  8029ac:	10800044 	addi	r2,r2,1
  8029b0:	e0bfff15 	stw	r2,-4(fp)
  8029b4:	003fea06 	br	802960 <draw_string+0x24>
	}
}
  8029b8:	dfc00817 	ldw	ra,32(sp)
  8029bc:	df000717 	ldw	fp,28(sp)
  8029c0:	dec00904 	addi	sp,sp,36
  8029c4:	f800283a 	ret

008029c8 <draw_letter>:

/*---------------------------------------------------------------------------------------------
 * (function: draw_letter)
 *-------------------------------------------------------------------------------------------*/
void draw_letter(alt_up_pixel_buffer_dev *pixel_buffer, int color, int buf, char letter, int x0, int y0)
{
  8029c8:	defff304 	addi	sp,sp,-52
  8029cc:	dfc00c15 	stw	ra,48(sp)
  8029d0:	df000b15 	stw	fp,44(sp)
  8029d4:	df000b04 	addi	fp,sp,44
  8029d8:	e13ffb15 	stw	r4,-20(fp)
  8029dc:	e17ffc15 	stw	r5,-16(fp)
  8029e0:	e1bffd15 	stw	r6,-12(fp)
  8029e4:	e1fffe05 	stb	r7,-8(fp)
	switch(letter)
  8029e8:	e0bffe07 	ldb	r2,-8(fp)
  8029ec:	10bff804 	addi	r2,r2,-32
  8029f0:	e0bfff15 	stw	r2,-4(fp)
  8029f4:	e0ffff17 	ldw	r3,-4(fp)
  8029f8:	188016e8 	cmpgeui	r2,r3,91
  8029fc:	1002ad1e 	bne	r2,zero,8034b4 <draw_letter+0xaec>
  802a00:	e0bfff17 	ldw	r2,-4(fp)
  802a04:	10c00124 	muli	r3,r2,4
  802a08:	008020b4 	movhi	r2,130
  802a0c:	10a53a04 	addi	r2,r2,-27416
  802a10:	1885883a 	add	r2,r3,r2
  802a14:	10800017 	ldw	r2,0(r2)
  802a18:	1000683a 	jmp	r2
	{
		case 'a':
			draw_font(pixel_buffer, color, buf, 0x1E, 0x05, 0x05, 0x05, 0x1E, x0, y0);
  802a1c:	00800144 	movi	r2,5
  802a20:	d8800015 	stw	r2,0(sp)
  802a24:	00800144 	movi	r2,5
  802a28:	d8800115 	stw	r2,4(sp)
  802a2c:	00800144 	movi	r2,5
  802a30:	d8800215 	stw	r2,8(sp)
  802a34:	00800784 	movi	r2,30
  802a38:	d8800315 	stw	r2,12(sp)
  802a3c:	e0800217 	ldw	r2,8(fp)
  802a40:	d8800415 	stw	r2,16(sp)
  802a44:	e0800317 	ldw	r2,12(fp)
  802a48:	d8800515 	stw	r2,20(sp)
  802a4c:	e13ffb17 	ldw	r4,-20(fp)
  802a50:	e17ffc17 	ldw	r5,-16(fp)
  802a54:	e1bffd17 	ldw	r6,-12(fp)
  802a58:	01c00784 	movi	r7,30
  802a5c:	08035080 	call	803508 <draw_font>
			break;
  802a60:	0002a506 	br	8034f8 <draw_letter+0xb30>
		case 'b':
			draw_font(pixel_buffer, color, buf, 0x1F, 0x15, 0x15, 0x15, 0x0C, x0, y0);
  802a64:	00800544 	movi	r2,21
  802a68:	d8800015 	stw	r2,0(sp)
  802a6c:	00800544 	movi	r2,21
  802a70:	d8800115 	stw	r2,4(sp)
  802a74:	00800544 	movi	r2,21
  802a78:	d8800215 	stw	r2,8(sp)
  802a7c:	00800304 	movi	r2,12
  802a80:	d8800315 	stw	r2,12(sp)
  802a84:	e0800217 	ldw	r2,8(fp)
  802a88:	d8800415 	stw	r2,16(sp)
  802a8c:	e0800317 	ldw	r2,12(fp)
  802a90:	d8800515 	stw	r2,20(sp)
  802a94:	e13ffb17 	ldw	r4,-20(fp)
  802a98:	e17ffc17 	ldw	r5,-16(fp)
  802a9c:	e1bffd17 	ldw	r6,-12(fp)
  802aa0:	01c007c4 	movi	r7,31
  802aa4:	08035080 	call	803508 <draw_font>
			break;
  802aa8:	00029306 	br	8034f8 <draw_letter+0xb30>
		case 'c':
			draw_font(pixel_buffer, color, buf, 0x0E, 0x11, 0x11, 0x11, 0x11, x0, y0);
  802aac:	00800444 	movi	r2,17
  802ab0:	d8800015 	stw	r2,0(sp)
  802ab4:	00800444 	movi	r2,17
  802ab8:	d8800115 	stw	r2,4(sp)
  802abc:	00800444 	movi	r2,17
  802ac0:	d8800215 	stw	r2,8(sp)
  802ac4:	00800444 	movi	r2,17
  802ac8:	d8800315 	stw	r2,12(sp)
  802acc:	e0800217 	ldw	r2,8(fp)
  802ad0:	d8800415 	stw	r2,16(sp)
  802ad4:	e0800317 	ldw	r2,12(fp)
  802ad8:	d8800515 	stw	r2,20(sp)
  802adc:	e13ffb17 	ldw	r4,-20(fp)
  802ae0:	e17ffc17 	ldw	r5,-16(fp)
  802ae4:	e1bffd17 	ldw	r6,-12(fp)
  802ae8:	01c00384 	movi	r7,14
  802aec:	08035080 	call	803508 <draw_font>
			break;
  802af0:	00028106 	br	8034f8 <draw_letter+0xb30>
		case 'd':
			draw_font(pixel_buffer, color, buf, 0x1F, 0x11, 0x11, 0x11, 0x0E, x0, y0);
  802af4:	00800444 	movi	r2,17
  802af8:	d8800015 	stw	r2,0(sp)
  802afc:	00800444 	movi	r2,17
  802b00:	d8800115 	stw	r2,4(sp)
  802b04:	00800444 	movi	r2,17
  802b08:	d8800215 	stw	r2,8(sp)
  802b0c:	00800384 	movi	r2,14
  802b10:	d8800315 	stw	r2,12(sp)
  802b14:	e0800217 	ldw	r2,8(fp)
  802b18:	d8800415 	stw	r2,16(sp)
  802b1c:	e0800317 	ldw	r2,12(fp)
  802b20:	d8800515 	stw	r2,20(sp)
  802b24:	e13ffb17 	ldw	r4,-20(fp)
  802b28:	e17ffc17 	ldw	r5,-16(fp)
  802b2c:	e1bffd17 	ldw	r6,-12(fp)
  802b30:	01c007c4 	movi	r7,31
  802b34:	08035080 	call	803508 <draw_font>
			break;
  802b38:	00026f06 	br	8034f8 <draw_letter+0xb30>
		case 'e':
			draw_font(pixel_buffer, color, buf, 0x1F, 0x15, 0x15, 0x15, 0x15, x0, y0);
  802b3c:	00800544 	movi	r2,21
  802b40:	d8800015 	stw	r2,0(sp)
  802b44:	00800544 	movi	r2,21
  802b48:	d8800115 	stw	r2,4(sp)
  802b4c:	00800544 	movi	r2,21
  802b50:	d8800215 	stw	r2,8(sp)
  802b54:	00800544 	movi	r2,21
  802b58:	d8800315 	stw	r2,12(sp)
  802b5c:	e0800217 	ldw	r2,8(fp)
  802b60:	d8800415 	stw	r2,16(sp)
  802b64:	e0800317 	ldw	r2,12(fp)
  802b68:	d8800515 	stw	r2,20(sp)
  802b6c:	e13ffb17 	ldw	r4,-20(fp)
  802b70:	e17ffc17 	ldw	r5,-16(fp)
  802b74:	e1bffd17 	ldw	r6,-12(fp)
  802b78:	01c007c4 	movi	r7,31
  802b7c:	08035080 	call	803508 <draw_font>
			break;
  802b80:	00025d06 	br	8034f8 <draw_letter+0xb30>
		case 'f':
			draw_font(pixel_buffer, color, buf, 0x1F, 0x05, 0x05, 0x01, 0x01, x0, y0);
  802b84:	00800144 	movi	r2,5
  802b88:	d8800015 	stw	r2,0(sp)
  802b8c:	00800144 	movi	r2,5
  802b90:	d8800115 	stw	r2,4(sp)
  802b94:	00800044 	movi	r2,1
  802b98:	d8800215 	stw	r2,8(sp)
  802b9c:	00800044 	movi	r2,1
  802ba0:	d8800315 	stw	r2,12(sp)
  802ba4:	e0800217 	ldw	r2,8(fp)
  802ba8:	d8800415 	stw	r2,16(sp)
  802bac:	e0800317 	ldw	r2,12(fp)
  802bb0:	d8800515 	stw	r2,20(sp)
  802bb4:	e13ffb17 	ldw	r4,-20(fp)
  802bb8:	e17ffc17 	ldw	r5,-16(fp)
  802bbc:	e1bffd17 	ldw	r6,-12(fp)
  802bc0:	01c007c4 	movi	r7,31
  802bc4:	08035080 	call	803508 <draw_font>
			break;
  802bc8:	00024b06 	br	8034f8 <draw_letter+0xb30>
		case 'g':
			draw_font(pixel_buffer, color, buf, 0x0E, 0x11, 0x15, 0x15, 0x1D, x0, y0);
  802bcc:	00800444 	movi	r2,17
  802bd0:	d8800015 	stw	r2,0(sp)
  802bd4:	00800544 	movi	r2,21
  802bd8:	d8800115 	stw	r2,4(sp)
  802bdc:	00800544 	movi	r2,21
  802be0:	d8800215 	stw	r2,8(sp)
  802be4:	00800744 	movi	r2,29
  802be8:	d8800315 	stw	r2,12(sp)
  802bec:	e0800217 	ldw	r2,8(fp)
  802bf0:	d8800415 	stw	r2,16(sp)
  802bf4:	e0800317 	ldw	r2,12(fp)
  802bf8:	d8800515 	stw	r2,20(sp)
  802bfc:	e13ffb17 	ldw	r4,-20(fp)
  802c00:	e17ffc17 	ldw	r5,-16(fp)
  802c04:	e1bffd17 	ldw	r6,-12(fp)
  802c08:	01c00384 	movi	r7,14
  802c0c:	08035080 	call	803508 <draw_font>
			break;
  802c10:	00023906 	br	8034f8 <draw_letter+0xb30>
		case 'h':
			draw_font(pixel_buffer, color, buf, 0x1F, 0x04, 0x04, 0x04, 0x1F, x0, y0);
  802c14:	00800104 	movi	r2,4
  802c18:	d8800015 	stw	r2,0(sp)
  802c1c:	00800104 	movi	r2,4
  802c20:	d8800115 	stw	r2,4(sp)
  802c24:	00800104 	movi	r2,4
  802c28:	d8800215 	stw	r2,8(sp)
  802c2c:	008007c4 	movi	r2,31
  802c30:	d8800315 	stw	r2,12(sp)
  802c34:	e0800217 	ldw	r2,8(fp)
  802c38:	d8800415 	stw	r2,16(sp)
  802c3c:	e0800317 	ldw	r2,12(fp)
  802c40:	d8800515 	stw	r2,20(sp)
  802c44:	e13ffb17 	ldw	r4,-20(fp)
  802c48:	e17ffc17 	ldw	r5,-16(fp)
  802c4c:	e1bffd17 	ldw	r6,-12(fp)
  802c50:	01c007c4 	movi	r7,31
  802c54:	08035080 	call	803508 <draw_font>
			break;
  802c58:	00022706 	br	8034f8 <draw_letter+0xb30>
		case 'i':
			draw_font(pixel_buffer, color, buf, 0x11, 0x11, 0x1F, 0x11, 0x11, x0, y0);
  802c5c:	00800444 	movi	r2,17
  802c60:	d8800015 	stw	r2,0(sp)
  802c64:	008007c4 	movi	r2,31
  802c68:	d8800115 	stw	r2,4(sp)
  802c6c:	00800444 	movi	r2,17
  802c70:	d8800215 	stw	r2,8(sp)
  802c74:	00800444 	movi	r2,17
  802c78:	d8800315 	stw	r2,12(sp)
  802c7c:	e0800217 	ldw	r2,8(fp)
  802c80:	d8800415 	stw	r2,16(sp)
  802c84:	e0800317 	ldw	r2,12(fp)
  802c88:	d8800515 	stw	r2,20(sp)
  802c8c:	e13ffb17 	ldw	r4,-20(fp)
  802c90:	e17ffc17 	ldw	r5,-16(fp)
  802c94:	e1bffd17 	ldw	r6,-12(fp)
  802c98:	01c00444 	movi	r7,17
  802c9c:	08035080 	call	803508 <draw_font>
			break;
  802ca0:	00021506 	br	8034f8 <draw_letter+0xb30>
		case 'j':
			draw_font(pixel_buffer, color, buf, 0x08, 0x10, 0x11, 0x11, 0x0F, x0, y0);
  802ca4:	00800404 	movi	r2,16
  802ca8:	d8800015 	stw	r2,0(sp)
  802cac:	00800444 	movi	r2,17
  802cb0:	d8800115 	stw	r2,4(sp)
  802cb4:	00800444 	movi	r2,17
  802cb8:	d8800215 	stw	r2,8(sp)
  802cbc:	008003c4 	movi	r2,15
  802cc0:	d8800315 	stw	r2,12(sp)
  802cc4:	e0800217 	ldw	r2,8(fp)
  802cc8:	d8800415 	stw	r2,16(sp)
  802ccc:	e0800317 	ldw	r2,12(fp)
  802cd0:	d8800515 	stw	r2,20(sp)
  802cd4:	e13ffb17 	ldw	r4,-20(fp)
  802cd8:	e17ffc17 	ldw	r5,-16(fp)
  802cdc:	e1bffd17 	ldw	r6,-12(fp)
  802ce0:	01c00204 	movi	r7,8
  802ce4:	08035080 	call	803508 <draw_font>
			break;
  802ce8:	00020306 	br	8034f8 <draw_letter+0xb30>
		case 'k':
			draw_font(pixel_buffer, color, buf, 0x1F, 0x04, 0x06, 0x05, 0x18, x0, y0);
  802cec:	00800104 	movi	r2,4
  802cf0:	d8800015 	stw	r2,0(sp)
  802cf4:	00800184 	movi	r2,6
  802cf8:	d8800115 	stw	r2,4(sp)
  802cfc:	00800144 	movi	r2,5
  802d00:	d8800215 	stw	r2,8(sp)
  802d04:	00800604 	movi	r2,24
  802d08:	d8800315 	stw	r2,12(sp)
  802d0c:	e0800217 	ldw	r2,8(fp)
  802d10:	d8800415 	stw	r2,16(sp)
  802d14:	e0800317 	ldw	r2,12(fp)
  802d18:	d8800515 	stw	r2,20(sp)
  802d1c:	e13ffb17 	ldw	r4,-20(fp)
  802d20:	e17ffc17 	ldw	r5,-16(fp)
  802d24:	e1bffd17 	ldw	r6,-12(fp)
  802d28:	01c007c4 	movi	r7,31
  802d2c:	08035080 	call	803508 <draw_font>
			break;
  802d30:	0001f106 	br	8034f8 <draw_letter+0xb30>
		case 'l':
			draw_font(pixel_buffer, color, buf, 0x1F, 0x10, 0x10, 0x10, 0x10, x0, y0);
  802d34:	00800404 	movi	r2,16
  802d38:	d8800015 	stw	r2,0(sp)
  802d3c:	00800404 	movi	r2,16
  802d40:	d8800115 	stw	r2,4(sp)
  802d44:	00800404 	movi	r2,16
  802d48:	d8800215 	stw	r2,8(sp)
  802d4c:	00800404 	movi	r2,16
  802d50:	d8800315 	stw	r2,12(sp)
  802d54:	e0800217 	ldw	r2,8(fp)
  802d58:	d8800415 	stw	r2,16(sp)
  802d5c:	e0800317 	ldw	r2,12(fp)
  802d60:	d8800515 	stw	r2,20(sp)
  802d64:	e13ffb17 	ldw	r4,-20(fp)
  802d68:	e17ffc17 	ldw	r5,-16(fp)
  802d6c:	e1bffd17 	ldw	r6,-12(fp)
  802d70:	01c007c4 	movi	r7,31
  802d74:	08035080 	call	803508 <draw_font>
			break;
  802d78:	0001df06 	br	8034f8 <draw_letter+0xb30>
		case 'm':
			draw_font(pixel_buffer, color, buf, 0x1F, 0x02, 0x04, 0x02, 0x1F, x0, y0);
  802d7c:	00800084 	movi	r2,2
  802d80:	d8800015 	stw	r2,0(sp)
  802d84:	00800104 	movi	r2,4
  802d88:	d8800115 	stw	r2,4(sp)
  802d8c:	00800084 	movi	r2,2
  802d90:	d8800215 	stw	r2,8(sp)
  802d94:	008007c4 	movi	r2,31
  802d98:	d8800315 	stw	r2,12(sp)
  802d9c:	e0800217 	ldw	r2,8(fp)
  802da0:	d8800415 	stw	r2,16(sp)
  802da4:	e0800317 	ldw	r2,12(fp)
  802da8:	d8800515 	stw	r2,20(sp)
  802dac:	e13ffb17 	ldw	r4,-20(fp)
  802db0:	e17ffc17 	ldw	r5,-16(fp)
  802db4:	e1bffd17 	ldw	r6,-12(fp)
  802db8:	01c007c4 	movi	r7,31
  802dbc:	08035080 	call	803508 <draw_font>
			break;
  802dc0:	0001cd06 	br	8034f8 <draw_letter+0xb30>
		case 'n':
			draw_font(pixel_buffer, color, buf, 0x1F, 0x01, 0x0E, 0x10, 0x1F, x0, y0);
  802dc4:	00800044 	movi	r2,1
  802dc8:	d8800015 	stw	r2,0(sp)
  802dcc:	00800384 	movi	r2,14
  802dd0:	d8800115 	stw	r2,4(sp)
  802dd4:	00800404 	movi	r2,16
  802dd8:	d8800215 	stw	r2,8(sp)
  802ddc:	008007c4 	movi	r2,31
  802de0:	d8800315 	stw	r2,12(sp)
  802de4:	e0800217 	ldw	r2,8(fp)
  802de8:	d8800415 	stw	r2,16(sp)
  802dec:	e0800317 	ldw	r2,12(fp)
  802df0:	d8800515 	stw	r2,20(sp)
  802df4:	e13ffb17 	ldw	r4,-20(fp)
  802df8:	e17ffc17 	ldw	r5,-16(fp)
  802dfc:	e1bffd17 	ldw	r6,-12(fp)
  802e00:	01c007c4 	movi	r7,31
  802e04:	08035080 	call	803508 <draw_font>
			break;
  802e08:	0001bb06 	br	8034f8 <draw_letter+0xb30>
		case 'o':
			draw_font(pixel_buffer, color, buf, 0x0E, 0x11, 0x11, 0x11, 0x0E, x0, y0);
  802e0c:	00800444 	movi	r2,17
  802e10:	d8800015 	stw	r2,0(sp)
  802e14:	00800444 	movi	r2,17
  802e18:	d8800115 	stw	r2,4(sp)
  802e1c:	00800444 	movi	r2,17
  802e20:	d8800215 	stw	r2,8(sp)
  802e24:	00800384 	movi	r2,14
  802e28:	d8800315 	stw	r2,12(sp)
  802e2c:	e0800217 	ldw	r2,8(fp)
  802e30:	d8800415 	stw	r2,16(sp)
  802e34:	e0800317 	ldw	r2,12(fp)
  802e38:	d8800515 	stw	r2,20(sp)
  802e3c:	e13ffb17 	ldw	r4,-20(fp)
  802e40:	e17ffc17 	ldw	r5,-16(fp)
  802e44:	e1bffd17 	ldw	r6,-12(fp)
  802e48:	01c00384 	movi	r7,14
  802e4c:	08035080 	call	803508 <draw_font>
			break;
  802e50:	0001a906 	br	8034f8 <draw_letter+0xb30>
		case 'p':
			draw_font(pixel_buffer, color, buf, 0x1F, 0x05, 0x05, 0x05, 0x02, x0, y0);
  802e54:	00800144 	movi	r2,5
  802e58:	d8800015 	stw	r2,0(sp)
  802e5c:	00800144 	movi	r2,5
  802e60:	d8800115 	stw	r2,4(sp)
  802e64:	00800144 	movi	r2,5
  802e68:	d8800215 	stw	r2,8(sp)
  802e6c:	00800084 	movi	r2,2
  802e70:	d8800315 	stw	r2,12(sp)
  802e74:	e0800217 	ldw	r2,8(fp)
  802e78:	d8800415 	stw	r2,16(sp)
  802e7c:	e0800317 	ldw	r2,12(fp)
  802e80:	d8800515 	stw	r2,20(sp)
  802e84:	e13ffb17 	ldw	r4,-20(fp)
  802e88:	e17ffc17 	ldw	r5,-16(fp)
  802e8c:	e1bffd17 	ldw	r6,-12(fp)
  802e90:	01c007c4 	movi	r7,31
  802e94:	08035080 	call	803508 <draw_font>
			break;
  802e98:	00019706 	br	8034f8 <draw_letter+0xb30>
		case 'q':
			draw_font(pixel_buffer, color, buf, 0x0E, 0x11, 0x11, 0x1E, 0x10, x0, y0);
  802e9c:	00800444 	movi	r2,17
  802ea0:	d8800015 	stw	r2,0(sp)
  802ea4:	00800444 	movi	r2,17
  802ea8:	d8800115 	stw	r2,4(sp)
  802eac:	00800784 	movi	r2,30
  802eb0:	d8800215 	stw	r2,8(sp)
  802eb4:	00800404 	movi	r2,16
  802eb8:	d8800315 	stw	r2,12(sp)
  802ebc:	e0800217 	ldw	r2,8(fp)
  802ec0:	d8800415 	stw	r2,16(sp)
  802ec4:	e0800317 	ldw	r2,12(fp)
  802ec8:	d8800515 	stw	r2,20(sp)
  802ecc:	e13ffb17 	ldw	r4,-20(fp)
  802ed0:	e17ffc17 	ldw	r5,-16(fp)
  802ed4:	e1bffd17 	ldw	r6,-12(fp)
  802ed8:	01c00384 	movi	r7,14
  802edc:	08035080 	call	803508 <draw_font>
			break;
  802ee0:	00018506 	br	8034f8 <draw_letter+0xb30>
		case 'r':
			draw_font(pixel_buffer, color, buf, 0x1F, 0x05, 0x05, 0x0D, 0x12, x0, y0);
  802ee4:	00800144 	movi	r2,5
  802ee8:	d8800015 	stw	r2,0(sp)
  802eec:	00800144 	movi	r2,5
  802ef0:	d8800115 	stw	r2,4(sp)
  802ef4:	00800344 	movi	r2,13
  802ef8:	d8800215 	stw	r2,8(sp)
  802efc:	00800484 	movi	r2,18
  802f00:	d8800315 	stw	r2,12(sp)
  802f04:	e0800217 	ldw	r2,8(fp)
  802f08:	d8800415 	stw	r2,16(sp)
  802f0c:	e0800317 	ldw	r2,12(fp)
  802f10:	d8800515 	stw	r2,20(sp)
  802f14:	e13ffb17 	ldw	r4,-20(fp)
  802f18:	e17ffc17 	ldw	r5,-16(fp)
  802f1c:	e1bffd17 	ldw	r6,-12(fp)
  802f20:	01c007c4 	movi	r7,31
  802f24:	08035080 	call	803508 <draw_font>
			break;
  802f28:	00017306 	br	8034f8 <draw_letter+0xb30>
		case 's':
			draw_font(pixel_buffer, color, buf, 0x12, 0x15, 0x15, 0x15, 0x09, x0, y0);
  802f2c:	00800544 	movi	r2,21
  802f30:	d8800015 	stw	r2,0(sp)
  802f34:	00800544 	movi	r2,21
  802f38:	d8800115 	stw	r2,4(sp)
  802f3c:	00800544 	movi	r2,21
  802f40:	d8800215 	stw	r2,8(sp)
  802f44:	00800244 	movi	r2,9
  802f48:	d8800315 	stw	r2,12(sp)
  802f4c:	e0800217 	ldw	r2,8(fp)
  802f50:	d8800415 	stw	r2,16(sp)
  802f54:	e0800317 	ldw	r2,12(fp)
  802f58:	d8800515 	stw	r2,20(sp)
  802f5c:	e13ffb17 	ldw	r4,-20(fp)
  802f60:	e17ffc17 	ldw	r5,-16(fp)
  802f64:	e1bffd17 	ldw	r6,-12(fp)
  802f68:	01c00484 	movi	r7,18
  802f6c:	08035080 	call	803508 <draw_font>
			break;
  802f70:	00016106 	br	8034f8 <draw_letter+0xb30>
		case 't':
			draw_font(pixel_buffer, color, buf, 0x01, 0x01, 0x1F, 0x01, 0x01, x0, y0);
  802f74:	00800044 	movi	r2,1
  802f78:	d8800015 	stw	r2,0(sp)
  802f7c:	008007c4 	movi	r2,31
  802f80:	d8800115 	stw	r2,4(sp)
  802f84:	00800044 	movi	r2,1
  802f88:	d8800215 	stw	r2,8(sp)
  802f8c:	00800044 	movi	r2,1
  802f90:	d8800315 	stw	r2,12(sp)
  802f94:	e0800217 	ldw	r2,8(fp)
  802f98:	d8800415 	stw	r2,16(sp)
  802f9c:	e0800317 	ldw	r2,12(fp)
  802fa0:	d8800515 	stw	r2,20(sp)
  802fa4:	e13ffb17 	ldw	r4,-20(fp)
  802fa8:	e17ffc17 	ldw	r5,-16(fp)
  802fac:	e1bffd17 	ldw	r6,-12(fp)
  802fb0:	01c00044 	movi	r7,1
  802fb4:	08035080 	call	803508 <draw_font>
			break;
  802fb8:	00014f06 	br	8034f8 <draw_letter+0xb30>
		case 'u':
			draw_font(pixel_buffer, color, buf, 0x0E, 0x10, 0x10, 0x10, 0x0E, x0, y0);
  802fbc:	00800404 	movi	r2,16
  802fc0:	d8800015 	stw	r2,0(sp)
  802fc4:	00800404 	movi	r2,16
  802fc8:	d8800115 	stw	r2,4(sp)
  802fcc:	00800404 	movi	r2,16
  802fd0:	d8800215 	stw	r2,8(sp)
  802fd4:	00800384 	movi	r2,14
  802fd8:	d8800315 	stw	r2,12(sp)
  802fdc:	e0800217 	ldw	r2,8(fp)
  802fe0:	d8800415 	stw	r2,16(sp)
  802fe4:	e0800317 	ldw	r2,12(fp)
  802fe8:	d8800515 	stw	r2,20(sp)
  802fec:	e13ffb17 	ldw	r4,-20(fp)
  802ff0:	e17ffc17 	ldw	r5,-16(fp)
  802ff4:	e1bffd17 	ldw	r6,-12(fp)
  802ff8:	01c00384 	movi	r7,14
  802ffc:	08035080 	call	803508 <draw_font>
			break;
  803000:	00013d06 	br	8034f8 <draw_letter+0xb30>
		case 'v':
			draw_font(pixel_buffer, color, buf, 0x03, 0x0C, 0x10, 0x0C, 0x03, x0, y0);
  803004:	00800304 	movi	r2,12
  803008:	d8800015 	stw	r2,0(sp)
  80300c:	00800404 	movi	r2,16
  803010:	d8800115 	stw	r2,4(sp)
  803014:	00800304 	movi	r2,12
  803018:	d8800215 	stw	r2,8(sp)
  80301c:	008000c4 	movi	r2,3
  803020:	d8800315 	stw	r2,12(sp)
  803024:	e0800217 	ldw	r2,8(fp)
  803028:	d8800415 	stw	r2,16(sp)
  80302c:	e0800317 	ldw	r2,12(fp)
  803030:	d8800515 	stw	r2,20(sp)
  803034:	e13ffb17 	ldw	r4,-20(fp)
  803038:	e17ffc17 	ldw	r5,-16(fp)
  80303c:	e1bffd17 	ldw	r6,-12(fp)
  803040:	01c000c4 	movi	r7,3
  803044:	08035080 	call	803508 <draw_font>
			break;
  803048:	00012b06 	br	8034f8 <draw_letter+0xb30>
		case 'w':
			draw_font(pixel_buffer, color, buf, 0x1F, 0x08, 0x04, 0x08, 0x1F, x0, y0);
  80304c:	00800204 	movi	r2,8
  803050:	d8800015 	stw	r2,0(sp)
  803054:	00800104 	movi	r2,4
  803058:	d8800115 	stw	r2,4(sp)
  80305c:	00800204 	movi	r2,8
  803060:	d8800215 	stw	r2,8(sp)
  803064:	008007c4 	movi	r2,31
  803068:	d8800315 	stw	r2,12(sp)
  80306c:	e0800217 	ldw	r2,8(fp)
  803070:	d8800415 	stw	r2,16(sp)
  803074:	e0800317 	ldw	r2,12(fp)
  803078:	d8800515 	stw	r2,20(sp)
  80307c:	e13ffb17 	ldw	r4,-20(fp)
  803080:	e17ffc17 	ldw	r5,-16(fp)
  803084:	e1bffd17 	ldw	r6,-12(fp)
  803088:	01c007c4 	movi	r7,31
  80308c:	08035080 	call	803508 <draw_font>
			break;
  803090:	00011906 	br	8034f8 <draw_letter+0xb30>
		case 'x':
			draw_font(pixel_buffer, color, buf, 0x11, 0x0A, 0x04, 0x0A, 0x11, x0, y0);
  803094:	00800284 	movi	r2,10
  803098:	d8800015 	stw	r2,0(sp)
  80309c:	00800104 	movi	r2,4
  8030a0:	d8800115 	stw	r2,4(sp)
  8030a4:	00800284 	movi	r2,10
  8030a8:	d8800215 	stw	r2,8(sp)
  8030ac:	00800444 	movi	r2,17
  8030b0:	d8800315 	stw	r2,12(sp)
  8030b4:	e0800217 	ldw	r2,8(fp)
  8030b8:	d8800415 	stw	r2,16(sp)
  8030bc:	e0800317 	ldw	r2,12(fp)
  8030c0:	d8800515 	stw	r2,20(sp)
  8030c4:	e13ffb17 	ldw	r4,-20(fp)
  8030c8:	e17ffc17 	ldw	r5,-16(fp)
  8030cc:	e1bffd17 	ldw	r6,-12(fp)
  8030d0:	01c00444 	movi	r7,17
  8030d4:	08035080 	call	803508 <draw_font>
			break;
  8030d8:	00010706 	br	8034f8 <draw_letter+0xb30>
		case 'y':
			draw_font(pixel_buffer, color, buf, 0x03, 0x04, 0x1C, 0x04, 0x03, x0, y0);
  8030dc:	00800104 	movi	r2,4
  8030e0:	d8800015 	stw	r2,0(sp)
  8030e4:	00800704 	movi	r2,28
  8030e8:	d8800115 	stw	r2,4(sp)
  8030ec:	00800104 	movi	r2,4
  8030f0:	d8800215 	stw	r2,8(sp)
  8030f4:	008000c4 	movi	r2,3
  8030f8:	d8800315 	stw	r2,12(sp)
  8030fc:	e0800217 	ldw	r2,8(fp)
  803100:	d8800415 	stw	r2,16(sp)
  803104:	e0800317 	ldw	r2,12(fp)
  803108:	d8800515 	stw	r2,20(sp)
  80310c:	e13ffb17 	ldw	r4,-20(fp)
  803110:	e17ffc17 	ldw	r5,-16(fp)
  803114:	e1bffd17 	ldw	r6,-12(fp)
  803118:	01c000c4 	movi	r7,3
  80311c:	08035080 	call	803508 <draw_font>
			break;
  803120:	0000f506 	br	8034f8 <draw_letter+0xb30>
		case 'z':
			draw_font(pixel_buffer, color, buf, 0x19, 0x15, 0x15, 0x15, 0x13, x0, y0);
  803124:	00800544 	movi	r2,21
  803128:	d8800015 	stw	r2,0(sp)
  80312c:	00800544 	movi	r2,21
  803130:	d8800115 	stw	r2,4(sp)
  803134:	00800544 	movi	r2,21
  803138:	d8800215 	stw	r2,8(sp)
  80313c:	008004c4 	movi	r2,19
  803140:	d8800315 	stw	r2,12(sp)
  803144:	e0800217 	ldw	r2,8(fp)
  803148:	d8800415 	stw	r2,16(sp)
  80314c:	e0800317 	ldw	r2,12(fp)
  803150:	d8800515 	stw	r2,20(sp)
  803154:	e13ffb17 	ldw	r4,-20(fp)
  803158:	e17ffc17 	ldw	r5,-16(fp)
  80315c:	e1bffd17 	ldw	r6,-12(fp)
  803160:	01c00644 	movi	r7,25
  803164:	08035080 	call	803508 <draw_font>
			break;
  803168:	0000e306 	br	8034f8 <draw_letter+0xb30>
		case '-':
			draw_font(pixel_buffer, color, buf, 0x04, 0x04, 0x04, 0x04, 0x04, x0, y0);
  80316c:	00800104 	movi	r2,4
  803170:	d8800015 	stw	r2,0(sp)
  803174:	00800104 	movi	r2,4
  803178:	d8800115 	stw	r2,4(sp)
  80317c:	00800104 	movi	r2,4
  803180:	d8800215 	stw	r2,8(sp)
  803184:	00800104 	movi	r2,4
  803188:	d8800315 	stw	r2,12(sp)
  80318c:	e0800217 	ldw	r2,8(fp)
  803190:	d8800415 	stw	r2,16(sp)
  803194:	e0800317 	ldw	r2,12(fp)
  803198:	d8800515 	stw	r2,20(sp)
  80319c:	e13ffb17 	ldw	r4,-20(fp)
  8031a0:	e17ffc17 	ldw	r5,-16(fp)
  8031a4:	e1bffd17 	ldw	r6,-12(fp)
  8031a8:	01c00104 	movi	r7,4
  8031ac:	08035080 	call	803508 <draw_font>
			break;
  8031b0:	0000d106 	br	8034f8 <draw_letter+0xb30>
		case '0':
			draw_font(pixel_buffer, color, buf, 0x0E, 0x13, 0x15, 0x19, 0x0E, x0, y0);
  8031b4:	008004c4 	movi	r2,19
  8031b8:	d8800015 	stw	r2,0(sp)
  8031bc:	00800544 	movi	r2,21
  8031c0:	d8800115 	stw	r2,4(sp)
  8031c4:	00800644 	movi	r2,25
  8031c8:	d8800215 	stw	r2,8(sp)
  8031cc:	00800384 	movi	r2,14
  8031d0:	d8800315 	stw	r2,12(sp)
  8031d4:	e0800217 	ldw	r2,8(fp)
  8031d8:	d8800415 	stw	r2,16(sp)
  8031dc:	e0800317 	ldw	r2,12(fp)
  8031e0:	d8800515 	stw	r2,20(sp)
  8031e4:	e13ffb17 	ldw	r4,-20(fp)
  8031e8:	e17ffc17 	ldw	r5,-16(fp)
  8031ec:	e1bffd17 	ldw	r6,-12(fp)
  8031f0:	01c00384 	movi	r7,14
  8031f4:	08035080 	call	803508 <draw_font>
			break;
  8031f8:	0000bf06 	br	8034f8 <draw_letter+0xb30>
		case '1':
			draw_font(pixel_buffer, color, buf, 0x10, 0x12, 0x1F, 0x10, 0x10, x0, y0);
  8031fc:	00800484 	movi	r2,18
  803200:	d8800015 	stw	r2,0(sp)
  803204:	008007c4 	movi	r2,31
  803208:	d8800115 	stw	r2,4(sp)
  80320c:	00800404 	movi	r2,16
  803210:	d8800215 	stw	r2,8(sp)
  803214:	00800404 	movi	r2,16
  803218:	d8800315 	stw	r2,12(sp)
  80321c:	e0800217 	ldw	r2,8(fp)
  803220:	d8800415 	stw	r2,16(sp)
  803224:	e0800317 	ldw	r2,12(fp)
  803228:	d8800515 	stw	r2,20(sp)
  80322c:	e13ffb17 	ldw	r4,-20(fp)
  803230:	e17ffc17 	ldw	r5,-16(fp)
  803234:	e1bffd17 	ldw	r6,-12(fp)
  803238:	01c00404 	movi	r7,16
  80323c:	08035080 	call	803508 <draw_font>
			break;
  803240:	0000ad06 	br	8034f8 <draw_letter+0xb30>
		case '2':
			draw_font(pixel_buffer, color, buf, 0x12, 0x19, 0x15, 0x12, 0x00, x0, y0);
  803244:	00800644 	movi	r2,25
  803248:	d8800015 	stw	r2,0(sp)
  80324c:	00800544 	movi	r2,21
  803250:	d8800115 	stw	r2,4(sp)
  803254:	00800484 	movi	r2,18
  803258:	d8800215 	stw	r2,8(sp)
  80325c:	d8000315 	stw	zero,12(sp)
  803260:	e0800217 	ldw	r2,8(fp)
  803264:	d8800415 	stw	r2,16(sp)
  803268:	e0800317 	ldw	r2,12(fp)
  80326c:	d8800515 	stw	r2,20(sp)
  803270:	e13ffb17 	ldw	r4,-20(fp)
  803274:	e17ffc17 	ldw	r5,-16(fp)
  803278:	e1bffd17 	ldw	r6,-12(fp)
  80327c:	01c00484 	movi	r7,18
  803280:	08035080 	call	803508 <draw_font>
			break;
  803284:	00009c06 	br	8034f8 <draw_letter+0xb30>
		case '3':
			draw_font(pixel_buffer, color, buf, 0x0A, 0x11, 0x15, 0x15, 0x0A, x0, y0);
  803288:	00800444 	movi	r2,17
  80328c:	d8800015 	stw	r2,0(sp)
  803290:	00800544 	movi	r2,21
  803294:	d8800115 	stw	r2,4(sp)
  803298:	00800544 	movi	r2,21
  80329c:	d8800215 	stw	r2,8(sp)
  8032a0:	00800284 	movi	r2,10
  8032a4:	d8800315 	stw	r2,12(sp)
  8032a8:	e0800217 	ldw	r2,8(fp)
  8032ac:	d8800415 	stw	r2,16(sp)
  8032b0:	e0800317 	ldw	r2,12(fp)
  8032b4:	d8800515 	stw	r2,20(sp)
  8032b8:	e13ffb17 	ldw	r4,-20(fp)
  8032bc:	e17ffc17 	ldw	r5,-16(fp)
  8032c0:	e1bffd17 	ldw	r6,-12(fp)
  8032c4:	01c00284 	movi	r7,10
  8032c8:	08035080 	call	803508 <draw_font>
			break;
  8032cc:	00008a06 	br	8034f8 <draw_letter+0xb30>
		case '4':
			draw_font(pixel_buffer, color, buf, 0x07, 0x04, 0x04, 0x1F, 0x04, x0, y0);
  8032d0:	00800104 	movi	r2,4
  8032d4:	d8800015 	stw	r2,0(sp)
  8032d8:	00800104 	movi	r2,4
  8032dc:	d8800115 	stw	r2,4(sp)
  8032e0:	008007c4 	movi	r2,31
  8032e4:	d8800215 	stw	r2,8(sp)
  8032e8:	00800104 	movi	r2,4
  8032ec:	d8800315 	stw	r2,12(sp)
  8032f0:	e0800217 	ldw	r2,8(fp)
  8032f4:	d8800415 	stw	r2,16(sp)
  8032f8:	e0800317 	ldw	r2,12(fp)
  8032fc:	d8800515 	stw	r2,20(sp)
  803300:	e13ffb17 	ldw	r4,-20(fp)
  803304:	e17ffc17 	ldw	r5,-16(fp)
  803308:	e1bffd17 	ldw	r6,-12(fp)
  80330c:	01c001c4 	movi	r7,7
  803310:	08035080 	call	803508 <draw_font>
			break;
  803314:	00007806 	br	8034f8 <draw_letter+0xb30>
		case '5':
			draw_font(pixel_buffer, color, buf, 0x17, 0x15, 0x15, 0x09, 0x00, x0, y0);
  803318:	00800544 	movi	r2,21
  80331c:	d8800015 	stw	r2,0(sp)
  803320:	00800544 	movi	r2,21
  803324:	d8800115 	stw	r2,4(sp)
  803328:	00800244 	movi	r2,9
  80332c:	d8800215 	stw	r2,8(sp)
  803330:	d8000315 	stw	zero,12(sp)
  803334:	e0800217 	ldw	r2,8(fp)
  803338:	d8800415 	stw	r2,16(sp)
  80333c:	e0800317 	ldw	r2,12(fp)
  803340:	d8800515 	stw	r2,20(sp)
  803344:	e13ffb17 	ldw	r4,-20(fp)
  803348:	e17ffc17 	ldw	r5,-16(fp)
  80334c:	e1bffd17 	ldw	r6,-12(fp)
  803350:	01c005c4 	movi	r7,23
  803354:	08035080 	call	803508 <draw_font>
			break;
  803358:	00006706 	br	8034f8 <draw_letter+0xb30>
		case '6':
			draw_font(pixel_buffer, color, buf, 0x0E, 0x15, 0x15, 0x15, 0x08, x0, y0);
  80335c:	00800544 	movi	r2,21
  803360:	d8800015 	stw	r2,0(sp)
  803364:	00800544 	movi	r2,21
  803368:	d8800115 	stw	r2,4(sp)
  80336c:	00800544 	movi	r2,21
  803370:	d8800215 	stw	r2,8(sp)
  803374:	00800204 	movi	r2,8
  803378:	d8800315 	stw	r2,12(sp)
  80337c:	e0800217 	ldw	r2,8(fp)
  803380:	d8800415 	stw	r2,16(sp)
  803384:	e0800317 	ldw	r2,12(fp)
  803388:	d8800515 	stw	r2,20(sp)
  80338c:	e13ffb17 	ldw	r4,-20(fp)
  803390:	e17ffc17 	ldw	r5,-16(fp)
  803394:	e1bffd17 	ldw	r6,-12(fp)
  803398:	01c00384 	movi	r7,14
  80339c:	08035080 	call	803508 <draw_font>
			break;
  8033a0:	00005506 	br	8034f8 <draw_letter+0xb30>
		case '7':
			draw_font(pixel_buffer, color, buf, 0x01, 0x01, 0x1D, 0x03, 0x01, x0, y0);
  8033a4:	00800044 	movi	r2,1
  8033a8:	d8800015 	stw	r2,0(sp)
  8033ac:	00800744 	movi	r2,29
  8033b0:	d8800115 	stw	r2,4(sp)
  8033b4:	008000c4 	movi	r2,3
  8033b8:	d8800215 	stw	r2,8(sp)
  8033bc:	00800044 	movi	r2,1
  8033c0:	d8800315 	stw	r2,12(sp)
  8033c4:	e0800217 	ldw	r2,8(fp)
  8033c8:	d8800415 	stw	r2,16(sp)
  8033cc:	e0800317 	ldw	r2,12(fp)
  8033d0:	d8800515 	stw	r2,20(sp)
  8033d4:	e13ffb17 	ldw	r4,-20(fp)
  8033d8:	e17ffc17 	ldw	r5,-16(fp)
  8033dc:	e1bffd17 	ldw	r6,-12(fp)
  8033e0:	01c00044 	movi	r7,1
  8033e4:	08035080 	call	803508 <draw_font>
			break;
  8033e8:	00004306 	br	8034f8 <draw_letter+0xb30>
		case '8':
			draw_font(pixel_buffer, color, buf, 0x0A, 0x15, 0x15, 0x15, 0x0A, x0, y0);
  8033ec:	00800544 	movi	r2,21
  8033f0:	d8800015 	stw	r2,0(sp)
  8033f4:	00800544 	movi	r2,21
  8033f8:	d8800115 	stw	r2,4(sp)
  8033fc:	00800544 	movi	r2,21
  803400:	d8800215 	stw	r2,8(sp)
  803404:	00800284 	movi	r2,10
  803408:	d8800315 	stw	r2,12(sp)
  80340c:	e0800217 	ldw	r2,8(fp)
  803410:	d8800415 	stw	r2,16(sp)
  803414:	e0800317 	ldw	r2,12(fp)
  803418:	d8800515 	stw	r2,20(sp)
  80341c:	e13ffb17 	ldw	r4,-20(fp)
  803420:	e17ffc17 	ldw	r5,-16(fp)
  803424:	e1bffd17 	ldw	r6,-12(fp)
  803428:	01c00284 	movi	r7,10
  80342c:	08035080 	call	803508 <draw_font>
			break;
  803430:	00003106 	br	8034f8 <draw_letter+0xb30>
		case '9':
			draw_font(pixel_buffer, color, buf, 0x02, 0x15, 0x15, 0x15, 0x0E, x0, y0);
  803434:	00800544 	movi	r2,21
  803438:	d8800015 	stw	r2,0(sp)
  80343c:	00800544 	movi	r2,21
  803440:	d8800115 	stw	r2,4(sp)
  803444:	00800544 	movi	r2,21
  803448:	d8800215 	stw	r2,8(sp)
  80344c:	00800384 	movi	r2,14
  803450:	d8800315 	stw	r2,12(sp)
  803454:	e0800217 	ldw	r2,8(fp)
  803458:	d8800415 	stw	r2,16(sp)
  80345c:	e0800317 	ldw	r2,12(fp)
  803460:	d8800515 	stw	r2,20(sp)
  803464:	e13ffb17 	ldw	r4,-20(fp)
  803468:	e17ffc17 	ldw	r5,-16(fp)
  80346c:	e1bffd17 	ldw	r6,-12(fp)
  803470:	01c00084 	movi	r7,2
  803474:	08035080 	call	803508 <draw_font>
			break;
  803478:	00001f06 	br	8034f8 <draw_letter+0xb30>
		case ' ':
			draw_font(pixel_buffer, color, buf, 0x00, 0x00, 0x00, 0x00, 0x00, x0, y0);
  80347c:	d8000015 	stw	zero,0(sp)
  803480:	d8000115 	stw	zero,4(sp)
  803484:	d8000215 	stw	zero,8(sp)
  803488:	d8000315 	stw	zero,12(sp)
  80348c:	e0800217 	ldw	r2,8(fp)
  803490:	d8800415 	stw	r2,16(sp)
  803494:	e0800317 	ldw	r2,12(fp)
  803498:	d8800515 	stw	r2,20(sp)
  80349c:	e13ffb17 	ldw	r4,-20(fp)
  8034a0:	e17ffc17 	ldw	r5,-16(fp)
  8034a4:	e1bffd17 	ldw	r6,-12(fp)
  8034a8:	000f883a 	mov	r7,zero
  8034ac:	08035080 	call	803508 <draw_font>
			break;
  8034b0:	00001106 	br	8034f8 <draw_letter+0xb30>
		default:
			draw_font(pixel_buffer, color, buf, 0x1F, 0x1F, 0x1F, 0x1F, 0x1F, x0, y0);
  8034b4:	008007c4 	movi	r2,31
  8034b8:	d8800015 	stw	r2,0(sp)
  8034bc:	008007c4 	movi	r2,31
  8034c0:	d8800115 	stw	r2,4(sp)
  8034c4:	008007c4 	movi	r2,31
  8034c8:	d8800215 	stw	r2,8(sp)
  8034cc:	008007c4 	movi	r2,31
  8034d0:	d8800315 	stw	r2,12(sp)
  8034d4:	e0800217 	ldw	r2,8(fp)
  8034d8:	d8800415 	stw	r2,16(sp)
  8034dc:	e0800317 	ldw	r2,12(fp)
  8034e0:	d8800515 	stw	r2,20(sp)
  8034e4:	e13ffb17 	ldw	r4,-20(fp)
  8034e8:	e17ffc17 	ldw	r5,-16(fp)
  8034ec:	e1bffd17 	ldw	r6,-12(fp)
  8034f0:	01c007c4 	movi	r7,31
  8034f4:	08035080 	call	803508 <draw_font>
			break;
	}
}
  8034f8:	dfc00c17 	ldw	ra,48(sp)
  8034fc:	df000b17 	ldw	fp,44(sp)
  803500:	dec00d04 	addi	sp,sp,52
  803504:	f800283a 	ret

00803508 <draw_font>:

/*---------------------------------------------------------------------------------------------
 * (function: draw_font)
 * Goes through the 32 bit code from top point in the y direction
 *-------------------------------------------------------------------------------------------*/
void draw_font(alt_up_pixel_buffer_dev *pixel_buffer, int color, int buf, alt_u8 r0, alt_u8 r1, alt_u8 r2, alt_u8 r3, alt_u8 r4, int x0, int y0)
{
  803508:	defff304 	addi	sp,sp,-52
  80350c:	dfc00c15 	stw	ra,48(sp)
  803510:	df000b15 	stw	fp,44(sp)
  803514:	df000b04 	addi	fp,sp,44
  803518:	e13ff815 	stw	r4,-32(fp)
  80351c:	e17ff915 	stw	r5,-28(fp)
  803520:	e1bffa15 	stw	r6,-24(fp)
  803524:	e0800217 	ldw	r2,8(fp)
  803528:	e0c00317 	ldw	r3,12(fp)
  80352c:	e1000417 	ldw	r4,16(fp)
  803530:	e1400517 	ldw	r5,20(fp)
  803534:	e1fffb05 	stb	r7,-20(fp)
  803538:	e0bffb45 	stb	r2,-19(fp)
  80353c:	e0fffb85 	stb	r3,-18(fp)
  803540:	e13ffbc5 	stb	r4,-17(fp)
  803544:	e17ffc05 	stb	r5,-16(fp)
	int i, j;
	alt_u8 mask = 1;
  803548:	00800044 	movi	r2,1
  80354c:	e0bfff05 	stb	r2,-4(fp)
	alt_u8 row;

	for (i = 0; i < 5; i++)
  803550:	e03ffd15 	stw	zero,-12(fp)
  803554:	e0bffd17 	ldw	r2,-12(fp)
  803558:	10800148 	cmpgei	r2,r2,5
  80355c:	1000471e 	bne	r2,zero,80367c <draw_font+0x174>
	{
		if (i == 0)
  803560:	e0bffd17 	ldw	r2,-12(fp)
  803564:	1004c03a 	cmpne	r2,r2,zero
  803568:	1000031e 	bne	r2,zero,803578 <draw_font+0x70>
			row = r0;
  80356c:	e0bffb03 	ldbu	r2,-20(fp)
  803570:	e0bfff45 	stb	r2,-3(fp)
  803574:	00001706 	br	8035d4 <draw_font+0xcc>
		else if (i == 1)
  803578:	e0bffd17 	ldw	r2,-12(fp)
  80357c:	10800058 	cmpnei	r2,r2,1
  803580:	1000031e 	bne	r2,zero,803590 <draw_font+0x88>
			row = r1;
  803584:	e0bffb43 	ldbu	r2,-19(fp)
  803588:	e0bfff45 	stb	r2,-3(fp)
  80358c:	00001106 	br	8035d4 <draw_font+0xcc>
		else if (i == 2)
  803590:	e0bffd17 	ldw	r2,-12(fp)
  803594:	10800098 	cmpnei	r2,r2,2
  803598:	1000031e 	bne	r2,zero,8035a8 <draw_font+0xa0>
			row = r2;
  80359c:	e0bffb83 	ldbu	r2,-18(fp)
  8035a0:	e0bfff45 	stb	r2,-3(fp)
  8035a4:	00000b06 	br	8035d4 <draw_font+0xcc>
		else if (i == 3)
  8035a8:	e0bffd17 	ldw	r2,-12(fp)
  8035ac:	108000d8 	cmpnei	r2,r2,3
  8035b0:	1000031e 	bne	r2,zero,8035c0 <draw_font+0xb8>
			row = r3;
  8035b4:	e0bffbc3 	ldbu	r2,-17(fp)
  8035b8:	e0bfff45 	stb	r2,-3(fp)
  8035bc:	00000506 	br	8035d4 <draw_font+0xcc>
		else if (i == 4)
  8035c0:	e0bffd17 	ldw	r2,-12(fp)
  8035c4:	10800118 	cmpnei	r2,r2,4
  8035c8:	1000021e 	bne	r2,zero,8035d4 <draw_font+0xcc>
			row = r4;
  8035cc:	e0bffc03 	ldbu	r2,-16(fp)
  8035d0:	e0bfff45 	stb	r2,-3(fp)
		mask = 1;
  8035d4:	00800044 	movi	r2,1
  8035d8:	e0bfff05 	stb	r2,-4(fp)

		for (j = 0; j < 5; j++)
  8035dc:	e03ffe15 	stw	zero,-8(fp)
  8035e0:	e0bffe17 	ldw	r2,-8(fp)
  8035e4:	10800148 	cmpgei	r2,r2,5
  8035e8:	1000201e 	bne	r2,zero,80366c <draw_font+0x164>
		{
			if ((mask & row) > 0)
  8035ec:	e0ffff03 	ldbu	r3,-4(fp)
  8035f0:	e0bfff43 	ldbu	r2,-3(fp)
  8035f4:	1884703a 	and	r2,r3,r2
  8035f8:	10803fcc 	andi	r2,r2,255
  8035fc:	1005003a 	cmpeq	r2,r2,zero
  803600:	1000131e 	bne	r2,zero,803650 <draw_font+0x148>
			{
				/* there's a bit here */
				alt_up_pixel_buffer_draw_line(pixel_buffer, 
  803604:	e0c00617 	ldw	r3,24(fp)
  803608:	e0bffd17 	ldw	r2,-12(fp)
  80360c:	188b883a 	add	r5,r3,r2
  803610:	e0c00717 	ldw	r3,28(fp)
  803614:	e0bffe17 	ldw	r2,-8(fp)
  803618:	188d883a 	add	r6,r3,r2
  80361c:	e0c00617 	ldw	r3,24(fp)
  803620:	e0bffd17 	ldw	r2,-12(fp)
  803624:	188f883a 	add	r7,r3,r2
  803628:	e0c00717 	ldw	r3,28(fp)
  80362c:	e0bffe17 	ldw	r2,-8(fp)
  803630:	1885883a 	add	r2,r3,r2
  803634:	d8800015 	stw	r2,0(sp)
  803638:	e0bff917 	ldw	r2,-28(fp)
  80363c:	d8800115 	stw	r2,4(sp)
  803640:	e0bffa17 	ldw	r2,-24(fp)
  803644:	d8800215 	stw	r2,8(sp)
  803648:	e13ff817 	ldw	r4,-32(fp)
  80364c:	08184080 	call	818408 <alt_up_pixel_buffer_draw_line>
					x0+i, y0+j,
					x0+i, y0+j,
					color, buf);
			}
			mask = mask << 1;
  803650:	e0bfff03 	ldbu	r2,-4(fp)
  803654:	1085883a 	add	r2,r2,r2
  803658:	e0bfff05 	stb	r2,-4(fp)
  80365c:	e0bffe17 	ldw	r2,-8(fp)
  803660:	10800044 	addi	r2,r2,1
  803664:	e0bffe15 	stw	r2,-8(fp)
  803668:	003fdd06 	br	8035e0 <draw_font+0xd8>
  80366c:	e0bffd17 	ldw	r2,-12(fp)
  803670:	10800044 	addi	r2,r2,1
  803674:	e0bffd15 	stw	r2,-12(fp)
  803678:	003fb606 	br	803554 <draw_font+0x4c>
		}
	}
}
  80367c:	dfc00c17 	ldw	ra,48(sp)
  803680:	df000b17 	ldw	fp,44(sp)
  803684:	dec00d04 	addi	sp,sp,52
  803688:	f800283a 	ret

0080368c <timer_packet_interrupt_isr>:
void timer_packet_interrupt_isr(void* context)
#else
void timer_packet_interrupt_isr(void* context, alt_u32 id)
#endif
{
  80368c:	defffb04 	addi	sp,sp,-20
  803690:	dfc00415 	stw	ra,16(sp)
  803694:	df000315 	stw	fp,12(sp)
  803698:	df000304 	addi	fp,sp,12
  80369c:	e13ffd15 	stw	r4,-12(fp)
  8036a0:	e17ffe15 	stw	r5,-8(fp)
	volatile int* p_edge_capture_ptr = (volatile int*) context;
  8036a4:	e0bffd17 	ldw	r2,-12(fp)
  8036a8:	e0bfff15 	stw	r2,-4(fp)

	IOWR_ALTERA_AVALON_PIO_IRQ_MASK(PUSH_BUTTONS_BASE, 0x0 );
  8036ac:	00804434 	movhi	r2,272
  8036b0:	10841e04 	addi	r2,r2,4216
  8036b4:	10000035 	stwio	zero,0(r2)

	// get the packet
	get_player_info();
  8036b8:	080370c0 	call	80370c <get_player_info>

	IOWR_ALTERA_AVALON_PIO_IRQ_MASK(PUSH_BUTTONS_BASE, 0xf );
  8036bc:	00c04434 	movhi	r3,272
  8036c0:	18c41e04 	addi	r3,r3,4216
  8036c4:	008003c4 	movi	r2,15
  8036c8:	18800035 	stwio	r2,0(r3)
	/* Store the value in the Button's edge capture register in *context. */
	*p_edge_capture_ptr = IORD_ALTERA_AVALON_PIO_EDGE_CAP(PUSH_BUTTONS_BASE);
  8036cc:	00804434 	movhi	r2,272
  8036d0:	10841f04 	addi	r2,r2,4220
  8036d4:	10c00037 	ldwio	r3,0(r2)
  8036d8:	e0bfff17 	ldw	r2,-4(fp)
  8036dc:	10c00015 	stw	r3,0(r2)
	/* Reset the Button's edge capture register. */
	IOWR_ALTERA_AVALON_PIO_EDGE_CAP(PUSH_BUTTONS_BASE, 0xf);
  8036e0:	00c04434 	movhi	r3,272
  8036e4:	18c41f04 	addi	r3,r3,4220
  8036e8:	008003c4 	movi	r2,15
  8036ec:	18800035 	stwio	r2,0(r3)

	/* Read the PIO to delay ISR exit. This is done to prevent a spurious
	 * interrupt in systems with high processor -> pio latency and fast
	 * interrupts.  */
	IORD_ALTERA_AVALON_PIO_EDGE_CAP(PUSH_BUTTONS_BASE);
  8036f0:	00804434 	movhi	r2,272
  8036f4:	10841f04 	addi	r2,r2,4220
  8036f8:	10800037 	ldwio	r2,0(r2)
}
  8036fc:	dfc00417 	ldw	ra,16(sp)
  803700:	df000317 	ldw	fp,12(sp)
  803704:	dec00504 	addi	sp,sp,20
  803708:	f800283a 	ret

0080370c <get_player_info>:

/*---------------------------------------------------------------------------------------------
 * get_player_info
 * Goes to the ethernet core on the board and gets all the player data
 *-------------------------------------------------------------------------------------------*/
void get_player_info()
{
  80370c:	defffc04 	addi	sp,sp,-16
  803710:	df000315 	stw	fp,12(sp)
  803714:	df000304 	addi	fp,sp,12
	volatile alt_u32 input_packet_reg;
//	alt_u32 output_packet_reg = 0;
	alt_u32 mask;
	int i;

	isr_update = TRUE;
  803718:	00800044 	movi	r2,1
  80371c:	d0a0200d 	sth	r2,-32640(gp)

	/* tell the core your ready to receive data */
	mask = 1 << 30; // bit 31 is the rdy_read
  803720:	00900034 	movhi	r2,16384
  803724:	10800004 	addi	r2,r2,0
  803728:	e0bffe15 	stw	r2,-8(fp)
	output_packet_reg = output_packet_reg | mask;
  80372c:	d0e02617 	ldw	r3,-32616(gp)
  803730:	e0bffe17 	ldw	r2,-8(fp)
  803734:	1884b03a 	or	r2,r3,r2
  803738:	d0a02615 	stw	r2,-32616(gp)
	IOWR_ALTERA_AVALON_PIO_DATA(OUTPUT_PACKET_BASE, output_packet_reg);
  80373c:	00c04434 	movhi	r3,272
  803740:	18c40804 	addi	r3,r3,4128
  803744:	d0a02617 	ldw	r2,-32616(gp)
  803748:	18800035 	stwio	r2,0(r3)

	for (i = 0; i < 256; i++)
  80374c:	e03fff15 	stw	zero,-4(fp)
  803750:	e0bfff17 	ldw	r2,-4(fp)
  803754:	10804008 	cmpgei	r2,r2,256
  803758:	10002c1e 	bne	r2,zero,80380c <get_player_info+0x100>
	{
		/* spin for send data */
		input_packet_reg = IORD_ALTERA_AVALON_PIO_DATA(INPUT_PACKET_BASE);
  80375c:	00804434 	movhi	r2,272
  803760:	10842804 	addi	r2,r2,4256
  803764:	10800037 	ldwio	r2,0(r2)
  803768:	e0bffd15 	stw	r2,-12(fp)
		mask = 1 << 16; // bit 17 will go high when the send packet can be read
  80376c:	00800074 	movhi	r2,1
  803770:	10800004 	addi	r2,r2,0
  803774:	e0bffe15 	stw	r2,-8(fp)

		while ((input_packet_reg & mask) == 0)
  803778:	e0fffd17 	ldw	r3,-12(fp)
  80377c:	e0bffe17 	ldw	r2,-8(fp)
  803780:	1884703a 	and	r2,r3,r2
  803784:	1004c03a 	cmpne	r2,r2,zero
  803788:	1000051e 	bne	r2,zero,8037a0 <get_player_info+0x94>
		{
			//printf("%x: Spin for packet: %x\n", i, input_packet_reg);
			input_packet_reg = IORD_ALTERA_AVALON_PIO_DATA(INPUT_PACKET_BASE);
  80378c:	00804434 	movhi	r2,272
  803790:	10842804 	addi	r2,r2,4256
  803794:	10800037 	ldwio	r2,0(r2)
  803798:	e0bffd15 	stw	r2,-12(fp)
  80379c:	003ff606 	br	803778 <get_player_info+0x6c>
		}
	
		/* store the packet and increment the counter */
		packets[i+256] = (alt_u16)input_packet_reg;
  8037a0:	010020b4 	movhi	r4,130
  8037a4:	212fe804 	addi	r4,r4,-16480
  8037a8:	e0ffff17 	ldw	r3,-4(fp)
  8037ac:	1805883a 	mov	r2,r3
  8037b0:	10c5883a 	add	r2,r2,r3
  8037b4:	1105883a 	add	r2,r2,r4
  8037b8:	10c08004 	addi	r3,r2,512
  8037bc:	e0bffd17 	ldw	r2,-12(fp)
  8037c0:	1880000d 	sth	r2,0(r3)

		/* send the ack bit */
		mask = 1 << 31; 
  8037c4:	00a00034 	movhi	r2,32768
  8037c8:	10800004 	addi	r2,r2,0
  8037cc:	e0bffe15 	stw	r2,-8(fp)
		output_packet_reg = mask;
  8037d0:	e0bffe17 	ldw	r2,-8(fp)
  8037d4:	d0a02615 	stw	r2,-32616(gp)
		IOWR_ALTERA_AVALON_PIO_DATA(OUTPUT_PACKET_BASE, output_packet_reg);
  8037d8:	00c04434 	movhi	r3,272
  8037dc:	18c40804 	addi	r3,r3,4128
  8037e0:	d0a02617 	ldw	r2,-32616(gp)
  8037e4:	18800035 	stwio	r2,0(r3)
		/* turn off - assumes NIOS slower than design ... might throw delay */
		output_packet_reg = 0;
  8037e8:	d0202615 	stw	zero,-32616(gp)
		IOWR_ALTERA_AVALON_PIO_DATA(OUTPUT_PACKET_BASE, output_packet_reg);
  8037ec:	00c04434 	movhi	r3,272
  8037f0:	18c40804 	addi	r3,r3,4128
  8037f4:	d0a02617 	ldw	r2,-32616(gp)
  8037f8:	18800035 	stwio	r2,0(r3)
  8037fc:	e0bfff17 	ldw	r2,-4(fp)
  803800:	10800044 	addi	r2,r2,1
  803804:	e0bfff15 	stw	r2,-4(fp)
  803808:	003fd106 	br	803750 <get_player_info+0x44>
	}

	/* find the bits for each of the actions - Player 1 */
	p1_ship.cA_hookedup_to = 	(packets[256] & 0xE000) >> 13;
  80380c:	00c020b4 	movhi	r3,130
  803810:	18efc004 	addi	r3,r3,-16640
  803814:	008020b4 	movhi	r2,130
  803818:	10afe804 	addi	r2,r2,-16480
  80381c:	1080800b 	ldhu	r2,512(r2)
  803820:	10b8000c 	andi	r2,r2,57344
  803824:	1005d37a 	srai	r2,r2,13
  803828:	18801605 	stb	r2,88(r3)
	p1_ship.c2_hookedup_to = 	(packets[256] & 0x1C00) >> 10;
  80382c:	00c020b4 	movhi	r3,130
  803830:	18efc004 	addi	r3,r3,-16640
  803834:	008020b4 	movhi	r2,130
  803838:	10afe804 	addi	r2,r2,-16480
  80383c:	1080800b 	ldhu	r2,512(r2)
  803840:	1087000c 	andi	r2,r2,7168
  803844:	1005d2ba 	srai	r2,r2,10
  803848:	18801645 	stb	r2,89(r3)
	p1_ship.c3_hookedup_to = 	(packets[256] & 0x0380) >> 7;
  80384c:	00c020b4 	movhi	r3,130
  803850:	18efc004 	addi	r3,r3,-16640
  803854:	008020b4 	movhi	r2,130
  803858:	10afe804 	addi	r2,r2,-16480
  80385c:	1080800b 	ldhu	r2,512(r2)
  803860:	1080e00c 	andi	r2,r2,896
  803864:	1005d1fa 	srai	r2,r2,7
  803868:	18801685 	stb	r2,90(r3)
	p1_ship.c4_hookedup_to = 	(packets[256] & 0x0070) >> 4;
  80386c:	00c020b4 	movhi	r3,130
  803870:	18efc004 	addi	r3,r3,-16640
  803874:	008020b4 	movhi	r2,130
  803878:	10afe804 	addi	r2,r2,-16480
  80387c:	1080800b 	ldhu	r2,512(r2)
  803880:	10801c0c 	andi	r2,r2,112
  803884:	1005d13a 	srai	r2,r2,4
  803888:	188016c5 	stb	r2,91(r3)
	p1_ship.engine = 		(packets[256] & 0x0008) >> 3;
  80388c:	00c020b4 	movhi	r3,130
  803890:	18efc004 	addi	r3,r3,-16640
  803894:	008020b4 	movhi	r2,130
  803898:	10afe804 	addi	r2,r2,-16480
  80389c:	1080800b 	ldhu	r2,512(r2)
  8038a0:	1080020c 	andi	r2,r2,8
  8038a4:	1005d0fa 	srai	r2,r2,3
  8038a8:	18801805 	stb	r2,96(r3)
	p1_ship.c5_hookedup_to = 	(packets[257] & 0xE000) >> 13;
  8038ac:	00c020b4 	movhi	r3,130
  8038b0:	18efc004 	addi	r3,r3,-16640
  8038b4:	008020b4 	movhi	r2,130
  8038b8:	10afe804 	addi	r2,r2,-16480
  8038bc:	1080808b 	ldhu	r2,514(r2)
  8038c0:	10b8000c 	andi	r2,r2,57344
  8038c4:	1005d37a 	srai	r2,r2,13
  8038c8:	18801705 	stb	r2,92(r3)
	p1_ship.c6_hookedup_to = 	(packets[257] & 0x1C00) >> 10;
  8038cc:	00c020b4 	movhi	r3,130
  8038d0:	18efc004 	addi	r3,r3,-16640
  8038d4:	008020b4 	movhi	r2,130
  8038d8:	10afe804 	addi	r2,r2,-16480
  8038dc:	1080808b 	ldhu	r2,514(r2)
  8038e0:	1087000c 	andi	r2,r2,7168
  8038e4:	1005d2ba 	srai	r2,r2,10
  8038e8:	18801745 	stb	r2,93(r3)
	p1_ship.c7_hookedup_to = 	(packets[257] & 0x0380) >> 7;
  8038ec:	00c020b4 	movhi	r3,130
  8038f0:	18efc004 	addi	r3,r3,-16640
  8038f4:	008020b4 	movhi	r2,130
  8038f8:	10afe804 	addi	r2,r2,-16480
  8038fc:	1080808b 	ldhu	r2,514(r2)
  803900:	1080e00c 	andi	r2,r2,896
  803904:	1005d1fa 	srai	r2,r2,7
  803908:	18801785 	stb	r2,94(r3)
	p1_ship.c8_hookedup_to = 	(packets[257] & 0x0070) >> 4;
  80390c:	00c020b4 	movhi	r3,130
  803910:	18efc004 	addi	r3,r3,-16640
  803914:	008020b4 	movhi	r2,130
  803918:	10afe804 	addi	r2,r2,-16480
  80391c:	1080808b 	ldhu	r2,514(r2)
  803920:	10801c0c 	andi	r2,r2,112
  803924:	1005d13a 	srai	r2,r2,4
  803928:	188017c5 	stb	r2,95(r3)
	p1_ship.engine_left_right = 	(packets[257] & 0x000C) >> 2;
  80392c:	00c020b4 	movhi	r3,130
  803930:	18efc004 	addi	r3,r3,-16640
  803934:	008020b4 	movhi	r2,130
  803938:	10afe804 	addi	r2,r2,-16480
  80393c:	1080808b 	ldhu	r2,514(r2)
  803940:	1080030c 	andi	r2,r2,12
  803944:	1005d0ba 	srai	r2,r2,2
  803948:	18801845 	stb	r2,97(r3)
	p1_ship.sensor_state = 	(packets[258] &	0x00C0) >> 6;
  80394c:	00c020b4 	movhi	r3,130
  803950:	18efc004 	addi	r3,r3,-16640
  803954:	008020b4 	movhi	r2,130
  803958:	10afe804 	addi	r2,r2,-16480
  80395c:	1080810b 	ldhu	r2,516(r2)
  803960:	1080300c 	andi	r2,r2,192
  803964:	1005d1ba 	srai	r2,r2,6
  803968:	18801885 	stb	r2,98(r3)
	p1_ship.sensor_move = 	(packets[258] & 0xFF00) >> 8;
  80396c:	00c020b4 	movhi	r3,130
  803970:	18efc004 	addi	r3,r3,-16640
  803974:	008020b4 	movhi	r2,130
  803978:	10afe804 	addi	r2,r2,-16480
  80397c:	1080810b 	ldhu	r2,516(r2)
  803980:	10bfc00c 	andi	r2,r2,65280
  803984:	1005d23a 	srai	r2,r2,8
  803988:	188018c5 	stb	r2,99(r3)
	p1_ship.cannon_fire = 	(packets[259] &	0x8000) >> 15;
  80398c:	00c020b4 	movhi	r3,130
  803990:	18efc004 	addi	r3,r3,-16640
  803994:	008020b4 	movhi	r2,130
  803998:	10afe804 	addi	r2,r2,-16480
  80399c:	1080818b 	ldhu	r2,518(r2)
  8039a0:	10a0000c 	andi	r2,r2,32768
  8039a4:	1005d3fa 	srai	r2,r2,15
  8039a8:	18801905 	stb	r2,100(r3)
	p1_ship.cannon_power = 	(packets[259] & 0x7FC0) >> 5;
  8039ac:	00c020b4 	movhi	r3,130
  8039b0:	18efc004 	addi	r3,r3,-16640
  8039b4:	008020b4 	movhi	r2,130
  8039b8:	10afe804 	addi	r2,r2,-16480
  8039bc:	1080818b 	ldhu	r2,518(r2)
  8039c0:	109ff00c 	andi	r2,r2,32704
  8039c4:	1005d17a 	srai	r2,r2,5
  8039c8:	1880198d 	sth	r2,102(r3)
	p1_ship.checksum =		packets[260];
  8039cc:	00c020b4 	movhi	r3,130
  8039d0:	18efc004 	addi	r3,r3,-16640
  8039d4:	008020b4 	movhi	r2,130
  8039d8:	10afe804 	addi	r2,r2,-16480
  8039dc:	1080820b 	ldhu	r2,520(r2)
  8039e0:	18801a0d 	sth	r2,104(r3)

	/* player 2 */
	p2_ship.cA_hookedup_to = 	(packets[320] & 0xE000) >> 13;
  8039e4:	00c020b4 	movhi	r3,130
  8039e8:	18f0e804 	addi	r3,r3,-15456
  8039ec:	008020b4 	movhi	r2,130
  8039f0:	10afe804 	addi	r2,r2,-16480
  8039f4:	1080a00b 	ldhu	r2,640(r2)
  8039f8:	10b8000c 	andi	r2,r2,57344
  8039fc:	1005d37a 	srai	r2,r2,13
  803a00:	18801605 	stb	r2,88(r3)
	p2_ship.c2_hookedup_to = 	(packets[320] & 0x1C00) >> 10;
  803a04:	00c020b4 	movhi	r3,130
  803a08:	18f0e804 	addi	r3,r3,-15456
  803a0c:	008020b4 	movhi	r2,130
  803a10:	10afe804 	addi	r2,r2,-16480
  803a14:	1080a00b 	ldhu	r2,640(r2)
  803a18:	1087000c 	andi	r2,r2,7168
  803a1c:	1005d2ba 	srai	r2,r2,10
  803a20:	18801645 	stb	r2,89(r3)
	p2_ship.c3_hookedup_to = 	(packets[320] & 0x0380) >> 7;
  803a24:	00c020b4 	movhi	r3,130
  803a28:	18f0e804 	addi	r3,r3,-15456
  803a2c:	008020b4 	movhi	r2,130
  803a30:	10afe804 	addi	r2,r2,-16480
  803a34:	1080a00b 	ldhu	r2,640(r2)
  803a38:	1080e00c 	andi	r2,r2,896
  803a3c:	1005d1fa 	srai	r2,r2,7
  803a40:	18801685 	stb	r2,90(r3)
	p2_ship.c4_hookedup_to = 	(packets[320] & 0x0070) >> 4;
  803a44:	00c020b4 	movhi	r3,130
  803a48:	18f0e804 	addi	r3,r3,-15456
  803a4c:	008020b4 	movhi	r2,130
  803a50:	10afe804 	addi	r2,r2,-16480
  803a54:	1080a00b 	ldhu	r2,640(r2)
  803a58:	10801c0c 	andi	r2,r2,112
  803a5c:	1005d13a 	srai	r2,r2,4
  803a60:	188016c5 	stb	r2,91(r3)
	p2_ship.engine = 	(packets[320] & 0x0008) >> 3;
  803a64:	00c020b4 	movhi	r3,130
  803a68:	18f0e804 	addi	r3,r3,-15456
  803a6c:	008020b4 	movhi	r2,130
  803a70:	10afe804 	addi	r2,r2,-16480
  803a74:	1080a00b 	ldhu	r2,640(r2)
  803a78:	1080020c 	andi	r2,r2,8
  803a7c:	1005d0fa 	srai	r2,r2,3
  803a80:	18801805 	stb	r2,96(r3)
	p2_ship.c5_hookedup_to = 	(packets[321] & 0xE000) >> 13;
  803a84:	00c020b4 	movhi	r3,130
  803a88:	18f0e804 	addi	r3,r3,-15456
  803a8c:	008020b4 	movhi	r2,130
  803a90:	10afe804 	addi	r2,r2,-16480
  803a94:	1080a08b 	ldhu	r2,642(r2)
  803a98:	10b8000c 	andi	r2,r2,57344
  803a9c:	1005d37a 	srai	r2,r2,13
  803aa0:	18801705 	stb	r2,92(r3)
	p2_ship.c6_hookedup_to = 	(packets[321] & 0x1C00) >> 10;
  803aa4:	00c020b4 	movhi	r3,130
  803aa8:	18f0e804 	addi	r3,r3,-15456
  803aac:	008020b4 	movhi	r2,130
  803ab0:	10afe804 	addi	r2,r2,-16480
  803ab4:	1080a08b 	ldhu	r2,642(r2)
  803ab8:	1087000c 	andi	r2,r2,7168
  803abc:	1005d2ba 	srai	r2,r2,10
  803ac0:	18801745 	stb	r2,93(r3)
	p2_ship.c7_hookedup_to = 	(packets[321] & 0x0380) >> 7;
  803ac4:	00c020b4 	movhi	r3,130
  803ac8:	18f0e804 	addi	r3,r3,-15456
  803acc:	008020b4 	movhi	r2,130
  803ad0:	10afe804 	addi	r2,r2,-16480
  803ad4:	1080a08b 	ldhu	r2,642(r2)
  803ad8:	1080e00c 	andi	r2,r2,896
  803adc:	1005d1fa 	srai	r2,r2,7
  803ae0:	18801785 	stb	r2,94(r3)
	p2_ship.c8_hookedup_to = 	(packets[321] & 0x0070) >> 4;
  803ae4:	00c020b4 	movhi	r3,130
  803ae8:	18f0e804 	addi	r3,r3,-15456
  803aec:	008020b4 	movhi	r2,130
  803af0:	10afe804 	addi	r2,r2,-16480
  803af4:	1080a08b 	ldhu	r2,642(r2)
  803af8:	10801c0c 	andi	r2,r2,112
  803afc:	1005d13a 	srai	r2,r2,4
  803b00:	188017c5 	stb	r2,95(r3)
	p2_ship.engine_left_right = 	(packets[321] & 0x000C) >> 2;
  803b04:	00c020b4 	movhi	r3,130
  803b08:	18f0e804 	addi	r3,r3,-15456
  803b0c:	008020b4 	movhi	r2,130
  803b10:	10afe804 	addi	r2,r2,-16480
  803b14:	1080a08b 	ldhu	r2,642(r2)
  803b18:	1080030c 	andi	r2,r2,12
  803b1c:	1005d0ba 	srai	r2,r2,2
  803b20:	18801845 	stb	r2,97(r3)
	p2_ship.sensor_state = 	(packets[322] &	0x00C0) >> 6;
  803b24:	00c020b4 	movhi	r3,130
  803b28:	18f0e804 	addi	r3,r3,-15456
  803b2c:	008020b4 	movhi	r2,130
  803b30:	10afe804 	addi	r2,r2,-16480
  803b34:	1080a10b 	ldhu	r2,644(r2)
  803b38:	1080300c 	andi	r2,r2,192
  803b3c:	1005d1ba 	srai	r2,r2,6
  803b40:	18801885 	stb	r2,98(r3)
	p2_ship.sensor_move = 	(packets[322] & 0xFF00) >> 8;
  803b44:	00c020b4 	movhi	r3,130
  803b48:	18f0e804 	addi	r3,r3,-15456
  803b4c:	008020b4 	movhi	r2,130
  803b50:	10afe804 	addi	r2,r2,-16480
  803b54:	1080a10b 	ldhu	r2,644(r2)
  803b58:	10bfc00c 	andi	r2,r2,65280
  803b5c:	1005d23a 	srai	r2,r2,8
  803b60:	188018c5 	stb	r2,99(r3)
	p2_ship.cannon_fire = 	(packets[323] &	0x8000) >> 15;
  803b64:	00c020b4 	movhi	r3,130
  803b68:	18f0e804 	addi	r3,r3,-15456
  803b6c:	008020b4 	movhi	r2,130
  803b70:	10afe804 	addi	r2,r2,-16480
  803b74:	1080a18b 	ldhu	r2,646(r2)
  803b78:	10a0000c 	andi	r2,r2,32768
  803b7c:	1005d3fa 	srai	r2,r2,15
  803b80:	18801905 	stb	r2,100(r3)
	p2_ship.cannon_power = 	(packets[323] & 0x7FC0) >> 5;
  803b84:	00c020b4 	movhi	r3,130
  803b88:	18f0e804 	addi	r3,r3,-15456
  803b8c:	008020b4 	movhi	r2,130
  803b90:	10afe804 	addi	r2,r2,-16480
  803b94:	1080a18b 	ldhu	r2,646(r2)
  803b98:	109ff00c 	andi	r2,r2,32704
  803b9c:	1005d17a 	srai	r2,r2,5
  803ba0:	1880198d 	sth	r2,102(r3)
	p2_ship.checksum =		packets[324];
  803ba4:	00c020b4 	movhi	r3,130
  803ba8:	18f0e804 	addi	r3,r3,-15456
  803bac:	008020b4 	movhi	r2,130
  803bb0:	10afe804 	addi	r2,r2,-16480
  803bb4:	1080a20b 	ldhu	r2,648(r2)
  803bb8:	18801a0d 	sth	r2,104(r3)

	/* now send the packets of the ship back */
	for (i = 0; i < 256; i++)
  803bbc:	e03fff15 	stw	zero,-4(fp)
  803bc0:	e0bfff17 	ldw	r2,-4(fp)
  803bc4:	10804008 	cmpgei	r2,r2,256
  803bc8:	1000201e 	bne	r2,zero,803c4c <get_player_info+0x540>
	{
		/* send the word */
		output_packet_reg = packets[i]; 
  803bcc:	010020b4 	movhi	r4,130
  803bd0:	212fe804 	addi	r4,r4,-16480
  803bd4:	e0ffff17 	ldw	r3,-4(fp)
  803bd8:	1805883a 	mov	r2,r3
  803bdc:	10c5883a 	add	r2,r2,r3
  803be0:	1105883a 	add	r2,r2,r4
  803be4:	1080000b 	ldhu	r2,0(r2)
  803be8:	d0a02615 	stw	r2,-32616(gp)
		IOWR_ALTERA_AVALON_PIO_DATA(OUTPUT_PACKET_BASE, output_packet_reg);
  803bec:	00c04434 	movhi	r3,272
  803bf0:	18c40804 	addi	r3,r3,4128
  803bf4:	d0a02617 	ldw	r2,-32616(gp)
  803bf8:	18800035 	stwio	r2,0(r3)
		/* send the next bit send ready on idx 29 */
		mask = 1 << 29; 
  803bfc:	00880034 	movhi	r2,8192
  803c00:	10800004 	addi	r2,r2,0
  803c04:	e0bffe15 	stw	r2,-8(fp)
		output_packet_reg = output_packet_reg | mask;
  803c08:	d0e02617 	ldw	r3,-32616(gp)
  803c0c:	e0bffe17 	ldw	r2,-8(fp)
  803c10:	1884b03a 	or	r2,r3,r2
  803c14:	d0a02615 	stw	r2,-32616(gp)
		IOWR_ALTERA_AVALON_PIO_DATA(OUTPUT_PACKET_BASE, output_packet_reg);
  803c18:	00c04434 	movhi	r3,272
  803c1c:	18c40804 	addi	r3,r3,4128
  803c20:	d0a02617 	ldw	r2,-32616(gp)
  803c24:	18800035 	stwio	r2,0(r3)
		/* turn off - assumes NIOS slower than design ... might throw delay */
		output_packet_reg = 0;
  803c28:	d0202615 	stw	zero,-32616(gp)
		IOWR_ALTERA_AVALON_PIO_DATA(OUTPUT_PACKET_BASE, output_packet_reg);
  803c2c:	00c04434 	movhi	r3,272
  803c30:	18c40804 	addi	r3,r3,4128
  803c34:	d0a02617 	ldw	r2,-32616(gp)
  803c38:	18800035 	stwio	r2,0(r3)
  803c3c:	e0bfff17 	ldw	r2,-4(fp)
  803c40:	10800044 	addi	r2,r2,1
  803c44:	e0bfff15 	stw	r2,-4(fp)
  803c48:	003fdd06 	br	803bc0 <get_player_info+0x4b4>
	}

	/* send all sends there */
	mask = 1 << 28; 
  803c4c:	00840034 	movhi	r2,4096
  803c50:	10800004 	addi	r2,r2,0
  803c54:	e0bffe15 	stw	r2,-8(fp)
	output_packet_reg = mask;
  803c58:	e0bffe17 	ldw	r2,-8(fp)
  803c5c:	d0a02615 	stw	r2,-32616(gp)
	IOWR_ALTERA_AVALON_PIO_DATA(OUTPUT_PACKET_BASE, output_packet_reg);
  803c60:	00c04434 	movhi	r3,272
  803c64:	18c40804 	addi	r3,r3,4128
  803c68:	d0a02617 	ldw	r2,-32616(gp)
  803c6c:	18800035 	stwio	r2,0(r3)
}
  803c70:	df000317 	ldw	fp,12(sp)
  803c74:	dec00404 	addi	sp,sp,16
  803c78:	f800283a 	ret

00803c7c <init_packet_interrupt_isr>:

/*---------------------------------------------------------------------------------------------
 * init_packet_interrupt_isr
 *-------------------------------------------------------------------------------------------*/
void init_packet_interrupt_isr()
{
  803c7c:	defffd04 	addi	sp,sp,-12
  803c80:	dfc00215 	stw	ra,8(sp)
  803c84:	df000115 	stw	fp,4(sp)
  803c88:	df000104 	addi	fp,sp,4
	void* p_edge_capture_ptr = (void*) &p_edge_capture;
  803c8c:	d0a02104 	addi	r2,gp,-32636
  803c90:	e0bfff15 	stw	r2,-4(fp)
	/* Enable all 4 button interrupts. */
	IOWR_ALTERA_AVALON_PIO_IRQ_MASK(PUSH_BUTTONS_BASE, 0xf);
  803c94:	00c04434 	movhi	r3,272
  803c98:	18c41e04 	addi	r3,r3,4216
  803c9c:	008003c4 	movi	r2,15
  803ca0:	18800035 	stwio	r2,0(r3)
	/* Reset the edge capture register. */
	IOWR_ALTERA_AVALON_PIO_EDGE_CAP(PUSH_BUTTONS_BASE, 0xf); // needs to be high for all four buttons since the push button is high
  803ca4:	00c04434 	movhi	r3,272
  803ca8:	18c41f04 	addi	r3,r3,4220
  803cac:	008003c4 	movi	r2,15
  803cb0:	18800035 	stwio	r2,0(r3)

	/*
	 * Register the interrupt handler.
	 * Provision is made here for systems that might have either the
	 * legacy or enhanced interrupt API active, or for the Nios II IDE
	 * which does not support enhanced interrupts. For systems created using
	 * the Nios II softawre build tools, the enhanced API is recommended
	 * for new designs.
	 */
#ifdef ALT_ENHANCED_INTERRUPT_API_PRESENT
	alt_ic_isr_register(PUSH_BUTTONS_IRQ_INTERRUPT_CONTROLLER_ID,PUSH_BUTTONS_IRQ, timer_packet_interrupt_isr, p_edge_capture_ptr, 0x0);
#else
	alt_irq_register( PUSH_BUTTONS_IRQ, p_edge_capture_ptr, timer_packet_interrupt_isr);
  803cb4:	01000044 	movi	r4,1
  803cb8:	e17fff17 	ldw	r5,-4(fp)
  803cbc:	01802034 	movhi	r6,128
  803cc0:	318da304 	addi	r6,r6,13964
  803cc4:	08149f80 	call	8149f8 <alt_irq_register>
#endif
}
  803cc8:	dfc00217 	ldw	ra,8(sp)
  803ccc:	df000117 	ldw	fp,4(sp)
  803cd0:	dec00304 	addi	sp,sp,12
  803cd4:	f800283a 	ret

00803cd8 <disable_packet_interrupt>:

/*---------------------------------------------------------------------------------------------
 * disable_packet_interrupt
 *-------------------------------------------------------------------------------------------*/
void disable_packet_interrupt()
{
  803cd8:	defffe04 	addi	sp,sp,-8
  803cdc:	dfc00115 	stw	ra,4(sp)
  803ce0:	df000015 	stw	fp,0(sp)
  803ce4:	d839883a 	mov	fp,sp
	/* Disable interrupts from the button_pio PIO component. */
	IOWR_ALTERA_AVALON_PIO_IRQ_MASK(PUSH_BUTTONS_BASE, 0x0);
  803ce8:	00804434 	movhi	r2,272
  803cec:	10841e04 	addi	r2,r2,4216
  803cf0:	10000035 	stwio	zero,0(r2)
	/* Un-register the IRQ handler by passing a null handler. */
#ifdef ALT_ENHANCED_INTERRUPT_API_PRESENT
	alt_ic_isr_register(PUSH_BUTTONS_IRQ_INTERRUPT_CONTROLLER_ID, BUTTON_PIO_IRQ, NULL, NULL, NULL);
#else
	alt_irq_register( PUSH_BUTTONS_IRQ, NULL, NULL );
  803cf4:	01000044 	movi	r4,1
  803cf8:	000b883a 	mov	r5,zero
  803cfc:	000d883a 	mov	r6,zero
  803d00:	08149f80 	call	8149f8 <alt_irq_register>
#endif
}
  803d04:	dfc00117 	ldw	ra,4(sp)
  803d08:	df000017 	ldw	fp,0(sp)
  803d0c:	dec00204 	addi	sp,sp,8
  803d10:	f800283a 	ret

00803d14 <update_packets_to_send_back>:
/*---------------------------------------------------------------------------------------------
 * update_packets_to_send_back
 *-------------------------------------------------------------------------------------------*/
void update_packets_to_send_back(ship_t *ship, int address_start)
{
  803d14:	defffb04 	addi	sp,sp,-20
  803d18:	dfc00415 	stw	ra,16(sp)
  803d1c:	df000315 	stw	fp,12(sp)
  803d20:	dc000215 	stw	r16,8(sp)
  803d24:	df000304 	addi	fp,sp,12
  803d28:	e13ffd15 	stw	r4,-12(fp)
  803d2c:	e17ffe15 	stw	r5,-8(fp)
	packets[address_start+0] = 	((ship->A_E_val << 12) & 0xF000) | 
  803d30:	010020b4 	movhi	r4,130
  803d34:	212fe804 	addi	r4,r4,-16480
  803d38:	e0fffe17 	ldw	r3,-8(fp)
  803d3c:	1805883a 	mov	r2,r3
  803d40:	10c5883a 	add	r2,r2,r3
  803d44:	1109883a 	add	r4,r2,r4
  803d48:	e0bffd17 	ldw	r2,-12(fp)
  803d4c:	108020c3 	ldbu	r2,131(r2)
  803d50:	1004933a 	slli	r2,r2,12
  803d54:	00fc0004 	movi	r3,-4096
  803d58:	1886703a 	and	r3,r3,r2
  803d5c:	e0bffd17 	ldw	r2,-12(fp)
  803d60:	10802083 	ldbu	r2,130(r2)
  803d64:	1004923a 	slli	r2,r2,8
  803d68:	1083c00c 	andi	r2,r2,3840
  803d6c:	1886b03a 	or	r3,r3,r2
  803d70:	e0bffd17 	ldw	r2,-12(fp)
  803d74:	10802043 	ldbu	r2,129(r2)
  803d78:	1004913a 	slli	r2,r2,4
  803d7c:	10803c0c 	andi	r2,r2,240
  803d80:	1886b03a 	or	r3,r3,r2
  803d84:	e0bffd17 	ldw	r2,-12(fp)
  803d88:	10802003 	ldbu	r2,128(r2)
  803d8c:	108003cc 	andi	r2,r2,15
  803d90:	1884b03a 	or	r2,r3,r2
  803d94:	2080000d 	sth	r2,0(r4)
					((ship->A_D_val << 8) &  0x0F00) |
					((ship->A_C_val << 4) &  0x00F0) |
					((ship->A_B_val) 	&  0x000F);
	packets[address_start+1] = 	((ship->B_C_val << 12) & 0xF000) | 
  803d98:	010020b4 	movhi	r4,130
  803d9c:	212fe804 	addi	r4,r4,-16480
  803da0:	e0fffe17 	ldw	r3,-8(fp)
  803da4:	1805883a 	mov	r2,r3
  803da8:	10c5883a 	add	r2,r2,r3
  803dac:	1105883a 	add	r2,r2,r4
  803db0:	11000084 	addi	r4,r2,2
  803db4:	e0bffd17 	ldw	r2,-12(fp)
  803db8:	108021c3 	ldbu	r2,135(r2)
  803dbc:	1004933a 	slli	r2,r2,12
  803dc0:	00fc0004 	movi	r3,-4096
  803dc4:	1886703a 	and	r3,r3,r2
  803dc8:	e0bffd17 	ldw	r2,-12(fp)
  803dcc:	10802183 	ldbu	r2,134(r2)
  803dd0:	1004923a 	slli	r2,r2,8
  803dd4:	1083c00c 	andi	r2,r2,3840
  803dd8:	1886b03a 	or	r3,r3,r2
  803ddc:	e0bffd17 	ldw	r2,-12(fp)
  803de0:	10802143 	ldbu	r2,133(r2)
  803de4:	1004913a 	slli	r2,r2,4
  803de8:	10803c0c 	andi	r2,r2,240
  803dec:	1886b03a 	or	r3,r3,r2
  803df0:	e0bffd17 	ldw	r2,-12(fp)
  803df4:	10802103 	ldbu	r2,132(r2)
  803df8:	108003cc 	andi	r2,r2,15
  803dfc:	1884b03a 	or	r2,r3,r2
  803e00:	2080000d 	sth	r2,0(r4)
					((ship->A_H_val << 8) &  0x0F00) |
					((ship->A_G_val << 4) &  0x00F0) |
					((ship->A_F_val) 	&  0x000F);
	packets[address_start+2] = 	((ship->B_G_val << 12) & 0xF000) | 
  803e04:	010020b4 	movhi	r4,130
  803e08:	212fe804 	addi	r4,r4,-16480
  803e0c:	e0fffe17 	ldw	r3,-8(fp)
  803e10:	1805883a 	mov	r2,r3
  803e14:	10c5883a 	add	r2,r2,r3
  803e18:	1105883a 	add	r2,r2,r4
  803e1c:	11000104 	addi	r4,r2,4
  803e20:	e0bffd17 	ldw	r2,-12(fp)
  803e24:	108022c3 	ldbu	r2,139(r2)
  803e28:	1004933a 	slli	r2,r2,12
  803e2c:	00fc0004 	movi	r3,-4096
  803e30:	1886703a 	and	r3,r3,r2
  803e34:	e0bffd17 	ldw	r2,-12(fp)
  803e38:	10802283 	ldbu	r2,138(r2)
  803e3c:	1004923a 	slli	r2,r2,8
  803e40:	1083c00c 	andi	r2,r2,3840
  803e44:	1886b03a 	or	r3,r3,r2
  803e48:	e0bffd17 	ldw	r2,-12(fp)
  803e4c:	10802243 	ldbu	r2,137(r2)
  803e50:	1004913a 	slli	r2,r2,4
  803e54:	10803c0c 	andi	r2,r2,240
  803e58:	1886b03a 	or	r3,r3,r2
  803e5c:	e0bffd17 	ldw	r2,-12(fp)
  803e60:	10802203 	ldbu	r2,136(r2)
  803e64:	108003cc 	andi	r2,r2,15
  803e68:	1884b03a 	or	r2,r3,r2
  803e6c:	2080000d 	sth	r2,0(r4)
					((ship->B_F_val << 8) &  0x0F00) |
					((ship->B_E_val << 4) &  0x00F0) |
					((ship->B_D_val) 	&  0x000F);
	packets[address_start+3] = 	((ship->C_F_val << 12) & 0xF000) | 
  803e70:	010020b4 	movhi	r4,130
  803e74:	212fe804 	addi	r4,r4,-16480
  803e78:	e0fffe17 	ldw	r3,-8(fp)
  803e7c:	1805883a 	mov	r2,r3
  803e80:	10c5883a 	add	r2,r2,r3
  803e84:	1105883a 	add	r2,r2,r4
  803e88:	11000184 	addi	r4,r2,6
  803e8c:	e0bffd17 	ldw	r2,-12(fp)
  803e90:	108023c3 	ldbu	r2,143(r2)
  803e94:	1004933a 	slli	r2,r2,12
  803e98:	00fc0004 	movi	r3,-4096
  803e9c:	1886703a 	and	r3,r3,r2
  803ea0:	e0bffd17 	ldw	r2,-12(fp)
  803ea4:	10802383 	ldbu	r2,142(r2)
  803ea8:	1004923a 	slli	r2,r2,8
  803eac:	1083c00c 	andi	r2,r2,3840
  803eb0:	1886b03a 	or	r3,r3,r2
  803eb4:	e0bffd17 	ldw	r2,-12(fp)
  803eb8:	10802343 	ldbu	r2,141(r2)
  803ebc:	1004913a 	slli	r2,r2,4
  803ec0:	10803c0c 	andi	r2,r2,240
  803ec4:	1886b03a 	or	r3,r3,r2
  803ec8:	e0bffd17 	ldw	r2,-12(fp)
  803ecc:	10802303 	ldbu	r2,140(r2)
  803ed0:	108003cc 	andi	r2,r2,15
  803ed4:	1884b03a 	or	r2,r3,r2
  803ed8:	2080000d 	sth	r2,0(r4)
					((ship->C_E_val << 8) &  0x0F00) |
					((ship->C_D_val << 4) &  0x00F0) |
					((ship->B_H_val) 	&  0x000F);
	packets[address_start+4] = 	((ship->D_F_val << 12) & 0xF000) | 
  803edc:	010020b4 	movhi	r4,130
  803ee0:	212fe804 	addi	r4,r4,-16480
  803ee4:	e0fffe17 	ldw	r3,-8(fp)
  803ee8:	1805883a 	mov	r2,r3
  803eec:	10c5883a 	add	r2,r2,r3
  803ef0:	1105883a 	add	r2,r2,r4
  803ef4:	11000204 	addi	r4,r2,8
  803ef8:	e0bffd17 	ldw	r2,-12(fp)
  803efc:	108024c3 	ldbu	r2,147(r2)
  803f00:	1004933a 	slli	r2,r2,12
  803f04:	00fc0004 	movi	r3,-4096
  803f08:	1886703a 	and	r3,r3,r2
  803f0c:	e0bffd17 	ldw	r2,-12(fp)
  803f10:	10802483 	ldbu	r2,146(r2)
  803f14:	1004923a 	slli	r2,r2,8
  803f18:	1083c00c 	andi	r2,r2,3840
  803f1c:	1886b03a 	or	r3,r3,r2
  803f20:	e0bffd17 	ldw	r2,-12(fp)
  803f24:	10802443 	ldbu	r2,145(r2)
  803f28:	1004913a 	slli	r2,r2,4
  803f2c:	10803c0c 	andi	r2,r2,240
  803f30:	1886b03a 	or	r3,r3,r2
  803f34:	e0bffd17 	ldw	r2,-12(fp)
  803f38:	10802403 	ldbu	r2,144(r2)
  803f3c:	108003cc 	andi	r2,r2,15
  803f40:	1884b03a 	or	r2,r3,r2
  803f44:	2080000d 	sth	r2,0(r4)
					((ship->D_E_val << 8) &  0x0F00) |
					((ship->C_H_val << 4) &  0x00F0) |
					((ship->C_G_val) 	&  0x000F);
	packets[address_start+5] = 	((ship->E_G_val << 12) & 0xF000) | 
  803f48:	010020b4 	movhi	r4,130
  803f4c:	212fe804 	addi	r4,r4,-16480
  803f50:	e0fffe17 	ldw	r3,-8(fp)
  803f54:	1805883a 	mov	r2,r3
  803f58:	10c5883a 	add	r2,r2,r3
  803f5c:	1105883a 	add	r2,r2,r4
  803f60:	11000284 	addi	r4,r2,10
  803f64:	e0bffd17 	ldw	r2,-12(fp)
  803f68:	108025c3 	ldbu	r2,151(r2)
  803f6c:	1004933a 	slli	r2,r2,12
  803f70:	00fc0004 	movi	r3,-4096
  803f74:	1886703a 	and	r3,r3,r2
  803f78:	e0bffd17 	ldw	r2,-12(fp)
  803f7c:	10802583 	ldbu	r2,150(r2)
  803f80:	1004923a 	slli	r2,r2,8
  803f84:	1083c00c 	andi	r2,r2,3840
  803f88:	1886b03a 	or	r3,r3,r2
  803f8c:	e0bffd17 	ldw	r2,-12(fp)
  803f90:	10802543 	ldbu	r2,149(r2)
  803f94:	1004913a 	slli	r2,r2,4
  803f98:	10803c0c 	andi	r2,r2,240
  803f9c:	1886b03a 	or	r3,r3,r2
  803fa0:	e0bffd17 	ldw	r2,-12(fp)
  803fa4:	10802503 	ldbu	r2,148(r2)
  803fa8:	108003cc 	andi	r2,r2,15
  803fac:	1884b03a 	or	r2,r3,r2
  803fb0:	2080000d 	sth	r2,0(r4)
					((ship->E_F_val << 8) &  0x0F00) |
					((ship->D_H_val << 4) &  0x00F0) |
					((ship->D_G_val) 	&  0x000F);
	packets[address_start+6] = 	((ship->G_H_val << 12) & 0xF000) | 
  803fb4:	010020b4 	movhi	r4,130
  803fb8:	212fe804 	addi	r4,r4,-16480
  803fbc:	e0fffe17 	ldw	r3,-8(fp)
  803fc0:	1805883a 	mov	r2,r3
  803fc4:	10c5883a 	add	r2,r2,r3
  803fc8:	1105883a 	add	r2,r2,r4
  803fcc:	11000304 	addi	r4,r2,12
  803fd0:	e0bffd17 	ldw	r2,-12(fp)
  803fd4:	108026c3 	ldbu	r2,155(r2)
  803fd8:	1004933a 	slli	r2,r2,12
  803fdc:	00fc0004 	movi	r3,-4096
  803fe0:	1886703a 	and	r3,r3,r2
  803fe4:	e0bffd17 	ldw	r2,-12(fp)
  803fe8:	10802683 	ldbu	r2,154(r2)
  803fec:	1004923a 	slli	r2,r2,8
  803ff0:	1083c00c 	andi	r2,r2,3840
  803ff4:	1886b03a 	or	r3,r3,r2
  803ff8:	e0bffd17 	ldw	r2,-12(fp)
  803ffc:	10802643 	ldbu	r2,153(r2)
  804000:	1004913a 	slli	r2,r2,4
  804004:	10803c0c 	andi	r2,r2,240
  804008:	1886b03a 	or	r3,r3,r2
  80400c:	e0bffd17 	ldw	r2,-12(fp)
  804010:	10802603 	ldbu	r2,152(r2)
  804014:	108003cc 	andi	r2,r2,15
  804018:	1884b03a 	or	r2,r3,r2
  80401c:	2080000d 	sth	r2,0(r4)
					((ship->F_H_val << 8) &  0x0F00) |
					((ship->F_G_val << 4) &  0x00F0) |
					((ship->E_H_val) 	&  0x000F);
	packets[address_start+7] = 	ship->sensor_detected_something;
  804020:	010020b4 	movhi	r4,130
  804024:	212fe804 	addi	r4,r4,-16480
  804028:	e0fffe17 	ldw	r3,-8(fp)
  80402c:	1805883a 	mov	r2,r3
  804030:	10c5883a 	add	r2,r2,r3
  804034:	1105883a 	add	r2,r2,r4
  804038:	10c00384 	addi	r3,r2,14
  80403c:	e0bffd17 	ldw	r2,-12(fp)
  804040:	10802703 	ldbu	r2,156(r2)
  804044:	1880000d 	sth	r2,0(r3)
	packets[address_start+8] = 	roundf(ship->x);
  804048:	010020b4 	movhi	r4,130
  80404c:	212fe804 	addi	r4,r4,-16480
  804050:	e0fffe17 	ldw	r3,-8(fp)
  804054:	1805883a 	mov	r2,r3
  804058:	10c5883a 	add	r2,r2,r3
  80405c:	1105883a 	add	r2,r2,r4
  804060:	14000404 	addi	r16,r2,16
  804064:	e0bffd17 	ldw	r2,-12(fp)
  804068:	11000a17 	ldw	r4,40(r2)
  80406c:	0807cfc0 	call	807cfc <roundf>
  804070:	1009883a 	mov	r4,r2
  804074:	080a3980 	call	80a398 <__fixunssfsi>
  804078:	8080000d 	sth	r2,0(r16)
	packets[address_start+9] = 	roundf(ship->y);
  80407c:	010020b4 	movhi	r4,130
  804080:	212fe804 	addi	r4,r4,-16480
  804084:	e0fffe17 	ldw	r3,-8(fp)
  804088:	1805883a 	mov	r2,r3
  80408c:	10c5883a 	add	r2,r2,r3
  804090:	1105883a 	add	r2,r2,r4
  804094:	14000484 	addi	r16,r2,18
  804098:	e0bffd17 	ldw	r2,-12(fp)
  80409c:	11000b17 	ldw	r4,44(r2)
  8040a0:	0807cfc0 	call	807cfc <roundf>
  8040a4:	1009883a 	mov	r4,r2
  8040a8:	080a3980 	call	80a398 <__fixunssfsi>
  8040ac:	8080000d 	sth	r2,0(r16)
	packets[address_start+10] = 	ship->rx_checksum;
  8040b0:	010020b4 	movhi	r4,130
  8040b4:	212fe804 	addi	r4,r4,-16480
  8040b8:	e0fffe17 	ldw	r3,-8(fp)
  8040bc:	1805883a 	mov	r2,r3
  8040c0:	10c5883a 	add	r2,r2,r3
  8040c4:	1105883a 	add	r2,r2,r4
  8040c8:	10c00504 	addi	r3,r2,20
  8040cc:	e0bffd17 	ldw	r2,-12(fp)
  8040d0:	1080278b 	ldhu	r2,158(r2)
  8040d4:	1880000d 	sth	r2,0(r3)
}
  8040d8:	dfc00417 	ldw	ra,16(sp)
  8040dc:	df000317 	ldw	fp,12(sp)
  8040e0:	dc000217 	ldw	r16,8(sp)
  8040e4:	dec00504 	addi	sp,sp,20
  8040e8:	f800283a 	ret

008040ec <game_loop>:
/*---------------------------------------------------------------------------------------------
 * (function: game_loop)
 *-------------------------------------------------------------------------------------------*/
short game_loop(int data_update, int second, int partial_second, short first_run)
{
  8040ec:	deffe104 	addi	sp,sp,-124
  8040f0:	dfc01e15 	stw	ra,120(sp)
  8040f4:	df001d15 	stw	fp,116(sp)
  8040f8:	dc001c15 	stw	r16,112(sp)
  8040fc:	dc401b15 	stw	r17,108(sp)
  804100:	df001d04 	addi	fp,sp,116
  804104:	e13fe615 	stw	r4,-104(fp)
  804108:	e17fe715 	stw	r5,-100(fp)
  80410c:	e1bfe815 	stw	r6,-96(fp)
  804110:	e1ffe90d 	sth	r7,-92(fp)
	int i;
	ship_t *ship;
	vector_t new_velocity;
	short hit;
	int x;
	int y;
	int angle;

	/* record anything that might be changed and needs refreshing */
	p1_ship.power_budget_this_minute_old = p1_ship.power_budget_this_minute;
  804114:	00c020b4 	movhi	r3,130
  804118:	18efc004 	addi	r3,r3,-16640
  80411c:	008020b4 	movhi	r2,130
  804120:	10afc004 	addi	r2,r2,-16640
  804124:	10801b17 	ldw	r2,108(r2)
  804128:	18801c15 	stw	r2,112(r3)
	p2_ship.power_budget_this_minute_old = p2_ship.power_budget_this_minute;
  80412c:	00c020b4 	movhi	r3,130
  804130:	18f0e804 	addi	r3,r3,-15456
  804134:	008020b4 	movhi	r2,130
  804138:	10b0e804 	addi	r2,r2,-15456
  80413c:	10801b17 	ldw	r2,108(r2)
  804140:	18801c15 	stw	r2,112(r3)

	if (second == -1)
  804144:	e0bfe717 	ldw	r2,-100(fp)
  804148:	10bfffd8 	cmpnei	r2,r2,-1
  80414c:	1000031e 	bne	r2,zero,80415c <game_loop+0x70>
	{
		/* waiting for game to start - will happen after messages sent */
		return LIVE;
  804150:	008000c4 	movi	r2,3
  804154:	e0bff715 	stw	r2,-36(fp)
  804158:	00036306 	br	804ee8 <game_loop+0xdfc>
	}
	/* check for energy stall, power levels, and game_over */
	else if (second == 0)
  80415c:	e0bfe717 	ldw	r2,-100(fp)
  804160:	1004c03a 	cmpne	r2,r2,zero
  804164:	1000561e 	bne	r2,zero,8042c0 <game_loop+0x1d4>
	{
		/* new minute */
		p1_ship.power_budget_this_minute = power_calculation(&p1_ship);
  804168:	040020b4 	movhi	r16,130
  80416c:	842fc004 	addi	r16,r16,-16640
  804170:	010020b4 	movhi	r4,130
  804174:	212fc004 	addi	r4,r4,-16640
  804178:	080693c0 	call	80693c <power_calculation>
  80417c:	80801b15 	stw	r2,108(r16)
		if (p1_ship.power_budget_this_minute > BASIC_POWER_COST)
  804180:	008020b4 	movhi	r2,130
  804184:	10afc004 	addi	r2,r2,-16640
  804188:	10801b17 	ldw	r2,108(r2)
  80418c:	108002d0 	cmplti	r2,r2,11
  804190:	1000071e 	bne	r2,zero,8041b0 <game_loop+0xc4>
		{
			p1_ship.stalled = FALSE;
  804194:	008020b4 	movhi	r2,130
  804198:	10afc004 	addi	r2,r2,-16640
  80419c:	10001e0d 	sth	zero,120(r2)
			p1_ship.stalled_for_minutes = 0;
  8041a0:	008020b4 	movhi	r2,130
  8041a4:	10afc004 	addi	r2,r2,-16640
  8041a8:	10001e8d 	sth	zero,122(r2)
  8041ac:	00000b06 	br	8041dc <game_loop+0xf0>
		}
		else
		{
			p1_ship.stalled = TRUE;
  8041b0:	00c020b4 	movhi	r3,130
  8041b4:	18efc004 	addi	r3,r3,-16640
  8041b8:	00800044 	movi	r2,1
  8041bc:	18801e0d 	sth	r2,120(r3)
			p1_ship.stalled_for_minutes ++;
  8041c0:	00c020b4 	movhi	r3,130
  8041c4:	18efc004 	addi	r3,r3,-16640
  8041c8:	008020b4 	movhi	r2,130
  8041cc:	10afc004 	addi	r2,r2,-16640
  8041d0:	10801e8b 	ldhu	r2,122(r2)
  8041d4:	10800044 	addi	r2,r2,1
  8041d8:	18801e8d 	sth	r2,122(r3)
		}

		p2_ship.power_budget_this_minute = power_calculation(&p2_ship);
  8041dc:	040020b4 	movhi	r16,130
  8041e0:	8430e804 	addi	r16,r16,-15456
  8041e4:	010020b4 	movhi	r4,130
  8041e8:	2130e804 	addi	r4,r4,-15456
  8041ec:	080693c0 	call	80693c <power_calculation>
  8041f0:	80801b15 	stw	r2,108(r16)
		if (p2_ship.power_budget_this_minute > BASIC_POWER_COST)
  8041f4:	008020b4 	movhi	r2,130
  8041f8:	10b0e804 	addi	r2,r2,-15456
  8041fc:	10801b17 	ldw	r2,108(r2)
  804200:	108002d0 	cmplti	r2,r2,11
  804204:	1000071e 	bne	r2,zero,804224 <game_loop+0x138>
		{
			p2_ship.stalled = FALSE;
  804208:	008020b4 	movhi	r2,130
  80420c:	10b0e804 	addi	r2,r2,-15456
  804210:	10001e0d 	sth	zero,120(r2)
			p2_ship.stalled_for_minutes = 0;
  804214:	008020b4 	movhi	r2,130
  804218:	10b0e804 	addi	r2,r2,-15456
  80421c:	10001e8d 	sth	zero,122(r2)
  804220:	00000b06 	br	804250 <game_loop+0x164>
		}
		else
		{
			p2_ship.stalled = TRUE;
  804224:	00c020b4 	movhi	r3,130
  804228:	18f0e804 	addi	r3,r3,-15456
  80422c:	00800044 	movi	r2,1
  804230:	18801e0d 	sth	r2,120(r3)
			p2_ship.stalled_for_minutes ++;
  804234:	00c020b4 	movhi	r3,130
  804238:	18f0e804 	addi	r3,r3,-15456
  80423c:	008020b4 	movhi	r2,130
  804240:	10b0e804 	addi	r2,r2,-15456
  804244:	10801e8b 	ldhu	r2,122(r2)
  804248:	10800044 	addi	r2,r2,1
  80424c:	18801e8d 	sth	r2,122(r3)
		}

		if (p1_ship.stalled_for_minutes >= GAME_OVER_STALL_TIME && p2_ship.stalled_for_minutes >= GAME_OVER_STALL_TIME)
  804250:	008020b4 	movhi	r2,130
  804254:	10afc004 	addi	r2,r2,-16640
  804258:	10801e8f 	ldh	r2,122(r2)
  80425c:	10800090 	cmplti	r2,r2,2
  804260:	1000071e 	bne	r2,zero,804280 <game_loop+0x194>
  804264:	008020b4 	movhi	r2,130
  804268:	10b0e804 	addi	r2,r2,-15456
  80426c:	10801e8f 	ldh	r2,122(r2)
  804270:	10800090 	cmplti	r2,r2,2
  804274:	1000021e 	bne	r2,zero,804280 <game_loop+0x194>
		{
			return TIE;
  804278:	e03ff715 	stw	zero,-36(fp)
  80427c:	00031a06 	br	804ee8 <game_loop+0xdfc>
		}
		else if (p1_ship.stalled_for_minutes >= GAME_OVER_STALL_TIME)
  804280:	008020b4 	movhi	r2,130
  804284:	10afc004 	addi	r2,r2,-16640
  804288:	10801e8f 	ldh	r2,122(r2)
  80428c:	10800090 	cmplti	r2,r2,2
  804290:	1000031e 	bne	r2,zero,8042a0 <game_loop+0x1b4>
		{
			return P1;
  804294:	00c00044 	movi	r3,1
  804298:	e0fff715 	stw	r3,-36(fp)
  80429c:	00031206 	br	804ee8 <game_loop+0xdfc>
		}
		else if (p2_ship.stalled_for_minutes >= GAME_OVER_STALL_TIME)
  8042a0:	008020b4 	movhi	r2,130
  8042a4:	10b0e804 	addi	r2,r2,-15456
  8042a8:	10801e8f 	ldh	r2,122(r2)
  8042ac:	10800090 	cmplti	r2,r2,2
  8042b0:	1000031e 	bne	r2,zero,8042c0 <game_loop+0x1d4>
		{
			return P2;
  8042b4:	00800084 	movi	r2,2
  8042b8:	e0bff715 	stw	r2,-36(fp)
  8042bc:	00030a06 	br	804ee8 <game_loop+0xdfc>
		}
	}

	if (partial_second == 0)
  8042c0:	e0bfe817 	ldw	r2,-96(fp)
  8042c4:	1004c03a 	cmpne	r2,r2,zero
  8042c8:	1000261e 	bne	r2,zero,804364 <game_loop+0x278>
	{
		/* new second */
		for (i = 0; i < 2; i++)
  8042cc:	e03fea15 	stw	zero,-88(fp)
  8042d0:	e0bfea17 	ldw	r2,-88(fp)
  8042d4:	10800088 	cmpgei	r2,r2,2
  8042d8:	1000221e 	bne	r2,zero,804364 <game_loop+0x278>
		{
			if (i == 0)
  8042dc:	e0bfea17 	ldw	r2,-88(fp)
  8042e0:	1004c03a 	cmpne	r2,r2,zero
  8042e4:	1000041e 	bne	r2,zero,8042f8 <game_loop+0x20c>
				ship = &p1_ship;
  8042e8:	008020b4 	movhi	r2,130
  8042ec:	10afc004 	addi	r2,r2,-16640
  8042f0:	e0bfeb15 	stw	r2,-84(fp)
  8042f4:	00000306 	br	804304 <game_loop+0x218>
			else
				ship = &p2_ship;
  8042f8:	008020b4 	movhi	r2,130
  8042fc:	10b0e804 	addi	r2,r2,-15456
  804300:	e0bfeb15 	stw	r2,-84(fp)

			/* only allow shots approximately every 5 seconds */
			if (ship->shot_fired_x_seconds_ago == 6)
  804304:	e0bfeb17 	ldw	r2,-84(fp)
  804308:	10801a8f 	ldh	r2,106(r2)
  80430c:	10800198 	cmpnei	r2,r2,6
  804310:	1000071e 	bne	r2,zero,804330 <game_loop+0x244>
			{
				ship->shot_fired_x_seconds_ago = 0;
  804314:	e0bfeb17 	ldw	r2,-84(fp)
  804318:	10001a8d 	sth	zero,106(r2)
				/* make the last shot disappear */
				clean_shot(ship, pixel_buf_dev, 0);
  80431c:	e13feb17 	ldw	r4,-84(fp)
  804320:	d1602417 	ldw	r5,-32624(gp)
  804324:	000d883a 	mov	r6,zero
  804328:	08027a00 	call	8027a0 <clean_shot>
  80432c:	00000906 	br	804354 <game_loop+0x268>
			}
			else if (ship->shot_fired_x_seconds_ago != 0)
  804330:	e0bfeb17 	ldw	r2,-84(fp)
  804334:	10801a8f 	ldh	r2,106(r2)
  804338:	1005003a 	cmpeq	r2,r2,zero
  80433c:	1000051e 	bne	r2,zero,804354 <game_loop+0x268>
			{
				ship->shot_fired_x_seconds_ago ++;
  804340:	e0ffeb17 	ldw	r3,-84(fp)
  804344:	e0bfeb17 	ldw	r2,-84(fp)
  804348:	10801a8b 	ldhu	r2,106(r2)
  80434c:	10800044 	addi	r2,r2,1
  804350:	18801a8d 	sth	r2,106(r3)
  804354:	e0bfea17 	ldw	r2,-88(fp)
  804358:	10800044 	addi	r2,r2,1
  80435c:	e0bfea15 	stw	r2,-88(fp)
  804360:	003fdb06 	br	8042d0 <game_loop+0x1e4>
			}
		}
	}

	for (i = 0; i < 2; i++)
  804364:	e03fea15 	stw	zero,-88(fp)
  804368:	e0bfea17 	ldw	r2,-88(fp)
  80436c:	10800088 	cmpgei	r2,r2,2
  804370:	1001311e 	bne	r2,zero,804838 <game_loop+0x74c>
	{
		if (i == 0)
  804374:	e0bfea17 	ldw	r2,-88(fp)
  804378:	1004c03a 	cmpne	r2,r2,zero
  80437c:	1000041e 	bne	r2,zero,804390 <game_loop+0x2a4>
			ship = &p1_ship;
  804380:	008020b4 	movhi	r2,130
  804384:	10afc004 	addi	r2,r2,-16640
  804388:	e0bfeb15 	stw	r2,-84(fp)
  80438c:	00000306 	br	80439c <game_loop+0x2b0>
		else
			ship = &p2_ship;
  804390:	008020b4 	movhi	r2,130
  804394:	10b0e804 	addi	r2,r2,-15456
  804398:	e0bfeb15 	stw	r2,-84(fp)

		new_velocity.x = 0;
  80439c:	e03fec15 	stw	zero,-80(fp)
		new_velocity.y = 0;
  8043a0:	e03fed15 	stw	zero,-76(fp)

		/* copy the temp matrix so we can figure out where you're going to be */
		copy_matrix(ship->matrix_start, ship->row, ship->column, ship->temp_matrix);
  8043a4:	e0bfeb17 	ldw	r2,-84(fp)
  8043a8:	e0ffeb17 	ldw	r3,-84(fp)
  8043ac:	e1bfeb17 	ldw	r6,-84(fp)
  8043b0:	e1ffeb17 	ldw	r7,-84(fp)
  8043b4:	11000317 	ldw	r4,12(r2)
  8043b8:	19400117 	ldw	r5,4(r3)
  8043bc:	31800217 	ldw	r6,8(r6)
  8043c0:	39c00517 	ldw	r7,20(r7)
  8043c4:	08022d40 	call	8022d4 <copy_matrix>

		if (data_update == 1 && ship->stalled == FALSE)
  8043c8:	e0bfe617 	ldw	r2,-104(fp)
  8043cc:	10800058 	cmpnei	r2,r2,1
  8043d0:	1000c21e 	bne	r2,zero,8046dc <game_loop+0x5f0>
  8043d4:	e0bfeb17 	ldw	r2,-84(fp)
  8043d8:	10801e0f 	ldh	r2,120(r2)
  8043dc:	1004c03a 	cmpne	r2,r2,zero
  8043e0:	1000be1e 	bne	r2,zero,8046dc <game_loop+0x5f0>
		{
			/* calculate player ones potential movement */
			/* check versus walls */
			if (ship->engine_left_right == 1)
  8043e4:	e0bfeb17 	ldw	r2,-84(fp)
  8043e8:	10801843 	ldbu	r2,97(r2)
  8043ec:	10800058 	cmpnei	r2,r2,1
  8043f0:	1000081e 	bne	r2,zero,804414 <game_loop+0x328>
			{
				/* turning left */
				ship->angle = (ship->angle - TURN_RATE) % 360;
  8043f4:	e43feb17 	ldw	r16,-84(fp)
  8043f8:	e0bfeb17 	ldw	r2,-84(fp)
  8043fc:	1080090b 	ldhu	r2,36(r2)
  804400:	113ffd84 	addi	r4,r2,-10
  804404:	01405a04 	movi	r5,360
  804408:	080be080 	call	80be08 <__modsi3>
  80440c:	8080090d 	sth	r2,36(r16)
  804410:	00000b06 	br	804440 <game_loop+0x354>
			}
			else if (ship->engine_left_right == 2)
  804414:	e0bfeb17 	ldw	r2,-84(fp)
  804418:	10801843 	ldbu	r2,97(r2)
  80441c:	10800098 	cmpnei	r2,r2,2
  804420:	1000071e 	bne	r2,zero,804440 <game_loop+0x354>
			{
				/* turning right */
				ship->angle = (ship->angle + TURN_RATE) % 360;
  804424:	e43feb17 	ldw	r16,-84(fp)
  804428:	e0bfeb17 	ldw	r2,-84(fp)
  80442c:	1080090b 	ldhu	r2,36(r2)
  804430:	11000284 	addi	r4,r2,10
  804434:	01405a04 	movi	r5,360
  804438:	080be080 	call	80be08 <__modsi3>
  80443c:	8080090d 	sth	r2,36(r16)
			}

			if (ship->engine > 0)
  804440:	e0bfeb17 	ldw	r2,-84(fp)
  804444:	10801803 	ldbu	r2,96(r2)
  804448:	1005003a 	cmpeq	r2,r2,zero
  80444c:	1000a31e 	bne	r2,zero,8046dc <game_loop+0x5f0>
			{
				/* trying to accelerate */
				float scalar;

				/* calculate the acceleration costs */
				ship->power_budget_this_minute -= ENGINE_POWER_COST;
  804450:	e0ffeb17 	ldw	r3,-84(fp)
  804454:	e0bfeb17 	ldw	r2,-84(fp)
  804458:	10801b17 	ldw	r2,108(r2)
  80445c:	10bfffc4 	addi	r2,r2,-1
  804460:	18801b15 	stw	r2,108(r3)
				if (ship->power_budget_this_minute < BASIC_POWER_COST)
