Archive member included because of file (symbol)

/cygdrive/c/altera/91/nios2eds/bin/nios2-gnutools/H-i686-pc-cygwin/bin/../lib/gcc/nios2-elf/3.4.6/../../../../nios2-elf/lib/libm.a(s_cos.o)
                              obj/collision_detection.o (cos)
/cygdrive/c/altera/91/nios2eds/bin/nios2-gnutools/H-i686-pc-cygwin/bin/../lib/gcc/nios2-elf/3.4.6/../../../../nios2-elf/lib/libm.a(s_sin.o)
                              obj/collision_detection.o (sin)
/cygdrive/c/altera/91/nios2eds/bin/nios2-gnutools/H-i686-pc-cygwin/bin/../lib/gcc/nios2-elf/3.4.6/../../../../nios2-elf/lib/libm.a(sf_round.o)
                              obj/draw.o (roundf)
/cygdrive/c/altera/91/nios2eds/bin/nios2-gnutools/H-i686-pc-cygwin/bin/../lib/gcc/nios2-elf/3.4.6/../../../../nios2-elf/lib/libm.a(w_sqrt.o)
                              obj/game_loop.o (sqrt)
/cygdrive/c/altera/91/nios2eds/bin/nios2-gnutools/H-i686-pc-cygwin/bin/../lib/gcc/nios2-elf/3.4.6/../../../../nios2-elf/lib/libm.a(e_rem_pio2.o)
                              /cygdrive/c/altera/91/nios2eds/bin/nios2-gnutools/H-i686-pc-cygwin/bin/../lib/gcc/nios2-elf/3.4.6/../../../../nios2-elf/lib/libm.a(s_cos.o) (__ieee754_rem_pio2)
/cygdrive/c/altera/91/nios2eds/bin/nios2-gnutools/H-i686-pc-cygwin/bin/../lib/gcc/nios2-elf/3.4.6/../../../../nios2-elf/lib/libm.a(e_sqrt.o)
                              /cygdrive/c/altera/91/nios2eds/bin/nios2-gnutools/H-i686-pc-cygwin/bin/../lib/gcc/nios2-elf/3.4.6/../../../../nios2-elf/lib/libm.a(w_sqrt.o) (__ieee754_sqrt)
/cygdrive/c/altera/91/nios2eds/bin/nios2-gnutools/H-i686-pc-cygwin/bin/../lib/gcc/nios2-elf/3.4.6/../../../../nios2-elf/lib/libm.a(k_cos.o)
                              /cygdrive/c/altera/91/nios2eds/bin/nios2-gnutools/H-i686-pc-cygwin/bin/../lib/gcc/nios2-elf/3.4.6/../../../../nios2-elf/lib/libm.a(s_cos.o) (__kernel_cos)
/cygdrive/c/altera/91/nios2eds/bin/nios2-gnutools/H-i686-pc-cygwin/bin/../lib/gcc/nios2-elf/3.4.6/../../../../nios2-elf/lib/libm.a(k_rem_pio2.o)
                              /cygdrive/c/altera/91/nios2eds/bin/nios2-gnutools/H-i686-pc-cygwin/bin/../lib/gcc/nios2-elf/3.4.6/../../../../nios2-elf/lib/libm.a(e_rem_pio2.o) (__kernel_rem_pio2)
/cygdrive/c/altera/91/nios2eds/bin/nios2-gnutools/H-i686-pc-cygwin/bin/../lib/gcc/nios2-elf/3.4.6/../../../../nios2-elf/lib/libm.a(k_sin.o)
                              /cygdrive/c/altera/91/nios2eds/bin/nios2-gnutools/H-i686-pc-cygwin/bin/../lib/gcc/nios2-elf/3.4.6/../../../../nios2-elf/lib/libm.a(s_cos.o) (__kernel_sin)
/cygdrive/c/altera/91/nios2eds/bin/nios2-gnutools/H-i686-pc-cygwin/bin/../lib/gcc/nios2-elf/3.4.6/../../../../nios2-elf/lib/libm.a(s_fabs.o)
                              /cygdrive/c/altera/91/nios2eds/bin/nios2-gnutools/H-i686-pc-cygwin/bin/../lib/gcc/nios2-elf/3.4.6/../../../../nios2-elf/lib/libm.a(e_rem_pio2.o) (fabs)
/cygdrive/c/altera/91/nios2eds/bin/nios2-gnutools/H-i686-pc-cygwin/bin/../lib/gcc/nios2-elf/3.4.6/../../../../nios2-elf/lib/libm.a(s_floor.o)
                              /cygdrive/c/altera/91/nios2eds/bin/nios2-gnutools/H-i686-pc-cygwin/bin/../lib/gcc/nios2-elf/3.4.6/../../../../nios2-elf/lib/libm.a(k_rem_pio2.o) (floor)
/cygdrive/c/altera/91/nios2eds/bin/nios2-gnutools/H-i686-pc-cygwin/bin/../lib/gcc/nios2-elf/3.4.6/../../../../nios2-elf/lib/libm.a(s_isnan.o)
                              /cygdrive/c/altera/91/nios2eds/bin/nios2-gnutools/H-i686-pc-cygwin/bin/../lib/gcc/nios2-elf/3.4.6/../../../../nios2-elf/lib/libm.a(w_sqrt.o) (isnan)
/cygdrive/c/altera/91/nios2eds/bin/nios2-gnutools/H-i686-pc-cygwin/bin/../lib/gcc/nios2-elf/3.4.6/../../../../nios2-elf/lib/libm.a(s_lib_ver.o)
                              /cygdrive/c/altera/91/nios2eds/bin/nios2-gnutools/H-i686-pc-cygwin/bin/../lib/gcc/nios2-elf/3.4.6/../../../../nios2-elf/lib/libm.a(w_sqrt.o) (__fdlib_version)
/cygdrive/c/altera/91/nios2eds/bin/nios2-gnutools/H-i686-pc-cygwin/bin/../lib/gcc/nios2-elf/3.4.6/../../../../nios2-elf/lib/libm.a(s_matherr.o)
                              /cygdrive/c/altera/91/nios2eds/bin/nios2-gnutools/H-i686-pc-cygwin/bin/../lib/gcc/nios2-elf/3.4.6/../../../../nios2-elf/lib/libm.a(w_sqrt.o) (matherr)
/cygdrive/c/altera/91/nios2eds/bin/nios2-gnutools/H-i686-pc-cygwin/bin/../lib/gcc/nios2-elf/3.4.6/../../../../nios2-elf/lib/libm.a(s_scalbn.o)
                              /cygdrive/c/altera/91/nios2eds/bin/nios2-gnutools/H-i686-pc-cygwin/bin/../lib/gcc/nios2-elf/3.4.6/../../../../nios2-elf/lib/libm.a(k_rem_pio2.o) (scalbn)
/cygdrive/c/altera/91/nios2eds/bin/nios2-gnutools/H-i686-pc-cygwin/bin/../lib/gcc/nios2-elf/3.4.6/../../../../nios2-elf/lib/libm.a(s_copysign.o)
                              /cygdrive/c/altera/91/nios2eds/bin/nios2-gnutools/H-i686-pc-cygwin/bin/../lib/gcc/nios2-elf/3.4.6/../../../../nios2-elf/lib/libm.a(s_scalbn.o) (copysign)
/cygdrive/c/altera/91/nios2eds/bin/nios2-gnutools/H-i686-pc-cygwin/bin/../lib/gcc/nios2-elf/3.4.6/libgcc.a(_fixunssfsi.o)
                              obj/ethernet_isr.o (__fixunssfsi)
/cygdrive/c/altera/91/nios2eds/bin/nios2-gnutools/H-i686-pc-cygwin/bin/../lib/gcc/nios2-elf/3.4.6/libgcc.a(_addsub_sf.o)
                              obj/collision_detection.o (__addsf3)
/cygdrive/c/altera/91/nios2eds/bin/nios2-gnutools/H-i686-pc-cygwin/bin/../lib/gcc/nios2-elf/3.4.6/libgcc.a(_mul_sf.o)
                              obj/collision_detection.o (__mulsf3)
/cygdrive/c/altera/91/nios2eds/bin/nios2-gnutools/H-i686-pc-cygwin/bin/../lib/gcc/nios2-elf/3.4.6/libgcc.a(_div_sf.o)
                              obj/collision_detection.o (__divsf3)
/cygdrive/c/altera/91/nios2eds/bin/nios2-gnutools/H-i686-pc-cygwin/bin/../lib/gcc/nios2-elf/3.4.6/libgcc.a(_eq_sf.o)
                              obj/collision_detection.o (__eqsf2)
/cygdrive/c/altera/91/nios2eds/bin/nios2-gnutools/H-i686-pc-cygwin/bin/../lib/gcc/nios2-elf/3.4.6/libgcc.a(_ne_sf.o)
                              obj/collision_detection.o (__nesf2)
/cygdrive/c/altera/91/nios2eds/bin/nios2-gnutools/H-i686-pc-cygwin/bin/../lib/gcc/nios2-elf/3.4.6/libgcc.a(_gt_sf.o)
                              obj/collision_detection.o (__gtsf2)
/cygdrive/c/altera/91/nios2eds/bin/nios2-gnutools/H-i686-pc-cygwin/bin/../lib/gcc/nios2-elf/3.4.6/libgcc.a(_ge_sf.o)
                              obj/collision_detection.o (__gesf2)
/cygdrive/c/altera/91/nios2eds/bin/nios2-gnutools/H-i686-pc-cygwin/bin/../lib/gcc/nios2-elf/3.4.6/libgcc.a(_lt_sf.o)
                              obj/collision_detection.o (__ltsf2)
/cygdrive/c/altera/91/nios2eds/bin/nios2-gnutools/H-i686-pc-cygwin/bin/../lib/gcc/nios2-elf/3.4.6/libgcc.a(_le_sf.o)
                              obj/collision_detection.o (__lesf2)
/cygdrive/c/altera/91/nios2eds/bin/nios2-gnutools/H-i686-pc-cygwin/bin/../lib/gcc/nios2-elf/3.4.6/libgcc.a(_si_to_sf.o)
                              obj/draw.o (__floatsisf)
/cygdrive/c/altera/91/nios2eds/bin/nios2-gnutools/H-i686-pc-cygwin/bin/../lib/gcc/nios2-elf/3.4.6/libgcc.a(_sf_to_si.o)
                              obj/draw.o (__fixsfsi)
/cygdrive/c/altera/91/nios2eds/bin/nios2-gnutools/H-i686-pc-cygwin/bin/../lib/gcc/nios2-elf/3.4.6/libgcc.a(_sf_to_df.o)
                              obj/collision_detection.o (__extendsfdf2)
/cygdrive/c/altera/91/nios2eds/bin/nios2-gnutools/H-i686-pc-cygwin/bin/../lib/gcc/nios2-elf/3.4.6/libgcc.a(_thenan_sf.o)
                              /cygdrive/c/altera/91/nios2eds/bin/nios2-gnutools/H-i686-pc-cygwin/bin/../lib/gcc/nios2-elf/3.4.6/libgcc.a(_addsub_sf.o) (__thenan_sf)
/cygdrive/c/altera/91/nios2eds/bin/nios2-gnutools/H-i686-pc-cygwin/bin/../lib/gcc/nios2-elf/3.4.6/libgcc.a(_addsub_df.o)
                              obj/collision_detection.o (__adddf3)
/cygdrive/c/altera/91/nios2eds/bin/nios2-gnutools/H-i686-pc-cygwin/bin/../lib/gcc/nios2-elf/3.4.6/libgcc.a(_mul_df.o)
                              obj/collision_detection.o (__muldf3)
/cygdrive/c/altera/91/nios2eds/bin/nios2-gnutools/H-i686-pc-cygwin/bin/../lib/gcc/nios2-elf/3.4.6/libgcc.a(_div_df.o)
                              obj/collision_detection.o (__divdf3)
/cygdrive/c/altera/91/nios2eds/bin/nios2-gnutools/H-i686-pc-cygwin/bin/../lib/gcc/nios2-elf/3.4.6/libgcc.a(_eq_df.o)
                              /cygdrive/c/altera/91/nios2eds/bin/nios2-gnutools/H-i686-pc-cygwin/bin/../lib/gcc/nios2-elf/3.4.6/../../../../nios2-elf/lib/libm.a(e_rem_pio2.o) (__eqdf2)
/cygdrive/c/altera/91/nios2eds/bin/nios2-gnutools/H-i686-pc-cygwin/bin/../lib/gcc/nios2-elf/3.4.6/libgcc.a(_ne_df.o)
                              /cygdrive/c/altera/91/nios2eds/bin/nios2-gnutools/H-i686-pc-cygwin/bin/../lib/gcc/nios2-elf/3.4.6/../../../../nios2-elf/lib/libm.a(s_matherr.o) (__nedf2)
/cygdrive/c/altera/91/nios2eds/bin/nios2-gnutools/H-i686-pc-cygwin/bin/../lib/gcc/nios2-elf/3.4.6/libgcc.a(_gt_df.o)
                              /cygdrive/c/altera/91/nios2eds/bin/nios2-gnutools/H-i686-pc-cygwin/bin/../lib/gcc/nios2-elf/3.4.6/../../../../nios2-elf/lib/libm.a(e_sqrt.o) (__gtdf2)
/cygdrive/c/altera/91/nios2eds/bin/nios2-gnutools/H-i686-pc-cygwin/bin/../lib/gcc/nios2-elf/3.4.6/libgcc.a(_ge_df.o)
                              /cygdrive/c/altera/91/nios2eds/bin/nios2-gnutools/H-i686-pc-cygwin/bin/../lib/gcc/nios2-elf/3.4.6/../../../../nios2-elf/lib/libm.a(e_sqrt.o) (__gedf2)
/cygdrive/c/altera/91/nios2eds/bin/nios2-gnutools/H-i686-pc-cygwin/bin/../lib/gcc/nios2-elf/3.4.6/libgcc.a(_lt_df.o)
                              /cygdrive/c/altera/91/nios2eds/bin/nios2-gnutools/H-i686-pc-cygwin/bin/../lib/gcc/nios2-elf/3.4.6/../../../../nios2-elf/lib/libm.a(w_sqrt.o) (__ltdf2)
/cygdrive/c/altera/91/nios2eds/bin/nios2-gnutools/H-i686-pc-cygwin/bin/../lib/gcc/nios2-elf/3.4.6/libgcc.a(_si_to_df.o)
                              obj/collision_detection.o (__floatsidf)
/cygdrive/c/altera/91/nios2eds/bin/nios2-gnutools/H-i686-pc-cygwin/bin/../lib/gcc/nios2-elf/3.4.6/libgcc.a(_df_to_si.o)
                              /cygdrive/c/altera/91/nios2eds/bin/nios2-gnutools/H-i686-pc-cygwin/bin/../lib/gcc/nios2-elf/3.4.6/../../../../nios2-elf/lib/libm.a(e_rem_pio2.o) (__fixdfsi)
/cygdrive/c/altera/91/nios2eds/bin/nios2-gnutools/H-i686-pc-cygwin/bin/../lib/gcc/nios2-elf/3.4.6/libgcc.a(_make_df.o)
                              /cygdrive/c/altera/91/nios2eds/bin/nios2-gnutools/H-i686-pc-cygwin/bin/../lib/gcc/nios2-elf/3.4.6/libgcc.a(_sf_to_df.o) (__make_dp)
/cygdrive/c/altera/91/nios2eds/bin/nios2-gnutools/H-i686-pc-cygwin/bin/../lib/gcc/nios2-elf/3.4.6/libgcc.a(_df_to_sf.o)
                              obj/collision_detection.o (__truncdfsf2)
/cygdrive/c/altera/91/nios2eds/bin/nios2-gnutools/H-i686-pc-cygwin/bin/../lib/gcc/nios2-elf/3.4.6/libgcc.a(_thenan_df.o)
                              /cygdrive/c/altera/91/nios2eds/bin/nios2-gnutools/H-i686-pc-cygwin/bin/../lib/gcc/nios2-elf/3.4.6/libgcc.a(_addsub_df.o) (__thenan_df)
/cygdrive/c/altera/91/nios2eds/bin/nios2-gnutools/H-i686-pc-cygwin/bin/../lib/gcc/nios2-elf/3.4.6/libgcc.a(lib2-divmod.o)
                              /cygdrive/c/altera/91/nios2eds/bin/nios2-gnutools/H-i686-pc-cygwin/bin/../lib/gcc/nios2-elf/3.4.6/../../../../nios2-elf/lib/libm.a(k_rem_pio2.o) (__divsi3)
/cygdrive/c/altera/91/nios2eds/bin/nios2-gnutools/H-i686-pc-cygwin/bin/../lib/gcc/nios2-elf/3.4.6/libgcc.a(_muldi3.o)
                              /cygdrive/c/altera/91/nios2eds/bin/nios2-gnutools/H-i686-pc-cygwin/bin/../lib/gcc/nios2-elf/3.4.6/libgcc.a(_mul_sf.o) (__muldi3)
/cygdrive/c/altera/91/nios2eds/bin/nios2-gnutools/H-i686-pc-cygwin/bin/../lib/gcc/nios2-elf/3.4.6/libgcc.a(_negdi2.o)
                              /cygdrive/c/altera/91/nios2eds/bin/nios2-gnutools/H-i686-pc-cygwin/bin/../lib/gcc/nios2-elf/3.4.6/libgcc.a(_addsub_df.o) (__negdi2)
/cygdrive/c/altera/91/nios2eds/bin/nios2-gnutools/H-i686-pc-cygwin/bin/../lib/gcc/nios2-elf/3.4.6/libgcc.a(_lshrdi3.o)
                              /cygdrive/c/altera/91/nios2eds/bin/nios2-gnutools/H-i686-pc-cygwin/bin/../lib/gcc/nios2-elf/3.4.6/libgcc.a(_df_to_si.o) (__lshrdi3)
/cygdrive/c/altera/91/nios2eds/bin/nios2-gnutools/H-i686-pc-cygwin/bin/../lib/gcc/nios2-elf/3.4.6/libgcc.a(_pack_sf.o)
                              /cygdrive/c/altera/91/nios2eds/bin/nios2-gnutools/H-i686-pc-cygwin/bin/../lib/gcc/nios2-elf/3.4.6/libgcc.a(_addsub_sf.o) (__pack_f)
/cygdrive/c/altera/91/nios2eds/bin/nios2-gnutools/H-i686-pc-cygwin/bin/../lib/gcc/nios2-elf/3.4.6/libgcc.a(_unpack_sf.o)
                              /cygdrive/c/altera/91/nios2eds/bin/nios2-gnutools/H-i686-pc-cygwin/bin/../lib/gcc/nios2-elf/3.4.6/libgcc.a(_addsub_sf.o) (__unpack_f)
/cygdrive/c/altera/91/nios2eds/bin/nios2-gnutools/H-i686-pc-cygwin/bin/../lib/gcc/nios2-elf/3.4.6/libgcc.a(_fpcmp_parts_sf.o)
                              /cygdrive/c/altera/91/nios2eds/bin/nios2-gnutools/H-i686-pc-cygwin/bin/../lib/gcc/nios2-elf/3.4.6/libgcc.a(_eq_sf.o) (__fpcmp_parts_f)
/cygdrive/c/altera/91/nios2eds/bin/nios2-gnutools/H-i686-pc-cygwin/bin/../lib/gcc/nios2-elf/3.4.6/libgcc.a(_make_sf.o)
                              /cygdrive/c/altera/91/nios2eds/bin/nios2-gnutools/H-i686-pc-cygwin/bin/../lib/gcc/nios2-elf/3.4.6/libgcc.a(_df_to_sf.o) (__make_fp)
/cygdrive/c/altera/91/nios2eds/bin/nios2-gnutools/H-i686-pc-cygwin/bin/../lib/gcc/nios2-elf/3.4.6/libgcc.a(_pack_df.o)
                              /cygdrive/c/altera/91/nios2eds/bin/nios2-gnutools/H-i686-pc-cygwin/bin/../lib/gcc/nios2-elf/3.4.6/libgcc.a(_addsub_df.o) (__pack_d)
/cygdrive/c/altera/91/nios2eds/bin/nios2-gnutools/H-i686-pc-cygwin/bin/../lib/gcc/nios2-elf/3.4.6/libgcc.a(_unpack_df.o)
                              /cygdrive/c/altera/91/nios2eds/bin/nios2-gnutools/H-i686-pc-cygwin/bin/../lib/gcc/nios2-elf/3.4.6/libgcc.a(_addsub_df.o) (__unpack_d)
/cygdrive/c/altera/91/nios2eds/bin/nios2-gnutools/H-i686-pc-cygwin/bin/../lib/gcc/nios2-elf/3.4.6/libgcc.a(_fpcmp_parts_df.o)
                              /cygdrive/c/altera/91/nios2eds/bin/nios2-gnutools/H-i686-pc-cygwin/bin/../lib/gcc/nios2-elf/3.4.6/libgcc.a(_eq_df.o) (__fpcmp_parts_d)
/cygdrive/c/altera/91/nios2eds/bin/nios2-gnutools/H-i686-pc-cygwin/bin/../lib/gcc/nios2-elf/3.4.6/libgcc.a(_ashldi3.o)
                              /cygdrive/c/altera/91/nios2eds/bin/nios2-gnutools/H-i686-pc-cygwin/bin/../lib/gcc/nios2-elf/3.4.6/libgcc.a(_pack_df.o) (__ashldi3)
/cygdrive/c/altera/91/nios2eds/bin/nios2-gnutools/H-i686-pc-cygwin/bin/../lib/gcc/nios2-elf/3.4.6/../../../../nios2-elf/lib/libc.a(calloc.o)
                              obj/draw.o (calloc)
/cygdrive/c/altera/91/nios2eds/bin/nios2-gnutools/H-i686-pc-cygwin/bin/../lib/gcc/nios2-elf/3.4.6/../../../../nios2-elf/lib/libc.a(callocr.o)
                              /cygdrive/c/altera/91/nios2eds/bin/nios2-gnutools/H-i686-pc-cygwin/bin/../lib/gcc/nios2-elf/3.4.6/../../../../nios2-elf/lib/libc.a(calloc.o) (_calloc_r)
/cygdrive/c/altera/91/nios2eds/bin/nios2-gnutools/H-i686-pc-cygwin/bin/../lib/gcc/nios2-elf/3.4.6/../../../../nios2-elf/lib/libc.a(errno.o)
                              /cygdrive/c/altera/91/nios2eds/bin/nios2-gnutools/H-i686-pc-cygwin/bin/../lib/gcc/nios2-elf/3.4.6/../../../../nios2-elf/lib/libm.a(w_sqrt.o) (__errno)
/cygdrive/c/altera/91/nios2eds/bin/nios2-gnutools/H-i686-pc-cygwin/bin/../lib/gcc/nios2-elf/3.4.6/../../../../nios2-elf/lib/libc.a(fopen.o)
                              obj/main.o (fopen)
/cygdrive/c/altera/91/nios2eds/bin/nios2-gnutools/H-i686-pc-cygwin/bin/../lib/gcc/nios2-elf/3.4.6/../../../../nios2-elf/lib/libc.a(fprintf.o)
                              obj/main.o (fprintf)
/cygdrive/c/altera/91/nios2eds/bin/nios2-gnutools/H-i686-pc-cygwin/bin/../lib/gcc/nios2-elf/3.4.6/../../../../nios2-elf/lib/libc.a(fseek.o)
                              /cygdrive/c/altera/91/nios2eds/bin/nios2-gnutools/H-i686-pc-cygwin/bin/../lib/gcc/nios2-elf/3.4.6/../../../../nios2-elf/lib/libc.a(fopen.o) (_fseek_r)
/cygdrive/c/altera/91/nios2eds/bin/nios2-gnutools/H-i686-pc-cygwin/bin/../lib/gcc/nios2-elf/3.4.6/../../../../nios2-elf/lib/libc.a(fstatr.o)
                              /cygdrive/c/altera/91/nios2eds/bin/nios2-gnutools/H-i686-pc-cygwin/bin/../lib/gcc/nios2-elf/3.4.6/../../../../nios2-elf/lib/libc.a(fseek.o) (_fstat_r)
/cygdrive/c/altera/91/nios2eds/bin/nios2-gnutools/H-i686-pc-cygwin/bin/../lib/gcc/nios2-elf/3.4.6/../../../../nios2-elf/lib/libc.a(impure.o)
                              /cygdrive/c/altera/91/nios2eds/bin/nios2-gnutools/H-i686-pc-cygwin/bin/../lib/gcc/nios2-elf/3.4.6/../../../../nios2-elf/lib/libc.a(calloc.o) (_impure_ptr)
/cygdrive/c/altera/91/nios2eds/bin/nios2-gnutools/H-i686-pc-cygwin/bin/../lib/gcc/nios2-elf/3.4.6/../../../../nios2-elf/lib/libc.a(int_errno.o)
                              /cygdrive/c/altera/91/nios2eds/bin/nios2-gnutools/H-i686-pc-cygwin/bin/../lib/gcc/nios2-elf/3.4.6/../../../../nios2-elf/lib/libc.a(fstatr.o) (errno)
/cygdrive/c/altera/91/nios2eds/bin/nios2-gnutools/H-i686-pc-cygwin/bin/../lib/gcc/nios2-elf/3.4.6/../../../../nios2-elf/lib/libc.a(makebuf.o)
                              /cygdrive/c/altera/91/nios2eds/bin/nios2-gnutools/H-i686-pc-cygwin/bin/../lib/gcc/nios2-elf/3.4.6/../../../../nios2-elf/lib/libc.a(fseek.o) (__smakebuf)
/cygdrive/c/altera/91/nios2eds/bin/nios2-gnutools/H-i686-pc-cygwin/bin/../lib/gcc/nios2-elf/3.4.6/../../../../nios2-elf/lib/libc.a(malloc.o)
                              obj/draw.o (malloc)
/cygdrive/c/altera/91/nios2eds/bin/nios2-gnutools/H-i686-pc-cygwin/bin/../lib/gcc/nios2-elf/3.4.6/../../../../nios2-elf/lib/libc.a(mallocr.o)
                              /cygdrive/c/altera/91/nios2eds/bin/nios2-gnutools/H-i686-pc-cygwin/bin/../lib/gcc/nios2-elf/3.4.6/../../../../nios2-elf/lib/libc.a(callocr.o) (_malloc_r)
/cygdrive/c/altera/91/nios2eds/bin/nios2-gnutools/H-i686-pc-cygwin/bin/../lib/gcc/nios2-elf/3.4.6/../../../../nios2-elf/lib/libc.a(memcpy.o)
                              obj/game_loop.o (memcpy)
/cygdrive/c/altera/91/nios2eds/bin/nios2-gnutools/H-i686-pc-cygwin/bin/../lib/gcc/nios2-elf/3.4.6/../../../../nios2-elf/lib/libc.a(memset.o)
                              /cygdrive/c/altera/91/nios2eds/bin/nios2-gnutools/H-i686-pc-cygwin/bin/../lib/gcc/nios2-elf/3.4.6/../../../../nios2-elf/lib/libc.a(callocr.o) (memset)
/cygdrive/c/altera/91/nios2eds/bin/nios2-gnutools/H-i686-pc-cygwin/bin/../lib/gcc/nios2-elf/3.4.6/../../../../nios2-elf/lib/libc.a(openr.o)
                              /cygdrive/c/altera/91/nios2eds/bin/nios2-gnutools/H-i686-pc-cygwin/bin/../lib/gcc/nios2-elf/3.4.6/../../../../nios2-elf/lib/libc.a(fopen.o) (_open_r)
/cygdrive/c/altera/91/nios2eds/bin/nios2-gnutools/H-i686-pc-cygwin/bin/../lib/gcc/nios2-elf/3.4.6/../../../../nios2-elf/lib/libc.a(rand.o)
                              obj/ship.o (rand)
/cygdrive/c/altera/91/nios2eds/bin/nios2-gnutools/H-i686-pc-cygwin/bin/../lib/gcc/nios2-elf/3.4.6/../../../../nios2-elf/lib/libc.a(refill.o)
                              /cygdrive/c/altera/91/nios2eds/bin/nios2-gnutools/H-i686-pc-cygwin/bin/../lib/gcc/nios2-elf/3.4.6/../../../../nios2-elf/lib/libc.a(fseek.o) (__srefill)
/cygdrive/c/altera/91/nios2eds/bin/nios2-gnutools/H-i686-pc-cygwin/bin/../lib/gcc/nios2-elf/3.4.6/../../../../nios2-elf/lib/libc.a(sbrkr.o)
                              /cygdrive/c/altera/91/nios2eds/bin/nios2-gnutools/H-i686-pc-cygwin/bin/../lib/gcc/nios2-elf/3.4.6/../../../../nios2-elf/lib/libc.a(mallocr.o) (_sbrk_r)
/cygdrive/c/altera/91/nios2eds/bin/nios2-gnutools/H-i686-pc-cygwin/bin/../lib/gcc/nios2-elf/3.4.6/../../../../nios2-elf/lib/libc.a(sprintf.o)
                              obj/util.o (sprintf)
/cygdrive/c/altera/91/nios2eds/bin/nios2-gnutools/H-i686-pc-cygwin/bin/../lib/gcc/nios2-elf/3.4.6/../../../../nios2-elf/lib/libc.a(stdio.o)
                              /cygdrive/c/altera/91/nios2eds/bin/nios2-gnutools/H-i686-pc-cygwin/bin/../lib/gcc/nios2-elf/3.4.6/../../../../nios2-elf/lib/libc.a(fopen.o) (__sread)
/cygdrive/c/altera/91/nios2eds/bin/nios2-gnutools/H-i686-pc-cygwin/bin/../lib/gcc/nios2-elf/3.4.6/../../../../nios2-elf/lib/libc.a(strlen.o)
                              obj/util.o (strlen)
/cygdrive/c/altera/91/nios2eds/bin/nios2-gnutools/H-i686-pc-cygwin/bin/../lib/gcc/nios2-elf/3.4.6/../../../../nios2-elf/lib/libc.a(vfprintf1.o)
                              /cygdrive/c/altera/91/nios2eds/bin/nios2-gnutools/H-i686-pc-cygwin/bin/../lib/gcc/nios2-elf/3.4.6/../../../../nios2-elf/lib/libc.a(sprintf.o) (___vfprintf_internal_r)
/cygdrive/c/altera/91/nios2eds/bin/nios2-gnutools/H-i686-pc-cygwin/bin/../lib/gcc/nios2-elf/3.4.6/../../../../nios2-elf/lib/libc.a(wcrtomb.o)
                              /cygdrive/c/altera/91/nios2eds/bin/nios2-gnutools/H-i686-pc-cygwin/bin/../lib/gcc/nios2-elf/3.4.6/../../../../nios2-elf/lib/libc.a(vfprintf1.o) (_wcrtomb_r)
/cygdrive/c/altera/91/nios2eds/bin/nios2-gnutools/H-i686-pc-cygwin/bin/../lib/gcc/nios2-elf/3.4.6/../../../../nios2-elf/lib/libc.a(wcsrtombs.o)
                              /cygdrive/c/altera/91/nios2eds/bin/nios2-gnutools/H-i686-pc-cygwin/bin/../lib/gcc/nios2-elf/3.4.6/../../../../nios2-elf/lib/libc.a(vfprintf1.o) (_wcsrtombs_r)
/cygdrive/c/altera/91/nios2eds/bin/nios2-gnutools/H-i686-pc-cygwin/bin/../lib/gcc/nios2-elf/3.4.6/../../../../nios2-elf/lib/libc.a(wctomb_r.o)
                              /cygdrive/c/altera/91/nios2eds/bin/nios2-gnutools/H-i686-pc-cygwin/bin/../lib/gcc/nios2-elf/3.4.6/../../../../nios2-elf/lib/libc.a(wcrtomb.o) (_wctomb_r)
/cygdrive/c/altera/91/nios2eds/bin/nios2-gnutools/H-i686-pc-cygwin/bin/../lib/gcc/nios2-elf/3.4.6/../../../../nios2-elf/lib/libc.a(writer.o)
                              /cygdrive/c/altera/91/nios2eds/bin/nios2-gnutools/H-i686-pc-cygwin/bin/../lib/gcc/nios2-elf/3.4.6/../../../../nios2-elf/lib/libc.a(stdio.o) (_write_r)
/cygdrive/c/altera/91/nios2eds/bin/nios2-gnutools/H-i686-pc-cygwin/bin/../lib/gcc/nios2-elf/3.4.6/../../../../nios2-elf/lib/libc.a(wsetup.o)
                              /cygdrive/c/altera/91/nios2eds/bin/nios2-gnutools/H-i686-pc-cygwin/bin/../lib/gcc/nios2-elf/3.4.6/../../../../nios2-elf/lib/libc.a(vfprintf1.o) (__swsetup)
/cygdrive/c/altera/91/nios2eds/bin/nios2-gnutools/H-i686-pc-cygwin/bin/../lib/gcc/nios2-elf/3.4.6/../../../../nios2-elf/lib/libc.a(closer.o)
                              /cygdrive/c/altera/91/nios2eds/bin/nios2-gnutools/H-i686-pc-cygwin/bin/../lib/gcc/nios2-elf/3.4.6/../../../../nios2-elf/lib/libc.a(stdio.o) (_close_r)
/cygdrive/c/altera/91/nios2eds/bin/nios2-gnutools/H-i686-pc-cygwin/bin/../lib/gcc/nios2-elf/3.4.6/../../../../nios2-elf/lib/libc.a(dtoa.o)
                              /cygdrive/c/altera/91/nios2eds/bin/nios2-gnutools/H-i686-pc-cygwin/bin/../lib/gcc/nios2-elf/3.4.6/../../../../nios2-elf/lib/libc.a(vfprintf1.o) (_dtoa_r)
/cygdrive/c/altera/91/nios2eds/bin/nios2-gnutools/H-i686-pc-cygwin/bin/../lib/gcc/nios2-elf/3.4.6/../../../../nios2-elf/lib/libc.a(fflush.o)
                              /cygdrive/c/altera/91/nios2eds/bin/nios2-gnutools/H-i686-pc-cygwin/bin/../lib/gcc/nios2-elf/3.4.6/../../../../nios2-elf/lib/libc.a(fseek.o) (fflush)
/cygdrive/c/altera/91/nios2eds/bin/nios2-gnutools/H-i686-pc-cygwin/bin/../lib/gcc/nios2-elf/3.4.6/../../../../nios2-elf/lib/libc.a(findfp.o)
                              /cygdrive/c/altera/91/nios2eds/bin/nios2-gnutools/H-i686-pc-cygwin/bin/../lib/gcc/nios2-elf/3.4.6/../../../../nios2-elf/lib/libc.a(makebuf.o) (_cleanup_r)
/cygdrive/c/altera/91/nios2eds/bin/nios2-gnutools/H-i686-pc-cygwin/bin/../lib/gcc/nios2-elf/3.4.6/../../../../nios2-elf/lib/libc.a(findfp1.o)
                              /cygdrive/c/altera/91/nios2eds/bin/nios2-gnutools/H-i686-pc-cygwin/bin/../lib/gcc/nios2-elf/3.4.6/../../../../nios2-elf/lib/libc.a(fopen.o) (__sfp)
/cygdrive/c/altera/91/nios2eds/bin/nios2-gnutools/H-i686-pc-cygwin/bin/../lib/gcc/nios2-elf/3.4.6/../../../../nios2-elf/lib/libc.a(flags.o)
                              /cygdrive/c/altera/91/nios2eds/bin/nios2-gnutools/H-i686-pc-cygwin/bin/../lib/gcc/nios2-elf/3.4.6/../../../../nios2-elf/lib/libc.a(fopen.o) (__sflags)
/cygdrive/c/altera/91/nios2eds/bin/nios2-gnutools/H-i686-pc-cygwin/bin/../lib/gcc/nios2-elf/3.4.6/../../../../nios2-elf/lib/libc.a(freer.o)
                              /cygdrive/c/altera/91/nios2eds/bin/nios2-gnutools/H-i686-pc-cygwin/bin/../lib/gcc/nios2-elf/3.4.6/../../../../nios2-elf/lib/libc.a(fseek.o) (_free_r)
/cygdrive/c/altera/91/nios2eds/bin/nios2-gnutools/H-i686-pc-cygwin/bin/../lib/gcc/nios2-elf/3.4.6/../../../../nios2-elf/lib/libc.a(fvwrite.o)
                              /cygdrive/c/altera/91/nios2eds/bin/nios2-gnutools/H-i686-pc-cygwin/bin/../lib/gcc/nios2-elf/3.4.6/../../../../nios2-elf/lib/libc.a(vfprintf1.o) (__sfvwrite)
/cygdrive/c/altera/91/nios2eds/bin/nios2-gnutools/H-i686-pc-cygwin/bin/../lib/gcc/nios2-elf/3.4.6/../../../../nios2-elf/lib/libc.a(fwalk.o)
                              /cygdrive/c/altera/91/nios2eds/bin/nios2-gnutools/H-i686-pc-cygwin/bin/../lib/gcc/nios2-elf/3.4.6/../../../../nios2-elf/lib/libc.a(refill.o) (_fwalk)
/cygdrive/c/altera/91/nios2eds/bin/nios2-gnutools/H-i686-pc-cygwin/bin/../lib/gcc/nios2-elf/3.4.6/../../../../nios2-elf/lib/libc.a(locale.o)
                              /cygdrive/c/altera/91/nios2eds/bin/nios2-gnutools/H-i686-pc-cygwin/bin/../lib/gcc/nios2-elf/3.4.6/../../../../nios2-elf/lib/libc.a(wctomb_r.o) (__lc_ctype)
/cygdrive/c/altera/91/nios2eds/bin/nios2-gnutools/H-i686-pc-cygwin/bin/../lib/gcc/nios2-elf/3.4.6/../../../../nios2-elf/lib/libc.a(lseekr.o)
                              /cygdrive/c/altera/91/nios2eds/bin/nios2-gnutools/H-i686-pc-cygwin/bin/../lib/gcc/nios2-elf/3.4.6/../../../../nios2-elf/lib/libc.a(stdio.o) (_lseek_r)
/cygdrive/c/altera/91/nios2eds/bin/nios2-gnutools/H-i686-pc-cygwin/bin/../lib/gcc/nios2-elf/3.4.6/../../../../nios2-elf/lib/libc.a(memchr.o)
                              /cygdrive/c/altera/91/nios2eds/bin/nios2-gnutools/H-i686-pc-cygwin/bin/../lib/gcc/nios2-elf/3.4.6/../../../../nios2-elf/lib/libc.a(vfprintf1.o) (memchr)
/cygdrive/c/altera/91/nios2eds/bin/nios2-gnutools/H-i686-pc-cygwin/bin/../lib/gcc/nios2-elf/3.4.6/../../../../nios2-elf/lib/libc.a(memmove.o)
                              /cygdrive/c/altera/91/nios2eds/bin/nios2-gnutools/H-i686-pc-cygwin/bin/../lib/gcc/nios2-elf/3.4.6/../../../../nios2-elf/lib/libc.a(fvwrite.o) (memmove)
/cygdrive/c/altera/91/nios2eds/bin/nios2-gnutools/H-i686-pc-cygwin/bin/../lib/gcc/nios2-elf/3.4.6/../../../../nios2-elf/lib/libc.a(mprec.o)
                              /cygdrive/c/altera/91/nios2eds/bin/nios2-gnutools/H-i686-pc-cygwin/bin/../lib/gcc/nios2-elf/3.4.6/../../../../nios2-elf/lib/libc.a(dtoa.o) (__mprec_bigtens)
/cygdrive/c/altera/91/nios2eds/bin/nios2-gnutools/H-i686-pc-cygwin/bin/../lib/gcc/nios2-elf/3.4.6/../../../../nios2-elf/lib/libc.a(readr.o)
                              /cygdrive/c/altera/91/nios2eds/bin/nios2-gnutools/H-i686-pc-cygwin/bin/../lib/gcc/nios2-elf/3.4.6/../../../../nios2-elf/lib/libc.a(stdio.o) (_read_r)
/cygdrive/c/altera/91/nios2eds/bin/nios2-gnutools/H-i686-pc-cygwin/bin/../lib/gcc/nios2-elf/3.4.6/../../../../nios2-elf/lib/libc.a(reallocr.o)
                              /cygdrive/c/altera/91/nios2eds/bin/nios2-gnutools/H-i686-pc-cygwin/bin/../lib/gcc/nios2-elf/3.4.6/../../../../nios2-elf/lib/libc.a(fvwrite.o) (_realloc_r)
/cygdrive/c/altera/91/nios2eds/bin/nios2-gnutools/H-i686-pc-cygwin/bin/../lib/gcc/nios2-elf/3.4.6/../../../../nios2-elf/lib/libc.a(s_isinf.o)
                              /cygdrive/c/altera/91/nios2eds/bin/nios2-gnutools/H-i686-pc-cygwin/bin/../lib/gcc/nios2-elf/3.4.6/../../../../nios2-elf/lib/libc.a(vfprintf1.o) (isinf)
/cygdrive/c/altera/91/nios2eds/bin/nios2-gnutools/H-i686-pc-cygwin/bin/../lib/gcc/nios2-elf/3.4.6/../../../../nios2-elf/lib/libc.a(strcmp.o)
                              /cygdrive/c/altera/91/nios2eds/bin/nios2-gnutools/H-i686-pc-cygwin/bin/../lib/gcc/nios2-elf/3.4.6/../../../../nios2-elf/lib/libc.a(wctomb_r.o) (strcmp)
/cygdrive/c/altera/91/nios2eds/bin/nios2-gnutools/H-i686-pc-cygwin/bin/../lib/gcc/nios2-elf/3.4.6/libgcc.a(_udivdi3.o)
                              /cygdrive/c/altera/91/nios2eds/bin/nios2-gnutools/H-i686-pc-cygwin/bin/../lib/gcc/nios2-elf/3.4.6/../../../../nios2-elf/lib/libc.a(vfprintf1.o) (__udivdi3)
/cygdrive/c/altera/91/nios2eds/bin/nios2-gnutools/H-i686-pc-cygwin/bin/../lib/gcc/nios2-elf/3.4.6/libgcc.a(_umoddi3.o)
                              /cygdrive/c/altera/91/nios2eds/bin/nios2-gnutools/H-i686-pc-cygwin/bin/../lib/gcc/nios2-elf/3.4.6/../../../../nios2-elf/lib/libc.a(vfprintf1.o) (__umoddi3)
/cygdrive/c/altera/91/nios2eds/bin/nios2-gnutools/H-i686-pc-cygwin/bin/../lib/gcc/nios2-elf/3.4.6/libgcc.a(_clz.o)
                              /cygdrive/c/altera/91/nios2eds/bin/nios2-gnutools/H-i686-pc-cygwin/bin/../lib/gcc/nios2-elf/3.4.6/libgcc.a(_udivdi3.o) (__clz_tab)
../controller_sw_bsp/libhal_bsp.a(alt_close.o)
                              /cygdrive/c/altera/91/nios2eds/bin/nios2-gnutools/H-i686-pc-cygwin/bin/../lib/gcc/nios2-elf/3.4.6/../../../../nios2-elf/lib/libc.a(closer.o) (close)
../controller_sw_bsp/libhal_bsp.a(alt_dev.o)
                              ../controller_sw_bsp/libhal_bsp.a(alt_close.o) (alt_fd_list)
../controller_sw_bsp/libhal_bsp.a(alt_errno.o)
                              ../controller_sw_bsp/libhal_bsp.a(alt_close.o) (alt_errno)
../controller_sw_bsp/libhal_bsp.a(alt_fstat.o)
                              /cygdrive/c/altera/91/nios2eds/bin/nios2-gnutools/H-i686-pc-cygwin/bin/../lib/gcc/nios2-elf/3.4.6/../../../../nios2-elf/lib/libc.a(fstatr.o) (fstat)
../controller_sw_bsp/libhal_bsp.a(alt_irq_register.o)
                              obj/ethernet_isr.o (alt_irq_register)
../controller_sw_bsp/libhal_bsp.a(alt_irq_vars.o)
                              ../controller_sw_bsp/libhal_bsp.a(alt_irq_register.o) (alt_irq_active)
../controller_sw_bsp/libhal_bsp.a(alt_isatty.o)
                              /cygdrive/c/altera/91/nios2eds/bin/nios2-gnutools/H-i686-pc-cygwin/bin/../lib/gcc/nios2-elf/3.4.6/../../../../nios2-elf/lib/libc.a(makebuf.o) (isatty)
../controller_sw_bsp/libhal_bsp.a(alt_lseek.o)
                              /cygdrive/c/altera/91/nios2eds/bin/nios2-gnutools/H-i686-pc-cygwin/bin/../lib/gcc/nios2-elf/3.4.6/../../../../nios2-elf/lib/libc.a(lseekr.o) (lseek)
../controller_sw_bsp/libhal_bsp.a(alt_main.o)
                              ../controller_sw_bsp/obj/HAL/src/crt0.o (alt_main)
../controller_sw_bsp/libhal_bsp.a(alt_malloc_lock.o)
                              /cygdrive/c/altera/91/nios2eds/bin/nios2-gnutools/H-i686-pc-cygwin/bin/../lib/gcc/nios2-elf/3.4.6/../../../../nios2-elf/lib/libc.a(mallocr.o) (__malloc_lock)
../controller_sw_bsp/libhal_bsp.a(alt_open.o)
                              /cygdrive/c/altera/91/nios2eds/bin/nios2-gnutools/H-i686-pc-cygwin/bin/../lib/gcc/nios2-elf/3.4.6/../../../../nios2-elf/lib/libc.a(openr.o) (open)
../controller_sw_bsp/libhal_bsp.a(alt_printf.o)
                              obj/main.o (alt_printf)
../controller_sw_bsp/libhal_bsp.a(alt_putchar.o)
                              ../controller_sw_bsp/libhal_bsp.a(alt_printf.o) (alt_putchar)
../controller_sw_bsp/libhal_bsp.a(alt_read.o)
                              /cygdrive/c/altera/91/nios2eds/bin/nios2-gnutools/H-i686-pc-cygwin/bin/../lib/gcc/nios2-elf/3.4.6/../../../../nios2-elf/lib/libc.a(readr.o) (read)
../controller_sw_bsp/libhal_bsp.a(alt_release_fd.o)
                              ../controller_sw_bsp/libhal_bsp.a(alt_close.o) (alt_release_fd)
../controller_sw_bsp/libhal_bsp.a(alt_sbrk.o)
                              /cygdrive/c/altera/91/nios2eds/bin/nios2-gnutools/H-i686-pc-cygwin/bin/../lib/gcc/nios2-elf/3.4.6/../../../../nios2-elf/lib/libc.a(sbrkr.o) (sbrk)
../controller_sw_bsp/libhal_bsp.a(alt_usleep.o)
                              obj/main.o (usleep)
../controller_sw_bsp/libhal_bsp.a(alt_write.o)
                              /cygdrive/c/altera/91/nios2eds/bin/nios2-gnutools/H-i686-pc-cygwin/bin/../lib/gcc/nios2-elf/3.4.6/../../../../nios2-elf/lib/libc.a(writer.o) (write)
../controller_sw_bsp/libhal_bsp.a(alt_sys_init.o)
                              ../controller_sw_bsp/libhal_bsp.a(alt_main.o) (alt_irq_init)
../controller_sw_bsp/libhal_bsp.a(altera_avalon_jtag_uart_fd.o)
                              ../controller_sw_bsp/libhal_bsp.a(alt_sys_init.o) (altera_avalon_jtag_uart_read_fd)
../controller_sw_bsp/libhal_bsp.a(altera_avalon_jtag_uart_init.o)
                              ../controller_sw_bsp/libhal_bsp.a(alt_sys_init.o) (altera_avalon_jtag_uart_init)
../controller_sw_bsp/libhal_bsp.a(altera_avalon_jtag_uart_ioctl.o)
                              ../controller_sw_bsp/libhal_bsp.a(altera_avalon_jtag_uart_fd.o) (altera_avalon_jtag_uart_ioctl)
../controller_sw_bsp/libhal_bsp.a(altera_avalon_jtag_uart_read.o)
                              ../controller_sw_bsp/libhal_bsp.a(altera_avalon_jtag_uart_fd.o) (altera_avalon_jtag_uart_read)
../controller_sw_bsp/libhal_bsp.a(altera_avalon_jtag_uart_write.o)
                              ../controller_sw_bsp/libhal_bsp.a(altera_avalon_jtag_uart_fd.o) (altera_avalon_jtag_uart_write)
../controller_sw_bsp/libhal_bsp.a(altera_avalon_lcd_16207.o)
                              ../controller_sw_bsp/libhal_bsp.a(alt_sys_init.o) (altera_avalon_lcd_16207_init)
../controller_sw_bsp/libhal_bsp.a(altera_avalon_lcd_16207_fd.o)
                              ../controller_sw_bsp/libhal_bsp.a(alt_sys_init.o) (altera_avalon_lcd_16207_write_fd)
../controller_sw_bsp/libhal_bsp.a(altera_avalon_timer_sc.o)
                              ../controller_sw_bsp/libhal_bsp.a(alt_sys_init.o) (alt_avalon_timer_sc_init)
../controller_sw_bsp/libhal_bsp.a(altera_up_avalon_pixel_buffer.o)
                              obj/main.o (alt_up_pixel_buffer_open_dev)
../controller_sw_bsp/libhal_bsp.a(alt_alarm_start.o)
                              ../controller_sw_bsp/libhal_bsp.a(altera_avalon_jtag_uart_init.o) (alt_alarm_start)
../controller_sw_bsp/libhal_bsp.a(alt_busy_sleep.o)
                              ../controller_sw_bsp/libhal_bsp.a(alt_usleep.o) (alt_busy_sleep)
../controller_sw_bsp/libhal_bsp.a(alt_dev_llist_insert.o)
                              ../controller_sw_bsp/libhal_bsp.a(alt_sys_init.o) (alt_dev_llist_insert)
../controller_sw_bsp/libhal_bsp.a(alt_do_ctors.o)
                              ../controller_sw_bsp/libhal_bsp.a(alt_main.o) (_do_ctors)
../controller_sw_bsp/libhal_bsp.a(alt_do_dtors.o)
                              ../controller_sw_bsp/libhal_bsp.a(alt_main.o) (_do_dtors)
../controller_sw_bsp/libhal_bsp.a(alt_find_dev.o)
                              ../controller_sw_bsp/libhal_bsp.a(alt_open.o) (alt_find_dev)
../controller_sw_bsp/libhal_bsp.a(alt_find_file.o)
                              ../controller_sw_bsp/libhal_bsp.a(alt_open.o) (alt_find_file)
../controller_sw_bsp/libhal_bsp.a(alt_get_fd.o)
                              ../controller_sw_bsp/libhal_bsp.a(alt_open.o) (alt_get_fd)
../controller_sw_bsp/libhal_bsp.a(alt_io_redirect.o)
                              ../controller_sw_bsp/libhal_bsp.a(alt_main.o) (alt_io_redirect)
../controller_sw_bsp/libhal_bsp.a(alt_irq_entry.o)
                              ../controller_sw_bsp/libhal_bsp.a(alt_irq_register.o) (alt_irq_entry)
../controller_sw_bsp/libhal_bsp.a(alt_irq_handler.o)
                              ../controller_sw_bsp/libhal_bsp.a(alt_irq_register.o) (alt_irq_handler)
../controller_sw_bsp/libhal_bsp.a(alt_tick.o)
                              ../controller_sw_bsp/libhal_bsp.a(altera_avalon_jtag_uart_init.o) (_alt_tick_rate)
../controller_sw_bsp/libhal_bsp.a(altera_nios2_irq.o)
                              ../controller_sw_bsp/libhal_bsp.a(alt_sys_init.o) (altera_nios2_irq_init)
../controller_sw_bsp/libhal_bsp.a(alt_exception_entry.o)
                              ../controller_sw_bsp/libhal_bsp.a(alt_irq_entry.o) (alt_exception)
/cygdrive/c/altera/91/nios2eds/bin/nios2-gnutools/H-i686-pc-cygwin/bin/../lib/gcc/nios2-elf/3.4.6/../../../../nios2-elf/lib/libc.a(atexit.o)
                              ../controller_sw_bsp/libhal_bsp.a(alt_main.o) (atexit)
/cygdrive/c/altera/91/nios2eds/bin/nios2-gnutools/H-i686-pc-cygwin/bin/../lib/gcc/nios2-elf/3.4.6/../../../../nios2-elf/lib/libc.a(ctype_.o)
                              ../controller_sw_bsp/libhal_bsp.a(altera_avalon_lcd_16207.o) (_ctype_)
/cygdrive/c/altera/91/nios2eds/bin/nios2-gnutools/H-i686-pc-cygwin/bin/../lib/gcc/nios2-elf/3.4.6/../../../../nios2-elf/lib/libc.a(exit.o)
                              ../controller_sw_bsp/libhal_bsp.a(alt_main.o) (exit)
/cygdrive/c/altera/91/nios2eds/bin/nios2-gnutools/H-i686-pc-cygwin/bin/../lib/gcc/nios2-elf/3.4.6/../../../../nios2-elf/lib/libc.a(memcmp.o)
                              ../controller_sw_bsp/libhal_bsp.a(alt_find_dev.o) (memcmp)
/cygdrive/c/altera/91/nios2eds/bin/nios2-gnutools/H-i686-pc-cygwin/bin/../lib/gcc/nios2-elf/3.4.6/../../../../nios2-elf/lib/libc.a(putc.o)
                              ../controller_sw_bsp/libhal_bsp.a(alt_putchar.o) (putc)
/cygdrive/c/altera/91/nios2eds/bin/nios2-gnutools/H-i686-pc-cygwin/bin/../lib/gcc/nios2-elf/3.4.6/../../../../nios2-elf/lib/libc.a(wbuf.o)
                              /cygdrive/c/altera/91/nios2eds/bin/nios2-gnutools/H-i686-pc-cygwin/bin/../lib/gcc/nios2-elf/3.4.6/../../../../nios2-elf/lib/libc.a(putc.o) (__swbuf)
../controller_sw_bsp/libhal_bsp.a(alt_exit.o)
                              /cygdrive/c/altera/91/nios2eds/bin/nios2-gnutools/H-i686-pc-cygwin/bin/../lib/gcc/nios2-elf/3.4.6/../../../../nios2-elf/lib/libc.a(exit.o) (_exit)

Allocating common symbols
Common symbol       size              file

alt_irq             0x100             ../controller_sw_bsp/libhal_bsp.a(alt_irq_handler.o)
p1_ship             0xa0              obj/main.o
_atexit0            0x10c             /cygdrive/c/altera/91/nios2eds/bin/nios2-gnutools/H-i686-pc-cygwin/bin/../lib/gcc/nios2-elf/3.4.6/../../../../nios2-elf/lib/libc.a(atexit.o)
packets             0x400             obj/main.o
p2_ship             0xa0              obj/main.o

Memory Configuration

Name             Origin             Length             Attributes
reset            0x00800000         0x00000020
sram_0           0x00800020         0x007fffe0
*default*        0x00000000         0xffffffff

Linker script and memory map

LOAD ../controller_sw_bsp/obj/HAL/src/crt0.o
LOAD obj/collision_detection.o
LOAD obj/draw.o
LOAD obj/ethernet_isr.o
LOAD obj/game_loop.o
LOAD obj/main.o
LOAD obj/ship.o
LOAD obj/util.o
LOAD /cygdrive/c/altera/91/nios2eds/bin/nios2-gnutools/H-i686-pc-cygwin/bin/../lib/gcc/nios2-elf/3.4.6/../../../../nios2-elf/lib/libstdc++.a
LOAD /cygdrive/c/altera/91/nios2eds/bin/nios2-gnutools/H-i686-pc-cygwin/bin/../lib/gcc/nios2-elf/3.4.6/../../../../nios2-elf/lib/libm.a
LOAD /cygdrive/c/altera/91/nios2eds/bin/nios2-gnutools/H-i686-pc-cygwin/bin/../lib/gcc/nios2-elf/3.4.6/libgcc.a
START GROUP
LOAD /cygdrive/c/altera/91/nios2eds/bin/nios2-gnutools/H-i686-pc-cygwin/bin/../lib/gcc/nios2-elf/3.4.6/../../../../nios2-elf/lib/libc.a
LOAD /cygdrive/c/altera/91/nios2eds/bin/nios2-gnutools/H-i686-pc-cygwin/bin/../lib/gcc/nios2-elf/3.4.6/libgcc.a
LOAD ../controller_sw_bsp/libhal_bsp.a
END GROUP
LOAD /cygdrive/c/altera/91/nios2eds/bin/nios2-gnutools/H-i686-pc-cygwin/bin/../lib/gcc/nios2-elf/3.4.6/libgcc.a
                0x00800000                __alt_mem_sdram_0 = 0x800000
                0x01080000                __alt_mem_sram_0 = 0x1080000

.entry          0x00800000       0x20
 *(.entry)
 .entry         0x00800000       0x20 ../controller_sw_bsp/obj/HAL/src/crt0.o
                0x00800000                __reset

.exceptions     0x00800020      0x1a8
                0x00800020                PROVIDE (__ram_exceptions_start, <code 336> (.))
                0x00800020                . = ALIGN (0x20)
 *(.irq)
 *(.exceptions.entry.label)
 *(.exceptions.entry.user)
 *(.exceptions.entry)
 .exceptions.entry
                0x00800020       0x54 ../controller_sw_bsp/libhal_bsp.a(alt_exception_entry.o)
 *(.exceptions.irqtest.user)
 *(.exceptions.irqtest)
 .exceptions.irqtest
                0x00800074       0x10 ../controller_sw_bsp/libhal_bsp.a(alt_irq_entry.o)
 *(.exceptions.irqhandler.user)
 *(.exceptions.irqhandler)
 .exceptions.irqhandler
                0x00800084        0x4 ../controller_sw_bsp/libhal_bsp.a(alt_irq_entry.o)
 *(.exceptions.irqreturn.user)
 *(.exceptions.irqreturn)
 .exceptions.irqreturn
                0x00800088        0x4 ../controller_sw_bsp/libhal_bsp.a(alt_irq_entry.o)
 *(.exceptions.notirq.label)
 *(.exceptions.notirq.user)
 *(.exceptions.notirq)
 .exceptions.notirq
                0x0080008c        0x8 ../controller_sw_bsp/libhal_bsp.a(alt_exception_entry.o)
 *(.exceptions.soft.user)
 *(.exceptions.soft)
 *(.exceptions.unknown.user)
 *(.exceptions.unknown)
 .exceptions.unknown
                0x00800094        0x4 ../controller_sw_bsp/libhal_bsp.a(alt_exception_entry.o)
 *(.exceptions.exit.label)
 *(.exceptions.exit.user)
 *(.exceptions.exit)
 .exceptions.exit
                0x00800098       0x54 ../controller_sw_bsp/libhal_bsp.a(alt_exception_entry.o)
 *(.exceptions)
 .exceptions    0x008000ec       0xdc ../controller_sw_bsp/libhal_bsp.a(alt_irq_handler.o)
                0x008000ec                alt_irq_handler
                0x008001c8                PROVIDE (__ram_exceptions_end, <code 336> (.))
                0x00800020                PROVIDE (__flash_exceptions_start, LOADADDR (.exceptions))

.text           0x008001c8    0x19320
                0x008001c8                PROVIDE (stext, <code 336> (.))
 *(.interp)
 *(.hash)
 *(.dynsym)
 *(.dynstr)
 *(.gnu.version)
 *(.gnu.version_d)
 *(.gnu.version_r)
 *(.rel.init)
 *(.rela.init)
 *(.rel.text .rel.text.* .rel.gnu.linkonce.t.*)
 *(.rela.text .rela.text.* .rela.gnu.linkonce.t.*)
 *(.rel.fini)
 *(.rela.fini)
 *(.rel.rodata .rel.rodata.* .rel.gnu.linkonce.r.*)
 *(.rela.rodata .rela.rodata.* .rela.gnu.linkonce.r.*)
 *(.rel.data .rel.data.* .rel.gnu.linkonce.d.*)
 *(.rela.data .rela.data.* .rela.gnu.linkonce.d.*)
 *(.rel.tdata .rel.tdata.* .rel.gnu.linkonce.td.*)
 *(.rela.tdata .rela.tdata.* .rela.gnu.linkonce.td.*)
 *(.rel.tbss .rel.tbss.* .rel.gnu.linkonce.tb.*)
 *(.rela.tbss .rela.tbss.* .rela.gnu.linkonce.tb.*)
 *(.rel.ctors)
 *(.rela.ctors)
 *(.rel.dtors)
 *(.rela.dtors)
 *(.rel.got)
 *(.rela.got)
 *(.rel.sdata .rel.sdata.* .rel.gnu.linkonce.s.*)
 *(.rela.sdata .rela.sdata.* .rela.gnu.linkonce.s.*)
 *(.rel.sbss .rel.sbss.* .rel.gnu.linkonce.sb.*)
 *(.rela.sbss .rela.sbss.* .rela.gnu.linkonce.sb.*)
 *(.rel.sdata2 .rel.sdata2.* .rel.gnu.linkonce.s2.*)
 *(.rela.sdata2 .rela.sdata2.* .rela.gnu.linkonce.s2.*)
 *(.rel.sbss2 .rel.sbss2.* .rel.gnu.linkonce.sb2.*)
 *(.rela.sbss2 .rela.sbss2.* .rela.gnu.linkonce.sb2.*)
 *(.rel.bss .rel.bss.* .rel.gnu.linkonce.b.*)
 *(.rela.bss .rela.bss.* .rela.gnu.linkonce.b.*)
 *(.rel.plt)
 *(.rela.plt)
 *(.init)
 *(.plt)
 *(.text .stub .text.* .gnu.linkonce.t.*)
 .text          0x008001c8       0x48 ../controller_sw_bsp/obj/HAL/src/crt0.o
                0x008001c8                _start
 .text          0x00800210     0x1648 obj/collision_detection.o
                0x00800f30                calculate_axis_of_ship
                0x008002e0                check_wall_collide_ew
                0x00800404                ships_seperating_axis_theorem_collision_detect
                0x008003a8                check_ships_collide
                0x0080179c                is_ccw_abc
                0x00801018                straight_line_vector_projection
                0x00800210                check_wall_collide_ns
 .text          0x00801858     0x1e34 obj/draw.o
                0x00802038                rotate_a_matrix
                0x00802214                copy_matrix_and_round
                0x00802408                free_matrix
                0x008029c8                draw_letter
                0x008026d8                draw_sensor
                0x00802384                allocate_matrix
                0x0080293c                draw_string
                0x00801f80                translate_a_matrix
                0x008027a0                clean_shot
                0x00801ed8                init_draw
                0x00802614                clean_sensor
                0x00801858                draw_ship
                0x00802474                matrix_mult
                0x00801bac                clean_ship
                0x00803508                draw_font
                0x008022d4                copy_matrix
                0x00802864                draw_shot
 .text          0x0080368c      0xa60 obj/ethernet_isr.o
                0x0080370c                get_player_info
                0x00803d14                update_packets_to_send_back
                0x00803cd8                disable_packet_interrupt
                0x0080368c                timer_packet_interrupt_isr
                0x00803c7c                init_packet_interrupt_isr
 .text          0x008040ec      0xe64 obj/game_loop.o
                0x008040ec                game_loop
                0x00804f04                get_opponent_ship
 .text          0x00804f50      0x74c obj/main.o
                0x00804f50                main
 .text          0x0080569c     0x2324 obj/ship.o
                0x00805ef8                initialize_power_crystals
                0x00805db8                degrade_crystals_based_on_shot
                0x0080745c                set_power_link
                0x0080693c                power_calculation
                0x00805bc8                re_init_ship
                0x00806e9c                lookup_power_link
                0x0080569c                init_ship
                0x00805aac                reset_ship
 .text          0x008079c0       0x5c obj/util.o
                0x008079c0                number_to_character_string
 .text          0x00807a1c      0x170 /cygdrive/c/altera/91/nios2eds/bin/nios2-gnutools/H-i686-pc-cygwin/bin/../lib/gcc/nios2-elf/3.4.6/../../../../nios2-elf/lib/libm.a(s_cos.o)
                0x00807a1c                cos
 .text          0x00807b8c      0x170 /cygdrive/c/altera/91/nios2eds/bin/nios2-gnutools/H-i686-pc-cygwin/bin/../lib/gcc/nios2-elf/3.4.6/../../../../nios2-elf/lib/libm.a(s_sin.o)
                0x00807b8c                sin
 .text          0x00807cfc       0xa8 /cygdrive/c/altera/91/nios2eds/bin/nios2-gnutools/H-i686-pc-cygwin/bin/../lib/gcc/nios2-elf/3.4.6/../../../../nios2-elf/lib/libm.a(sf_round.o)
                0x00807cfc                roundf
 .text          0x00807da4      0x13c /cygdrive/c/altera/91/nios2eds/bin/nios2-gnutools/H-i686-pc-cygwin/bin/../lib/gcc/nios2-elf/3.4.6/../../../../nios2-elf/lib/libm.a(w_sqrt.o)
                0x00807da4                sqrt
 .text          0x00807ee0      0x83c /cygdrive/c/altera/91/nios2eds/bin/nios2-gnutools/H-i686-pc-cygwin/bin/../lib/gcc/nios2-elf/3.4.6/../../../../nios2-elf/lib/libm.a(e_rem_pio2.o)
                0x00807ee0                __ieee754_rem_pio2
 .text          0x0080871c      0x31c /cygdrive/c/altera/91/nios2eds/bin/nios2-gnutools/H-i686-pc-cygwin/bin/../lib/gcc/nios2-elf/3.4.6/../../../../nios2-elf/lib/libm.a(e_sqrt.o)
                0x0080871c                __ieee754_sqrt
 .text          0x00808a38      0x3e0 /cygdrive/c/altera/91/nios2eds/bin/nios2-gnutools/H-i686-pc-cygwin/bin/../lib/gcc/nios2-elf/3.4.6/../../../../nios2-elf/lib/libm.a(k_cos.o)
                0x00808a38                __kernel_cos
 .text          0x00808e18      0xdf0 /cygdrive/c/altera/91/nios2eds/bin/nios2-gnutools/H-i686-pc-cygwin/bin/../lib/gcc/nios2-elf/3.4.6/../../../../nios2-elf/lib/libm.a(k_rem_pio2.o)
                0x00808e18                __kernel_rem_pio2
 .text          0x00809c08      0x320 /cygdrive/c/altera/91/nios2eds/bin/nios2-gnutools/H-i686-pc-cygwin/bin/../lib/gcc/nios2-elf/3.4.6/../../../../nios2-elf/lib/libm.a(k_sin.o)
                0x00809c08                __kernel_sin
 .text          0x00809f28       0x18 /cygdrive/c/altera/91/nios2eds/bin/nios2-gnutools/H-i686-pc-cygwin/bin/../lib/gcc/nios2-elf/3.4.6/../../../../nios2-elf/lib/libm.a(s_fabs.o)
                0x00809f28                fabs
 .text          0x00809f40      0x210 /cygdrive/c/altera/91/nios2eds/bin/nios2-gnutools/H-i686-pc-cygwin/bin/../lib/gcc/nios2-elf/3.4.6/../../../../nios2-elf/lib/libm.a(s_floor.o)
                0x00809f40                floor
 .text          0x0080a150       0x34 /cygdrive/c/altera/91/nios2eds/bin/nios2-gnutools/H-i686-pc-cygwin/bin/../lib/gcc/nios2-elf/3.4.6/../../../../nios2-elf/lib/libm.a(s_isnan.o)
                0x0080a150                isnan
 .text          0x0080a184        0x8 /cygdrive/c/altera/91/nios2eds/bin/nios2-gnutools/H-i686-pc-cygwin/bin/../lib/gcc/nios2-elf/3.4.6/../../../../nios2-elf/lib/libm.a(s_matherr.o)
                0x0080a184                matherr
 .text          0x0080a18c      0x1e8 /cygdrive/c/altera/91/nios2eds/bin/nios2-gnutools/H-i686-pc-cygwin/bin/../lib/gcc/nios2-elf/3.4.6/../../../../nios2-elf/lib/libm.a(s_scalbn.o)
                0x0080a18c                scalbn
 .text          0x0080a374       0x24 /cygdrive/c/altera/91/nios2eds/bin/nios2-gnutools/H-i686-pc-cygwin/bin/../lib/gcc/nios2-elf/3.4.6/../../../../nios2-elf/lib/libm.a(s_copysign.o)
                0x0080a374                copysign
 .text          0x0080a398       0x6c /cygdrive/c/altera/91/nios2eds/bin/nios2-gnutools/H-i686-pc-cygwin/bin/../lib/gcc/nios2-elf/3.4.6/libgcc.a(_fixunssfsi.o)
                0x0080a398                __fixunssfsi
 .text          0x0080a404      0x294 /cygdrive/c/altera/91/nios2eds/bin/nios2-gnutools/H-i686-pc-cygwin/bin/../lib/gcc/nios2-elf/3.4.6/libgcc.a(_addsub_sf.o)
                0x0080a634                __subsf3
                0x0080a5dc                __addsf3
 .text          0x0080a698      0x1c4 /cygdrive/c/altera/91/nios2eds/bin/nios2-gnutools/H-i686-pc-cygwin/bin/../lib/gcc/nios2-elf/3.4.6/libgcc.a(_mul_sf.o)
                0x0080a698                __mulsf3
 .text          0x0080a85c      0x138 /cygdrive/c/altera/91/nios2eds/bin/nios2-gnutools/H-i686-pc-cygwin/bin/../lib/gcc/nios2-elf/3.4.6/libgcc.a(_div_sf.o)
                0x0080a85c                __divsf3
 .text          0x0080a994       0x80 /cygdrive/c/altera/91/nios2eds/bin/nios2-gnutools/H-i686-pc-cygwin/bin/../lib/gcc/nios2-elf/3.4.6/libgcc.a(_eq_sf.o)
                0x0080a994                __eqsf2
 .text          0x0080aa14       0x80 /cygdrive/c/altera/91/nios2eds/bin/nios2-gnutools/H-i686-pc-cygwin/bin/../lib/gcc/nios2-elf/3.4.6/libgcc.a(_ne_sf.o)
                0x0080aa14                __nesf2
 .text          0x0080aa94       0x80 /cygdrive/c/altera/91/nios2eds/bin/nios2-gnutools/H-i686-pc-cygwin/bin/../lib/gcc/nios2-elf/3.4.6/libgcc.a(_gt_sf.o)
                0x0080aa94                __gtsf2
 .text          0x0080ab14       0x80 /cygdrive/c/altera/91/nios2eds/bin/nios2-gnutools/H-i686-pc-cygwin/bin/../lib/gcc/nios2-elf/3.4.6/libgcc.a(_ge_sf.o)
                0x0080ab14                __gesf2
 .text          0x0080ab94       0x80 /cygdrive/c/altera/91/nios2eds/bin/nios2-gnutools/H-i686-pc-cygwin/bin/../lib/gcc/nios2-elf/3.4.6/libgcc.a(_lt_sf.o)
                0x0080ab94                __ltsf2
 .text          0x0080ac14       0x80 /cygdrive/c/altera/91/nios2eds/bin/nios2-gnutools/H-i686-pc-cygwin/bin/../lib/gcc/nios2-elf/3.4.6/libgcc.a(_le_sf.o)
                0x0080ac14                __lesf2
 .text          0x0080ac94       0x98 /cygdrive/c/altera/91/nios2eds/bin/nios2-gnutools/H-i686-pc-cygwin/bin/../lib/gcc/nios2-elf/3.4.6/libgcc.a(_si_to_sf.o)
                0x0080ac94                __floatsisf
 .text          0x0080ad2c       0x94 /cygdrive/c/altera/91/nios2eds/bin/nios2-gnutools/H-i686-pc-cygwin/bin/../lib/gcc/nios2-elf/3.4.6/libgcc.a(_sf_to_si.o)
                0x0080ad2c                __fixsfsi
 .text          0x0080adc0       0x5c /cygdrive/c/altera/91/nios2eds/bin/nios2-gnutools/H-i686-pc-cygwin/bin/../lib/gcc/nios2-elf/3.4.6/libgcc.a(_sf_to_df.o)
                0x0080adc0                __extendsfdf2
 .text          0x0080ae1c      0x400 /cygdrive/c/altera/91/nios2eds/bin/nios2-gnutools/H-i686-pc-cygwin/bin/../lib/gcc/nios2-elf/3.4.6/libgcc.a(_addsub_df.o)
                0x0080b138                __adddf3
                0x0080b1a4                __subdf3
 .text          0x0080b21c      0x400 /cygdrive/c/altera/91/nios2eds/bin/nios2-gnutools/H-i686-pc-cygwin/bin/../lib/gcc/nios2-elf/3.4.6/libgcc.a(_mul_df.o)
                0x0080b21c                __muldf3
 .text          0x0080b61c      0x250 /cygdrive/c/altera/91/nios2eds/bin/nios2-gnutools/H-i686-pc-cygwin/bin/../lib/gcc/nios2-elf/3.4.6/libgcc.a(_div_df.o)
                0x0080b61c                __divdf3
 .text          0x0080b86c       0x8c /cygdrive/c/altera/91/nios2eds/bin/nios2-gnutools/H-i686-pc-cygwin/bin/../lib/gcc/nios2-elf/3.4.6/libgcc.a(_eq_df.o)
                0x0080b86c                __eqdf2
 .text          0x0080b8f8       0x8c /cygdrive/c/altera/91/nios2eds/bin/nios2-gnutools/H-i686-pc-cygwin/bin/../lib/gcc/nios2-elf/3.4.6/libgcc.a(_ne_df.o)
                0x0080b8f8                __nedf2
 .text          0x0080b984       0x8c /cygdrive/c/altera/91/nios2eds/bin/nios2-gnutools/H-i686-pc-cygwin/bin/../lib/gcc/nios2-elf/3.4.6/libgcc.a(_gt_df.o)
                0x0080b984                __gtdf2
 .text          0x0080ba10       0x8c /cygdrive/c/altera/91/nios2eds/bin/nios2-gnutools/H-i686-pc-cygwin/bin/../lib/gcc/nios2-elf/3.4.6/libgcc.a(_ge_df.o)
                0x0080ba10                __gedf2
 .text          0x0080ba9c       0x8c /cygdrive/c/altera/91/nios2eds/bin/nios2-gnutools/H-i686-pc-cygwin/bin/../lib/gcc/nios2-elf/3.4.6/libgcc.a(_lt_df.o)
                0x0080ba9c                __ltdf2
 .text          0x0080bb28       0xd0 /cygdrive/c/altera/91/nios2eds/bin/nios2-gnutools/H-i686-pc-cygwin/bin/../lib/gcc/nios2-elf/3.4.6/libgcc.a(_si_to_df.o)
                0x0080bb28                __floatsidf
 .text          0x0080bbf8       0xb0 /cygdrive/c/altera/91/nios2eds/bin/nios2-gnutools/H-i686-pc-cygwin/bin/../lib/gcc/nios2-elf/3.4.6/libgcc.a(_df_to_si.o)
                0x0080bbf8                __fixdfsi
 .text          0x0080bca8       0x40 /cygdrive/c/altera/91/nios2eds/bin/nios2-gnutools/H-i686-pc-cygwin/bin/../lib/gcc/nios2-elf/3.4.6/libgcc.a(_make_df.o)
                0x0080bca8                __make_dp
 .text          0x0080bce8       0x70 /cygdrive/c/altera/91/nios2eds/bin/nios2-gnutools/H-i686-pc-cygwin/bin/../lib/gcc/nios2-elf/3.4.6/libgcc.a(_df_to_sf.o)
                0x0080bce8                __truncdfsf2
 .text          0x0080bd58      0x11c /cygdrive/c/altera/91/nios2eds/bin/nios2-gnutools/H-i686-pc-cygwin/bin/../lib/gcc/nios2-elf/3.4.6/libgcc.a(lib2-divmod.o)
                0x0080be54                __udivsi3
                0x0080be64                __umodsi3
                0x0080bdb8                __divsi3
                0x0080be08                __modsi3
 .text          0x0080be74       0x90 /cygdrive/c/altera/91/nios2eds/bin/nios2-gnutools/H-i686-pc-cygwin/bin/../lib/gcc/nios2-elf/3.4.6/libgcc.a(_muldi3.o)
                0x0080be74                __muldi3
 .text          0x0080bf04       0x20 /cygdrive/c/altera/91/nios2eds/bin/nios2-gnutools/H-i686-pc-cygwin/bin/../lib/gcc/nios2-elf/3.4.6/libgcc.a(_negdi2.o)
                0x0080bf04                __negdi2
 .text          0x0080bf24       0x50 /cygdrive/c/altera/91/nios2eds/bin/nios2-gnutools/H-i686-pc-cygwin/bin/../lib/gcc/nios2-elf/3.4.6/libgcc.a(_lshrdi3.o)
                0x0080bf24                __lshrdi3
 .text          0x0080bf74      0x134 /cygdrive/c/altera/91/nios2eds/bin/nios2-gnutools/H-i686-pc-cygwin/bin/../lib/gcc/nios2-elf/3.4.6/libgcc.a(_pack_sf.o)
                0x0080bf74                __pack_f
 .text          0x0080c0a8       0xb4 /cygdrive/c/altera/91/nios2eds/bin/nios2-gnutools/H-i686-pc-cygwin/bin/../lib/gcc/nios2-elf/3.4.6/libgcc.a(_unpack_sf.o)
                0x0080c0a8                __unpack_f
 .text          0x0080c15c       0xf4 /cygdrive/c/altera/91/nios2eds/bin/nios2-gnutools/H-i686-pc-cygwin/bin/../lib/gcc/nios2-elf/3.4.6/libgcc.a(_fpcmp_parts_sf.o)
                0x0080c15c                __fpcmp_parts_f
 .text          0x0080c250       0x2c /cygdrive/c/altera/91/nios2eds/bin/nios2-gnutools/H-i686-pc-cygwin/bin/../lib/gcc/nios2-elf/3.4.6/libgcc.a(_make_sf.o)
                0x0080c250                __make_fp
 .text          0x0080c27c      0x290 /cygdrive/c/altera/91/nios2eds/bin/nios2-gnutools/H-i686-pc-cygwin/bin/../lib/gcc/nios2-elf/3.4.6/libgcc.a(_pack_df.o)
                0x0080c27c                __pack_d
 .text          0x0080c50c      0x128 /cygdrive/c/altera/91/nios2eds/bin/nios2-gnutools/H-i686-pc-cygwin/bin/../lib/gcc/nios2-elf/3.4.6/libgcc.a(_unpack_df.o)
                0x0080c50c                __unpack_d
 .text          0x0080c634      0x114 /cygdrive/c/altera/91/nios2eds/bin/nios2-gnutools/H-i686-pc-cygwin/bin/../lib/gcc/nios2-elf/3.4.6/libgcc.a(_fpcmp_parts_df.o)
                0x0080c634                __fpcmp_parts_d
 .text          0x0080c748       0x50 /cygdrive/c/altera/91/nios2eds/bin/nios2-gnutools/H-i686-pc-cygwin/bin/../lib/gcc/nios2-elf/3.4.6/libgcc.a(_ashldi3.o)
                0x0080c748                __ashldi3
 .text          0x0080c798       0x1c /cygdrive/c/altera/91/nios2eds/bin/nios2-gnutools/H-i686-pc-cygwin/bin/../lib/gcc/nios2-elf/3.4.6/../../../../nios2-elf/lib/libc.a(calloc.o)
                0x0080c798                calloc
 .text          0x0080c7b4       0xb0 /cygdrive/c/altera/91/nios2eds/bin/nios2-gnutools/H-i686-pc-cygwin/bin/../lib/gcc/nios2-elf/3.4.6/../../../../nios2-elf/lib/libc.a(callocr.o)
                0x0080c7b4                _calloc_r
 .text          0x0080c864        0x8 /cygdrive/c/altera/91/nios2eds/bin/nios2-gnutools/H-i686-pc-cygwin/bin/../lib/gcc/nios2-elf/3.4.6/../../../../nios2-elf/lib/libc.a(errno.o)
                0x0080c864                __errno
 .text          0x0080c86c      0x10c /cygdrive/c/altera/91/nios2eds/bin/nios2-gnutools/H-i686-pc-cygwin/bin/../lib/gcc/nios2-elf/3.4.6/../../../../nios2-elf/lib/libc.a(fopen.o)
                0x0080c95c                fopen
                0x0080c86c                _fopen_r
 .text          0x0080c978       0x24 /cygdrive/c/altera/91/nios2eds/bin/nios2-gnutools/H-i686-pc-cygwin/bin/../lib/gcc/nios2-elf/3.4.6/../../../../nios2-elf/lib/libc.a(fprintf.o)
                0x0080c978                fprintf
 .text          0x0080c99c      0x438 /cygdrive/c/altera/91/nios2eds/bin/nios2-gnutools/H-i686-pc-cygwin/bin/../lib/gcc/nios2-elf/3.4.6/../../../../nios2-elf/lib/libc.a(fseek.o)
                0x0080cdb0                fseek
                0x0080c99c                _fseek_r
 .text          0x0080cdd4       0x60 /cygdrive/c/altera/91/nios2eds/bin/nios2-gnutools/H-i686-pc-cygwin/bin/../lib/gcc/nios2-elf/3.4.6/../../../../nios2-elf/lib/libc.a(fstatr.o)
                0x0080cdd4                _fstat_r
 .text          0x0080ce34      0x148 /cygdrive/c/altera/91/nios2eds/bin/nios2-gnutools/H-i686-pc-cygwin/bin/../lib/gcc/nios2-elf/3.4.6/../../../../nios2-elf/lib/libc.a(makebuf.o)
                0x0080ce34                __smakebuf
 .text          0x0080cf7c       0x28 /cygdrive/c/altera/91/nios2eds/bin/nios2-gnutools/H-i686-pc-cygwin/bin/../lib/gcc/nios2-elf/3.4.6/../../../../nios2-elf/lib/libc.a(malloc.o)
                0x0080cf7c                malloc
                0x0080cf90                free
 .text          0x0080cfa4      0x6b8 /cygdrive/c/altera/91/nios2eds/bin/nios2-gnutools/H-i686-pc-cygwin/bin/../lib/gcc/nios2-elf/3.4.6/../../../../nios2-elf/lib/libc.a(mallocr.o)
                0x0080cfa4                _malloc_r
 .text          0x0080d65c       0xbc /cygdrive/c/altera/91/nios2eds/bin/nios2-gnutools/H-i686-pc-cygwin/bin/../lib/gcc/nios2-elf/3.4.6/../../../../nios2-elf/lib/libc.a(memcpy.o)
                0x0080d65c                memcpy
 .text          0x0080d718       0x9c /cygdrive/c/altera/91/nios2eds/bin/nios2-gnutools/H-i686-pc-cygwin/bin/../lib/gcc/nios2-elf/3.4.6/../../../../nios2-elf/lib/libc.a(memset.o)
                0x0080d718                memset
 .text          0x0080d7b4       0x64 /cygdrive/c/altera/91/nios2eds/bin/nios2-gnutools/H-i686-pc-cygwin/bin/../lib/gcc/nios2-elf/3.4.6/../../../../nios2-elf/lib/libc.a(openr.o)
                0x0080d7b4                _open_r
 .text          0x0080d818       0x84 /cygdrive/c/altera/91/nios2eds/bin/nios2-gnutools/H-i686-pc-cygwin/bin/../lib/gcc/nios2-elf/3.4.6/../../../../nios2-elf/lib/libc.a(rand.o)
                0x0080d82c                rand
                0x0080d818                srand
 .text          0x0080d89c      0x1ac /cygdrive/c/altera/91/nios2eds/bin/nios2-gnutools/H-i686-pc-cygwin/bin/../lib/gcc/nios2-elf/3.4.6/../../../../nios2-elf/lib/libc.a(refill.o)
                0x0080d8c0                __srefill
 .text          0x0080da48       0x4c /cygdrive/c/altera/91/nios2eds/bin/nios2-gnutools/H-i686-pc-cygwin/bin/../lib/gcc/nios2-elf/3.4.6/../../../../nios2-elf/lib/libc.a(sbrkr.o)
                0x0080da48                _sbrk_r
 .text          0x0080da94       0xbc /cygdrive/c/altera/91/nios2eds/bin/nios2-gnutools/H-i686-pc-cygwin/bin/../lib/gcc/nios2-elf/3.4.6/../../../../nios2-elf/lib/libc.a(sprintf.o)
                0x0080da94                _sprintf_r
                0x0080daec                sprintf
 .text          0x0080db50      0x17c /cygdrive/c/altera/91/nios2eds/bin/nios2-gnutools/H-i686-pc-cygwin/bin/../lib/gcc/nios2-elf/3.4.6/../../../../nios2-elf/lib/libc.a(stdio.o)
                0x0080dc40                __sseek
                0x0080db50                __sread
                0x0080dcb8                __sclose
                0x0080dbc0                __swrite
 .text          0x0080dccc       0x5c /cygdrive/c/altera/91/nios2eds/bin/nios2-gnutools/H-i686-pc-cygwin/bin/../lib/gcc/nios2-elf/3.4.6/../../../../nios2-elf/lib/libc.a(strlen.o)
                0x0080dccc                strlen
 .text          0x0080dd28     0x1d28 /cygdrive/c/altera/91/nios2eds/bin/nios2-gnutools/H-i686-pc-cygwin/bin/../lib/gcc/nios2-elf/3.4.6/../../../../nios2-elf/lib/libc.a(vfprintf1.o)
                0x0080dd80                ___vfprintf_internal_r
                0x0080f9e4                __vfprintf_internal
 .text          0x0080fa50       0x88 /cygdrive/c/altera/91/nios2eds/bin/nios2-gnutools/H-i686-pc-cygwin/bin/../lib/gcc/nios2-elf/3.4.6/../../../../nios2-elf/lib/libc.a(wcrtomb.o)
                0x0080fa50                _wcrtomb_r
                0x0080fab4                wcrtomb
 .text          0x0080fad8      0x17c /cygdrive/c/altera/91/nios2eds/bin/nios2-gnutools/H-i686-pc-cygwin/bin/../lib/gcc/nios2-elf/3.4.6/../../../../nios2-elf/lib/libc.a(wcsrtombs.o)
                0x0080fad8                _wcsrtombs_r
                0x0080fc18                wcsrtombs
 .text          0x0080fc54      0x454 /cygdrive/c/altera/91/nios2eds/bin/nios2-gnutools/H-i686-pc-cygwin/bin/../lib/gcc/nios2-elf/3.4.6/../../../../nios2-elf/lib/libc.a(wctomb_r.o)
                0x0080fc54                _wctomb_r
 .text          0x008100a8       0x64 /cygdrive/c/altera/91/nios2eds/bin/nios2-gnutools/H-i686-pc-cygwin/bin/../lib/gcc/nios2-elf/3.4.6/../../../../nios2-elf/lib/libc.a(writer.o)
                0x008100a8                _write_r
 .text          0x0081010c      0x10c /cygdrive/c/altera/91/nios2eds/bin/nios2-gnutools/H-i686-pc-cygwin/bin/../lib/gcc/nios2-elf/3.4.6/../../../../nios2-elf/lib/libc.a(wsetup.o)
                0x0081010c                __swsetup
 .text          0x00810218       0x5c /cygdrive/c/altera/91/nios2eds/bin/nios2-gnutools/H-i686-pc-cygwin/bin/../lib/gcc/nios2-elf/3.4.6/../../../../nios2-elf/lib/libc.a(closer.o)
                0x00810218                _close_r
 .text          0x00810274     0x15e8 /cygdrive/c/altera/91/nios2eds/bin/nios2-gnutools/H-i686-pc-cygwin/bin/../lib/gcc/nios2-elf/3.4.6/../../../../nios2-elf/lib/libc.a(dtoa.o)
                0x00810470                _dtoa_r
 .text          0x0081185c       0xe8 /cygdrive/c/altera/91/nios2eds/bin/nios2-gnutools/H-i686-pc-cygwin/bin/../lib/gcc/nios2-elf/3.4.6/../../../../nios2-elf/lib/libc.a(fflush.o)
                0x0081185c                fflush
 .text          0x00811944      0x118 /cygdrive/c/altera/91/nios2eds/bin/nios2-gnutools/H-i686-pc-cygwin/bin/../lib/gcc/nios2-elf/3.4.6/../../../../nios2-elf/lib/libc.a(findfp.o)
                0x008119c0                __sinit
                0x008119b0                _cleanup
                0x0081199c                _cleanup_r
 .text          0x00811a5c      0x14c /cygdrive/c/altera/91/nios2eds/bin/nios2-gnutools/H-i686-pc-cygwin/bin/../lib/gcc/nios2-elf/3.4.6/../../../../nios2-elf/lib/libc.a(findfp1.o)
                0x00811a5c                __sfmoreglue
                0x00811ac8                __sfp
 .text          0x00811ba8       0xa8 /cygdrive/c/altera/91/nios2eds/bin/nios2-gnutools/H-i686-pc-cygwin/bin/../lib/gcc/nios2-elf/3.4.6/../../../../nios2-elf/lib/libc.a(flags.o)
                0x00811ba8                __sflags
 .text          0x00811c50      0x3dc /cygdrive/c/altera/91/nios2eds/bin/nios2-gnutools/H-i686-pc-cygwin/bin/../lib/gcc/nios2-elf/3.4.6/../../../../nios2-elf/lib/libc.a(freer.o)
                0x00811d74                _free_r
                0x00811c50                _malloc_trim_r
 .text          0x0081202c      0x384 /cygdrive/c/altera/91/nios2eds/bin/nios2-gnutools/H-i686-pc-cygwin/bin/../lib/gcc/nios2-elf/3.4.6/../../../../nios2-elf/lib/libc.a(fvwrite.o)
                0x0081202c                __sfvwrite
 .text          0x008123b0       0xd4 /cygdrive/c/altera/91/nios2eds/bin/nios2-gnutools/H-i686-pc-cygwin/bin/../lib/gcc/nios2-elf/3.4.6/../../../../nios2-elf/lib/libc.a(fwalk.o)
                0x008123b0                _fwalk
 .text          0x00812484       0xc8 /cygdrive/c/altera/91/nios2eds/bin/nios2-gnutools/H-i686-pc-cygwin/bin/../lib/gcc/nios2-elf/3.4.6/../../../../nios2-elf/lib/libc.a(locale.o)
                0x00812484                _setlocale_r
                0x0081250c                __locale_charset
                0x00812514                _localeconv_r
                0x00812520                setlocale
                0x0081253c                localeconv
 .text          0x0081254c       0x64 /cygdrive/c/altera/91/nios2eds/bin/nios2-gnutools/H-i686-pc-cygwin/bin/../lib/gcc/nios2-elf/3.4.6/../../../../nios2-elf/lib/libc.a(lseekr.o)
                0x0081254c                _lseek_r
 .text          0x008125b0       0xcc /cygdrive/c/altera/91/nios2eds/bin/nios2-gnutools/H-i686-pc-cygwin/bin/../lib/gcc/nios2-elf/3.4.6/../../../../nios2-elf/lib/libc.a(memchr.o)
                0x008125b0                memchr
 .text          0x0081267c      0x108 /cygdrive/c/altera/91/nios2eds/bin/nios2-gnutools/H-i686-pc-cygwin/bin/../lib/gcc/nios2-elf/3.4.6/../../../../nios2-elf/lib/libc.a(memmove.o)
                0x0081267c                memmove
 .text          0x00812784      0xec0 /cygdrive/c/altera/91/nios2eds/bin/nios2-gnutools/H-i686-pc-cygwin/bin/../lib/gcc/nios2-elf/3.4.6/../../../../nios2-elf/lib/libc.a(mprec.o)
                0x00813594                _mprec_log10
                0x00812a4c                _hi0bits
                0x00812784                _Balloc
                0x0081336c                _d2b
                0x00812ba0                _multiply
                0x008134e8                _ratio
                0x00812950                _s2b
                0x00812b64                _i2b
                0x00812ab0                _lo0bits
                0x00812fd8                __mcmp
                0x00812d74                _pow5mult
                0x008131c0                _ulp
                0x00813248                _b2d
                0x00812858                _multadd
                0x0081303c                __mdiff
                0x00812ea0                _lshift
                0x00812834                _Bfree
 .text          0x00813644       0x64 /cygdrive/c/altera/91/nios2eds/bin/nios2-gnutools/H-i686-pc-cygwin/bin/../lib/gcc/nios2-elf/3.4.6/../../../../nios2-elf/lib/libc.a(readr.o)
                0x00813644                _read_r
 .text          0x008136a8      0x550 /cygdrive/c/altera/91/nios2eds/bin/nios2-gnutools/H-i686-pc-cygwin/bin/../lib/gcc/nios2-elf/3.4.6/../../../../nios2-elf/lib/libc.a(reallocr.o)
                0x008136a8                _realloc_r
 .text          0x00813bf8       0x44 /cygdrive/c/altera/91/nios2eds/bin/nios2-gnutools/H-i686-pc-cygwin/bin/../lib/gcc/nios2-elf/3.4.6/../../../../nios2-elf/lib/libc.a(s_isinf.o)
                0x00813bf8                isinf
 .text          0x00813c3c       0xb8 /cygdrive/c/altera/91/nios2eds/bin/nios2-gnutools/H-i686-pc-cygwin/bin/../lib/gcc/nios2-elf/3.4.6/../../../../nios2-elf/lib/libc.a(strcmp.o)
                0x00813c3c                strcmp
 .text          0x00813cf4      0x560 /cygdrive/c/altera/91/nios2eds/bin/nios2-gnutools/H-i686-pc-cygwin/bin/../lib/gcc/nios2-elf/3.4.6/libgcc.a(_udivdi3.o)
                0x00813cf4                __udivdi3
 .text          0x00814254      0x51c /cygdrive/c/altera/91/nios2eds/bin/nios2-gnutools/H-i686-pc-cygwin/bin/../lib/gcc/nios2-elf/3.4.6/libgcc.a(_umoddi3.o)
                0x00814254                __umoddi3
 .text          0x00814770      0x144 ../controller_sw_bsp/libhal_bsp.a(alt_close.o)
                0x00814770                close
 .text          0x008148b4       0x28 ../controller_sw_bsp/libhal_bsp.a(alt_dev.o)
 .text          0x008148dc      0x11c ../controller_sw_bsp/libhal_bsp.a(alt_fstat.o)
                0x008148dc                fstat
 .text          0x008149f8      0x1a4 ../controller_sw_bsp/libhal_bsp.a(alt_irq_register.o)
                0x008149f8                alt_irq_register
 .text          0x00814b9c      0x108 ../controller_sw_bsp/libhal_bsp.a(alt_isatty.o)
                0x00814b9c                isatty
 .text          0x00814ca4      0x138 ../controller_sw_bsp/libhal_bsp.a(alt_lseek.o)
                0x00814ca4                lseek
 .text          0x00814ddc       0x70 ../controller_sw_bsp/libhal_bsp.a(alt_main.o)
                0x00814ddc                alt_main
 .text          0x00814e4c       0x38 ../controller_sw_bsp/libhal_bsp.a(alt_malloc_lock.o)
                0x00814e68                __malloc_unlock
                0x00814e4c                __malloc_lock
 .text          0x00814e84      0x290 ../controller_sw_bsp/libhal_bsp.a(alt_open.o)
                0x00814f4c                open
 .text          0x00815114      0x234 ../controller_sw_bsp/libhal_bsp.a(alt_printf.o)
                0x00815114                alt_printf
 .text          0x00815348       0x34 ../controller_sw_bsp/libhal_bsp.a(alt_putchar.o)
                0x00815348                alt_putchar
 .text          0x0081537c      0x168 ../controller_sw_bsp/libhal_bsp.a(alt_read.o)
                0x0081537c                read
 .text          0x008154e4       0x5c ../controller_sw_bsp/libhal_bsp.a(alt_release_fd.o)
                0x008154e4                alt_release_fd
 .text          0x00815540       0xc0 ../controller_sw_bsp/libhal_bsp.a(alt_sbrk.o)
                0x00815540                sbrk
 .text          0x00815600       0x2c ../controller_sw_bsp/libhal_bsp.a(alt_usleep.o)
                0x00815600                usleep
 .text          0x0081562c      0x168 ../controller_sw_bsp/libhal_bsp.a(alt_write.o)
                0x0081562c                write
 .text          0x00815794      0x2d0 ../controller_sw_bsp/libhal_bsp.a(alt_sys_init.o)
                0x008157c4                alt_sys_init
                0x00815794                alt_irq_init
 .text          0x00815a64      0x138 ../controller_sw_bsp/libhal_bsp.a(altera_avalon_jtag_uart_fd.o)
                0x00815a64                altera_avalon_jtag_uart_read_fd
                0x00815b0c                altera_avalon_jtag_uart_close_fd
                0x00815b50                altera_avalon_jtag_uart_ioctl_fd
                0x00815ab8                altera_avalon_jtag_uart_write_fd
 .text          0x00815b9c      0x404 ../controller_sw_bsp/libhal_bsp.a(altera_avalon_jtag_uart_init.o)
                0x00815b9c                altera_avalon_jtag_uart_init
                0x00815f34                altera_avalon_jtag_uart_close
 .text          0x00815fa0       0xf8 ../controller_sw_bsp/libhal_bsp.a(altera_avalon_jtag_uart_ioctl.o)
                0x00815fa0                altera_avalon_jtag_uart_ioctl
 .text          0x00816098      0x234 ../controller_sw_bsp/libhal_bsp.a(altera_avalon_jtag_uart_read.o)
                0x00816098                altera_avalon_jtag_uart_read
 .text          0x008162cc      0x254 ../controller_sw_bsp/libhal_bsp.a(altera_avalon_jtag_uart_write.o)
                0x008162cc                altera_avalon_jtag_uart_write
 .text          0x00816520      0xcfc ../controller_sw_bsp/libhal_bsp.a(altera_avalon_lcd_16207.o)
                0x00816bf0                altera_avalon_lcd_16207_write
                0x008170f0                altera_avalon_lcd_16207_init
 .text          0x0081721c       0x54 ../controller_sw_bsp/libhal_bsp.a(altera_avalon_lcd_16207_fd.o)
                0x0081721c                altera_avalon_lcd_16207_write_fd
 .text          0x00817270       0xfc ../controller_sw_bsp/libhal_bsp.a(altera_avalon_timer_sc.o)
                0x008172e8                alt_avalon_timer_sc_init
 .text          0x0081736c     0x1448 ../controller_sw_bsp/libhal_bsp.a(altera_up_avalon_pixel_buffer.o)
                0x0081828c                alt_up_pixel_buffer_draw_rectangle
                0x0081736c                alt_up_pixel_buffer_open_dev
                0x00818408                alt_up_pixel_buffer_draw_line
                0x00817f0c                alt_up_pixel_buffer_draw_vline
                0x0081834c                helper_plot_pixel
                0x008173a4                alt_up_pixel_buffer_draw
                0x00817544                alt_up_pixel_buffer_change_back_buffer_address
                0x00817598                alt_up_pixel_buffer_swap_buffers
                0x00817618                alt_up_pixel_buffer_clear_screen
                0x008175e8                alt_up_pixel_buffer_check_swap_buffers_status
                0x00817c0c                alt_up_pixel_buffer_draw_hline
                0x00817768                alt_up_pixel_buffer_draw_box
 .text          0x008187b4      0x154 ../controller_sw_bsp/libhal_bsp.a(alt_alarm_start.o)
                0x008187b4                alt_alarm_start
 .text          0x00818908      0x148 ../controller_sw_bsp/libhal_bsp.a(alt_busy_sleep.o)
                0x00818908                alt_busy_sleep
 .text          0x00818a50       0xf8 ../controller_sw_bsp/libhal_bsp.a(alt_dev_llist_insert.o)
                0x00818a50                alt_dev_llist_insert
 .text          0x00818b48       0x58 ../controller_sw_bsp/libhal_bsp.a(alt_do_ctors.o)
                0x00818b48                _do_ctors
 .text          0x00818ba0       0x58 ../controller_sw_bsp/libhal_bsp.a(alt_do_dtors.o)
                0x00818ba0                _do_dtors
 .text          0x00818bf8       0x90 ../controller_sw_bsp/libhal_bsp.a(alt_find_dev.o)
                0x00818bf8                alt_find_dev
 .text          0x00818c88       0xe4 ../controller_sw_bsp/libhal_bsp.a(alt_find_file.o)
                0x00818c88                alt_find_file
 .text          0x00818d6c       0xac ../controller_sw_bsp/libhal_bsp.a(alt_get_fd.o)
                0x00818d6c                alt_get_fd
 .text          0x00818e18      0x134 ../controller_sw_bsp/libhal_bsp.a(alt_io_redirect.o)
                0x00818ed8                alt_io_redirect
 .text          0x00818f4c      0x19c ../controller_sw_bsp/libhal_bsp.a(alt_tick.o)
                0x00818fe8                alt_tick
                0x00818f4c                alt_alarm_stop
 .text          0x008190e8       0x1c ../controller_sw_bsp/libhal_bsp.a(altera_nios2_irq.o)
                0x008190e8                altera_nios2_irq_init
 .text          0x00819104       0x9c /cygdrive/c/altera/91/nios2eds/bin/nios2-gnutools/H-i686-pc-cygwin/bin/../lib/gcc/nios2-elf/3.4.6/../../../../nios2-elf/lib/libc.a(atexit.o)
                0x00819104                atexit
 .text          0x008191a0       0xe4 /cygdrive/c/altera/91/nios2eds/bin/nios2-gnutools/H-i686-pc-cygwin/bin/../lib/gcc/nios2-elf/3.4.6/../../../../nios2-elf/lib/libc.a(exit.o)
                0x008191a0                exit
 .text          0x00819284       0x70 /cygdrive/c/altera/91/nios2eds/bin/nios2-gnutools/H-i686-pc-cygwin/bin/../lib/gcc/nios2-elf/3.4.6/../../../../nios2-elf/lib/libc.a(memcmp.o)
                0x00819284                memcmp
 .text          0x008192f4       0x8c /cygdrive/c/altera/91/nios2eds/bin/nios2-gnutools/H-i686-pc-cygwin/bin/../lib/gcc/nios2-elf/3.4.6/../../../../nios2-elf/lib/libc.a(putc.o)
                0x008192f4                putc
 .text          0x00819380      0x118 /cygdrive/c/altera/91/nios2eds/bin/nios2-gnutools/H-i686-pc-cygwin/bin/../lib/gcc/nios2-elf/3.4.6/../../../../nios2-elf/lib/libc.a(wbuf.o)
                0x00819380                __swbuf
 .text          0x00819498       0x50 ../controller_sw_bsp/libhal_bsp.a(alt_exit.o)
                0x008194c8                _exit
 *(.gnu.warning.*)
 *(.fini)
                0x008194e8                PROVIDE (__etext, <code 336> (.))
                0x008194e8                PROVIDE (_etext, <code 336> (.))
                0x008194e8                PROVIDE (etext, <code 336> (.))
 *(.eh_frame_hdr)
                0x008194e8                . = ALIGN (0x4)
                0x008194e8                PROVIDE (__preinit_array_start, <code 336> (.))
 *(.preinit_array)
                0x008194e8                PROVIDE (__preinit_array_end, <code 336> (.))
                0x008194e8                PROVIDE (__init_array_start, <code 336> (.))
 *(.init_array)
                0x008194e8                PROVIDE (__init_array_end, <code 336> (.))
                0x008194e8                PROVIDE (__fini_array_start, <code 336> (.))
 *(.fini_array)
                0x008194e8                PROVIDE (__fini_array_end, <code 336> (.))
 *(.eh_frame)
 *(.gcc_except_table)
 *(.dynamic)
                0x008194e8                PROVIDE (__CTOR_LIST__, <code 336> (.))
 *(.ctors)
 *(SORT(.ctors.*))
                0x008194e8                PROVIDE (__CTOR_END__, <code 336> (.))
                0x008194e8                PROVIDE (__DTOR_LIST__, <code 336> (.))
 *(.dtors)
 *(SORT(.dtors.*))
                0x008194e8                PROVIDE (__DTOR_END__, <code 336> (.))
 *(.jcr)
                0x008194e8                . = ALIGN (0x4)

.rodata         0x008194e8      0xdd4
                0x008194e8                PROVIDE (__ram_rodata_start, <code 336> (.))
                0x008194e8                . = ALIGN (0x4)
 *(.rodata .rodata.* .gnu.linkonce.r.*)
 .rodata        0x008194e8      0x16c obj/draw.o
 .rodata        0x00819654        0x8 obj/game_loop.o
 .rodata        0x0081965c      0x194 obj/main.o
 .rodata        0x008197f0      0x238 obj/ship.o
 .rodata        0x00819a28        0x4 obj/util.o
 .rodata.str1.4
                0x00819a2c        0x5 /cygdrive/c/altera/91/nios2eds/bin/nios2-gnutools/H-i686-pc-cygwin/bin/../lib/gcc/nios2-elf/3.4.6/../../../../nios2-elf/lib/libm.a(w_sqrt.o)
                                  0x8 (size before relaxing)
 *fill*         0x00819a31        0x3 00
 .rodata        0x00819a34      0x188 /cygdrive/c/altera/91/nios2eds/bin/nios2-gnutools/H-i686-pc-cygwin/bin/../lib/gcc/nios2-elf/3.4.6/../../../../nios2-elf/lib/libm.a(e_rem_pio2.o)
 .rodata        0x00819bbc       0x50 /cygdrive/c/altera/91/nios2eds/bin/nios2-gnutools/H-i686-pc-cygwin/bin/../lib/gcc/nios2-elf/3.4.6/../../../../nios2-elf/lib/libm.a(k_rem_pio2.o)
 .rodata        0x00819c0c       0x10 /cygdrive/c/altera/91/nios2eds/bin/nios2-gnutools/H-i686-pc-cygwin/bin/../lib/gcc/nios2-elf/3.4.6/libgcc.a(_thenan_sf.o)
                0x00819c0c                __thenan_sf
 .rodata        0x00819c1c       0x14 /cygdrive/c/altera/91/nios2eds/bin/nios2-gnutools/H-i686-pc-cygwin/bin/../lib/gcc/nios2-elf/3.4.6/libgcc.a(_thenan_df.o)
                0x00819c1c                __thenan_df
 .rodata.str1.4
                0x00819c30        0x2 /cygdrive/c/altera/91/nios2eds/bin/nios2-gnutools/H-i686-pc-cygwin/bin/../lib/gcc/nios2-elf/3.4.6/../../../../nios2-elf/lib/libc.a(impure.o)
                                  0x4 (size before relaxing)
 *fill*         0x00819c32        0x2 00
 .rodata        0x00819c34      0x184 /cygdrive/c/altera/91/nios2eds/bin/nios2-gnutools/H-i686-pc-cygwin/bin/../lib/gcc/nios2-elf/3.4.6/../../../../nios2-elf/lib/libc.a(vfprintf1.o)
 .rodata.str1.4
                0x00819db8       0x5b /cygdrive/c/altera/91/nios2eds/bin/nios2-gnutools/H-i686-pc-cygwin/bin/../lib/gcc/nios2-elf/3.4.6/../../../../nios2-elf/lib/libc.a(vfprintf1.o)
                                 0x5c (size before relaxing)
 *fill*         0x00819e13        0x1 00
 .rodata.str1.4
                0x00819e14       0x1e /cygdrive/c/altera/91/nios2eds/bin/nios2-gnutools/H-i686-pc-cygwin/bin/../lib/gcc/nios2-elf/3.4.6/../../../../nios2-elf/lib/libc.a(wctomb_r.o)
                                 0x20 (size before relaxing)
 *fill*         0x00819e32        0x2 00
 .rodata.str1.4
                0x00819e34        0x9 /cygdrive/c/altera/91/nios2eds/bin/nios2-gnutools/H-i686-pc-cygwin/bin/../lib/gcc/nios2-elf/3.4.6/../../../../nios2-elf/lib/libc.a(dtoa.o)
                                 0x14 (size before relaxing)
 *fill*         0x00819e3d        0x3 00
 .rodata        0x00819e40       0x18 /cygdrive/c/altera/91/nios2eds/bin/nios2-gnutools/H-i686-pc-cygwin/bin/../lib/gcc/nios2-elf/3.4.6/../../../../nios2-elf/lib/libc.a(dtoa.o)
 .rodata.str1.4
                0x00819e58        0xb /cygdrive/c/altera/91/nios2eds/bin/nios2-gnutools/H-i686-pc-cygwin/bin/../lib/gcc/nios2-elf/3.4.6/../../../../nios2-elf/lib/libc.a(locale.o)
                                 0x18 (size before relaxing)
 *fill*         0x00819e63        0x1 00
 .rodata        0x00819e64       0x30 /cygdrive/c/altera/91/nios2eds/bin/nios2-gnutools/H-i686-pc-cygwin/bin/../lib/gcc/nios2-elf/3.4.6/../../../../nios2-elf/lib/libc.a(locale.o)
 .rodata        0x00819e94      0x124 /cygdrive/c/altera/91/nios2eds/bin/nios2-gnutools/H-i686-pc-cygwin/bin/../lib/gcc/nios2-elf/3.4.6/../../../../nios2-elf/lib/libc.a(mprec.o)
                0x00819e94                __mprec_tinytens
                0x00819ee4                __mprec_tens
                0x00819ebc                __mprec_bigtens
 .rodata        0x00819fb8      0x100 /cygdrive/c/altera/91/nios2eds/bin/nios2-gnutools/H-i686-pc-cygwin/bin/../lib/gcc/nios2-elf/3.4.6/libgcc.a(_clz.o)
                0x00819fb8                __clz_tab
 .rodata        0x0081a0b8        0xc ../controller_sw_bsp/libhal_bsp.a(alt_dev.o)
 .rodata        0x0081a0c4       0x14 ../controller_sw_bsp/libhal_bsp.a(alt_main.o)
 .rodata        0x0081a0d8       0x64 ../controller_sw_bsp/libhal_bsp.a(alt_sys_init.o)
 .rodata        0x0081a13c      0x180 /cygdrive/c/altera/91/nios2eds/bin/nios2-gnutools/H-i686-pc-cygwin/bin/../lib/gcc/nios2-elf/3.4.6/../../../../nios2-elf/lib/libc.a(ctype_.o)
                0x0081a1bb                _ctype_
 *(.rodata1)
                0x0081a2bc                . = ALIGN (0x4)
                0x0081a2bc                PROVIDE (__ram_rodata_end, <code 336> (.))
                0x008194e8                PROVIDE (__flash_rodata_start, LOADADDR (.rodata))

.rwdata         0x0081a2bc     0x1c10
                0x0081a2bc                PROVIDE (__ram_rwdata_start, <code 336> (.))
                0x0081a2bc                . = ALIGN (0x4)
 *(.got.plt)
 *(.got)
 *(.data1)
 *(.data .data.* .gnu.linkonce.d.*)
 .data          0x0081a2bc      0x37c /cygdrive/c/altera/91/nios2eds/bin/nios2-gnutools/H-i686-pc-cygwin/bin/../lib/gcc/nios2-elf/3.4.6/../../../../nios2-elf/lib/libc.a(impure.o)
 .data          0x0081a638      0x430 /cygdrive/c/altera/91/nios2eds/bin/nios2-gnutools/H-i686-pc-cygwin/bin/../lib/gcc/nios2-elf/3.4.6/../../../../nios2-elf/lib/libc.a(mallocr.o)
                0x0081a638                __malloc_current_mallinfo
                0x0081a660                __malloc_av_
 .data          0x0081aa68        0xc /cygdrive/c/altera/91/nios2eds/bin/nios2-gnutools/H-i686-pc-cygwin/bin/../lib/gcc/nios2-elf/3.4.6/../../../../nios2-elf/lib/libc.a(locale.o)
                0x0081aa68                __lc_ctype
 .data          0x0081aa74      0x1a8 ../controller_sw_bsp/libhal_bsp.a(alt_dev.o)
                0x0081aa9c                alt_fd_list
                0x0081aa74                alt_dev_null
 .data          0x0081ac1c     0x1238 ../controller_sw_bsp/libhal_bsp.a(alt_sys_init.o)
                0x00823e54                _gp = <code 336> ((. + 0x8000))
                0x00823e54                PROVIDE (gp, _gp)
 *(.sdata .sdata.* .gnu.linkonce.s.*)
 .sdata         0x0081be54        0x4 /cygdrive/c/altera/91/nios2eds/bin/nios2-gnutools/H-i686-pc-cygwin/bin/../lib/gcc/nios2-elf/3.4.6/../../../../nios2-elf/lib/libm.a(s_lib_ver.o)
                0x0081be54                __fdlib_version
 .sdata         0x0081be58        0x4 /cygdrive/c/altera/91/nios2eds/bin/nios2-gnutools/H-i686-pc-cygwin/bin/../lib/gcc/nios2-elf/3.4.6/../../../../nios2-elf/lib/libc.a(impure.o)
                0x0081be58                _impure_ptr
 .sdata         0x0081be5c       0x14 /cygdrive/c/altera/91/nios2eds/bin/nios2-gnutools/H-i686-pc-cygwin/bin/../lib/gcc/nios2-elf/3.4.6/../../../../nios2-elf/lib/libc.a(mallocr.o)
                0x0081be68                __malloc_top_pad
                0x0081be60                __malloc_max_sbrked_mem
                0x0081be64                __malloc_sbrk_base
                0x0081be5c                __malloc_max_total_mem
                0x0081be6c                __malloc_trim_threshold
 .sdata         0x0081be70       0x14 /cygdrive/c/altera/91/nios2eds/bin/nios2-gnutools/H-i686-pc-cygwin/bin/../lib/gcc/nios2-elf/3.4.6/../../../../nios2-elf/lib/libc.a(locale.o)
                0x0081be7c                __mb_cur_max
                0x0081be78                __nlocale_changed
                0x0081be74                __mlocale_changed
                0x0081be70                _PathLocale
 .sdata         0x0081be84       0x14 ../controller_sw_bsp/libhal_bsp.a(alt_dev.o)
                0x0081be94                alt_max_fd
                0x0081be8c                alt_dev_list
                0x0081be84                alt_fs_list
 .sdata         0x0081be98        0x4 ../controller_sw_bsp/libhal_bsp.a(alt_errno.o)
                0x0081be98                alt_errno
 .sdata         0x0081be9c        0x8 ../controller_sw_bsp/libhal_bsp.a(alt_irq_vars.o)
                0x0081be9c                alt_irq_active
                0x0081bea0                alt_priority_mask
 .sdata         0x0081bea4        0xc ../controller_sw_bsp/libhal_bsp.a(alt_main.o)
                0x0081bea8                alt_argv
                0x0081beac                alt_envp
                0x0081bea4                alt_argc
 .sdata         0x0081beb0        0x4 ../controller_sw_bsp/libhal_bsp.a(alt_sbrk.o)
 .sdata         0x0081beb4        0x4 ../controller_sw_bsp/libhal_bsp.a(altera_avalon_lcd_16207.o)
 .sdata         0x0081beb8       0x10 ../controller_sw_bsp/libhal_bsp.a(alt_tick.o)
                0x0081beb8                _alt_tick_rate
                0x0081bebc                _alt_nticks
                0x0081bec0                alt_alarm_list
 .sdata         0x0081bec8        0x4 /cygdrive/c/altera/91/nios2eds/bin/nios2-gnutools/H-i686-pc-cygwin/bin/../lib/gcc/nios2-elf/3.4.6/../../../../nios2-elf/lib/libc.a(ctype_.o)
                0x0081bec8                __ctype_ptr
 *(.sdata2 .sdata2.* .gnu.linkonce.s2.*)
                0x0081becc                . = ALIGN (0x4)
                0x0081becc                _edata = <code 336> (.)
                0x0081becc                PROVIDE (edata, <code 336> (.))
                0x0081becc                PROVIDE (__ram_rwdata_end, <code 336> (.))
                0x0081a2bc                PROVIDE (__flash_rwdata_start, LOADADDR (.rwdata))

.bss            0x0081becc      0x780
                0x0081becc                __bss_start = <code 336> (.)
                0x0081becc                PROVIDE (__sbss_start, <code 336> (.))
                0x0081becc                PROVIDE (___sbss_start, <code 336> (.))
 *(.dynsbss)
 *(.sbss .sbss.* .gnu.linkonce.sb.*)
 .sbss          0x0081becc        0x8 obj/draw.o
                0x0081bed0                rotate_matrix
                0x0081becc                translate_matrix
 .sbss          0x0081bed4        0x8 obj/ethernet_isr.o
                0x0081bed4                isr_update
                0x0081bed8                p_edge_capture
 .sbss          0x0081bedc       0x18 obj/main.o
                0x0081bef0                new_game
                0x0081beec                output_packet_reg
                0x0081bee8                game_mode
                0x0081bee4                pixel_buf_dev
 .sbss          0x0081bef4        0x4 /cygdrive/c/altera/91/nios2eds/bin/nios2-gnutools/H-i686-pc-cygwin/bin/../lib/gcc/nios2-elf/3.4.6/../../../../nios2-elf/lib/libc.a(int_errno.o)
                0x0081bef4                errno
 .sbss          0x0081bef8        0x4 /cygdrive/c/altera/91/nios2eds/bin/nios2-gnutools/H-i686-pc-cygwin/bin/../lib/gcc/nios2-elf/3.4.6/../../../../nios2-elf/lib/libc.a(findfp1.o)
 .sbss          0x0081befc        0x4 /cygdrive/c/altera/91/nios2eds/bin/nios2-gnutools/H-i686-pc-cygwin/bin/../lib/gcc/nios2-elf/3.4.6/../../../../nios2-elf/lib/libc.a(atexit.o)
 *(.sbss2 .sbss2.* .gnu.linkonce.sb2.*)
 *(.scommon)
                0x0081bf00                PROVIDE (__sbss_end, <code 336> (.))
                0x0081bf00                PROVIDE (___sbss_end, <code 336> (.))
 *(.dynbss)
 *(.bss .bss.* .gnu.linkonce.b.*)
 *(COMMON)
 COMMON         0x0081bf00      0x540 obj/main.o
                                  0x0 (size before relaxing)
                0x0081bf00                p1_ship
                0x0081bfa0                packets
                0x0081c3a0                p2_ship
 COMMON         0x0081c440      0x100 ../controller_sw_bsp/libhal_bsp.a(alt_irq_handler.o)
                                  0x0 (size before relaxing)
                0x0081c440                alt_irq
 COMMON         0x0081c540      0x10c /cygdrive/c/altera/91/nios2eds/bin/nios2-gnutools/H-i686-pc-cygwin/bin/../lib/gcc/nios2-elf/3.4.6/../../../../nios2-elf/lib/libc.a(atexit.o)
                                  0x0 (size before relaxing)
                0x0081c540                _atexit0
                0x0081c64c                . = ALIGN (0x4)
                0x0081c64c                __bss_end = <code 336> (.)

.sram_0         0x0081c64c        0x0 load address 0x0081c64c
                0x0081c64c                PROVIDE (_alt_partition_sram_0_start, <code 336> (.))
 *(.sram_0. sram_0.*)
                0x0081c64c                . = ALIGN (0x4)
                0x0081c64c                PROVIDE (_alt_partition_sram_0_end, <code 336> (.))
                0x0081c64c                _end = <code 336> (.)
                0x0081c64c                end = <code 336> (.)
                0x0081c64c                __alt_stack_base = <code 336> (.)
                0x0081c64c                PROVIDE (_alt_partition_sram_0_load_addr, LOADADDR (.sram_0))

.stab
 *(.stab)

.stabstr
 *(.stabstr)

.stab.excl
 *(.stab.excl)

.stab.exclstr
 *(.stab.exclstr)

.stab.index
 *(.stab.index)

.stab.indexstr
 *(.stab.indexstr)

.comment        0x00000000     0x1afc
 *(.comment)
 .comment       0x00000000       0x2c obj/collision_detection.o
 .comment       0x0000002c       0x2c obj/draw.o
 .comment       0x00000058       0x2c obj/ethernet_isr.o
 .comment       0x00000084       0x2c obj/game_loop.o
 .comment       0x000000b0       0x2c obj/main.o
 .comment       0x000000dc       0x2c obj/ship.o
 .comment       0x00000108       0x2c obj/util.o
 .comment       0x00000134       0x2c /cygdrive/c/altera/91/nios2eds/bin/nios2-gnutools/H-i686-pc-cygwin/bin/../lib/gcc/nios2-elf/3.4.6/../../../../nios2-elf/lib/libm.a(s_cos.o)
 .comment       0x00000160       0x2c /cygdrive/c/altera/91/nios2eds/bin/nios2-gnutools/H-i686-pc-cygwin/bin/../lib/gcc/nios2-elf/3.4.6/../../../../nios2-elf/lib/libm.a(s_sin.o)
 .comment       0x0000018c       0x2c /cygdrive/c/altera/91/nios2eds/bin/nios2-gnutools/H-i686-pc-cygwin/bin/../lib/gcc/nios2-elf/3.4.6/../../../../nios2-elf/lib/libm.a(sf_round.o)
 .comment       0x000001b8       0x2c /cygdrive/c/altera/91/nios2eds/bin/nios2-gnutools/H-i686-pc-cygwin/bin/../lib/gcc/nios2-elf/3.4.6/../../../../nios2-elf/lib/libm.a(w_sqrt.o)
 .comment       0x000001e4       0x2c /cygdrive/c/altera/91/nios2eds/bin/nios2-gnutools/H-i686-pc-cygwin/bin/../lib/gcc/nios2-elf/3.4.6/../../../../nios2-elf/lib/libm.a(e_rem_pio2.o)
 .comment       0x00000210       0x2c /cygdrive/c/altera/91/nios2eds/bin/nios2-gnutools/H-i686-pc-cygwin/bin/../lib/gcc/nios2-elf/3.4.6/../../../../nios2-elf/lib/libm.a(e_sqrt.o)
 .comment       0x0000023c       0x2c /cygdrive/c/altera/91/nios2eds/bin/nios2-gnutools/H-i686-pc-cygwin/bin/../lib/gcc/nios2-elf/3.4.6/../../../../nios2-elf/lib/libm.a(k_cos.o)
 .comment       0x00000268       0x2c /cygdrive/c/altera/91/nios2eds/bin/nios2-gnutools/H-i686-pc-cygwin/bin/../lib/gcc/nios2-elf/3.4.6/../../../../nios2-elf/lib/libm.a(k_rem_pio2.o)
 .comment       0x00000294       0x2c /cygdrive/c/altera/91/nios2eds/bin/nios2-gnutools/H-i686-pc-cygwin/bin/../lib/gcc/nios2-elf/3.4.6/../../../../nios2-elf/lib/libm.a(k_sin.o)
 .comment       0x000002c0       0x2c /cygdrive/c/altera/91/nios2eds/bin/nios2-gnutools/H-i686-pc-cygwin/bin/../lib/gcc/nios2-elf/3.4.6/../../../../nios2-elf/lib/libm.a(s_fabs.o)
 .comment       0x000002ec       0x2c /cygdrive/c/altera/91/nios2eds/bin/nios2-gnutools/H-i686-pc-cygwin/bin/../lib/gcc/nios2-elf/3.4.6/../../../../nios2-elf/lib/libm.a(s_floor.o)
 .comment       0x00000318       0x2c /cygdrive/c/altera/91/nios2eds/bin/nios2-gnutools/H-i686-pc-cygwin/bin/../lib/gcc/nios2-elf/3.4.6/../../../../nios2-elf/lib/libm.a(s_isnan.o)
 .comment       0x00000344       0x2c /cygdrive/c/altera/91/nios2eds/bin/nios2-gnutools/H-i686-pc-cygwin/bin/../lib/gcc/nios2-elf/3.4.6/../../../../nios2-elf/lib/libm.a(s_lib_ver.o)
 .comment       0x00000370       0x2c /cygdrive/c/altera/91/nios2eds/bin/nios2-gnutools/H-i686-pc-cygwin/bin/../lib/gcc/nios2-elf/3.4.6/../../../../nios2-elf/lib/libm.a(s_matherr.o)
 .comment       0x0000039c       0x2c /cygdrive/c/altera/91/nios2eds/bin/nios2-gnutools/H-i686-pc-cygwin/bin/../lib/gcc/nios2-elf/3.4.6/../../../../nios2-elf/lib/libm.a(s_scalbn.o)
 .comment       0x000003c8       0x2c /cygdrive/c/altera/91/nios2eds/bin/nios2-gnutools/H-i686-pc-cygwin/bin/../lib/gcc/nios2-elf/3.4.6/../../../../nios2-elf/lib/libm.a(s_copysign.o)
 .comment       0x000003f4       0x2c /cygdrive/c/altera/91/nios2eds/bin/nios2-gnutools/H-i686-pc-cygwin/bin/../lib/gcc/nios2-elf/3.4.6/libgcc.a(_fixunssfsi.o)
 .comment       0x00000420       0x2c /cygdrive/c/altera/91/nios2eds/bin/nios2-gnutools/H-i686-pc-cygwin/bin/../lib/gcc/nios2-elf/3.4.6/libgcc.a(_addsub_sf.o)
 .comment       0x0000044c       0x2c /cygdrive/c/altera/91/nios2eds/bin/nios2-gnutools/H-i686-pc-cygwin/bin/../lib/gcc/nios2-elf/3.4.6/libgcc.a(_mul_sf.o)
 .comment       0x00000478       0x2c /cygdrive/c/altera/91/nios2eds/bin/nios2-gnutools/H-i686-pc-cygwin/bin/../lib/gcc/nios2-elf/3.4.6/libgcc.a(_div_sf.o)
 .comment       0x000004a4       0x2c /cygdrive/c/altera/91/nios2eds/bin/nios2-gnutools/H-i686-pc-cygwin/bin/../lib/gcc/nios2-elf/3.4.6/libgcc.a(_eq_sf.o)
 .comment       0x000004d0       0x2c /cygdrive/c/altera/91/nios2eds/bin/nios2-gnutools/H-i686-pc-cygwin/bin/../lib/gcc/nios2-elf/3.4.6/libgcc.a(_ne_sf.o)
 .comment       0x000004fc       0x2c /cygdrive/c/altera/91/nios2eds/bin/nios2-gnutools/H-i686-pc-cygwin/bin/../lib/gcc/nios2-elf/3.4.6/libgcc.a(_gt_sf.o)
 .comment       0x00000528       0x2c /cygdrive/c/altera/91/nios2eds/bin/nios2-gnutools/H-i686-pc-cygwin/bin/../lib/gcc/nios2-elf/3.4.6/libgcc.a(_ge_sf.o)
 .comment       0x00000554       0x2c /cygdrive/c/altera/91/nios2eds/bin/nios2-gnutools/H-i686-pc-cygwin/bin/../lib/gcc/nios2-elf/3.4.6/libgcc.a(_lt_sf.o)
 .comment       0x00000580       0x2c /cygdrive/c/altera/91/nios2eds/bin/nios2-gnutools/H-i686-pc-cygwin/bin/../lib/gcc/nios2-elf/3.4.6/libgcc.a(_le_sf.o)
 .comment       0x000005ac       0x2c /cygdrive/c/altera/91/nios2eds/bin/nios2-gnutools/H-i686-pc-cygwin/bin/../lib/gcc/nios2-elf/3.4.6/libgcc.a(_si_to_sf.o)
 .comment       0x000005d8       0x2c /cygdrive/c/altera/91/nios2eds/bin/nios2-gnutools/H-i686-pc-cygwin/bin/../lib/gcc/nios2-elf/3.4.6/libgcc.a(_sf_to_si.o)
 .comment       0x00000604       0x2c /cygdrive/c/altera/91/nios2eds/bin/nios2-gnutools/H-i686-pc-cygwin/bin/../lib/gcc/nios2-elf/3.4.6/libgcc.a(_sf_to_df.o)
 .comment       0x00000630       0x2c /cygdrive/c/altera/91/nios2eds/bin/nios2-gnutools/H-i686-pc-cygwin/bin/../lib/gcc/nios2-elf/3.4.6/libgcc.a(_thenan_sf.o)
 .comment       0x0000065c       0x2c /cygdrive/c/altera/91/nios2eds/bin/nios2-gnutools/H-i686-pc-cygwin/bin/../lib/gcc/nios2-elf/3.4.6/libgcc.a(_addsub_df.o)
 .comment       0x00000688       0x2c /cygdrive/c/altera/91/nios2eds/bin/nios2-gnutools/H-i686-pc-cygwin/bin/../lib/gcc/nios2-elf/3.4.6/libgcc.a(_mul_df.o)
 .comment       0x000006b4       0x2c /cygdrive/c/altera/91/nios2eds/bin/nios2-gnutools/H-i686-pc-cygwin/bin/../lib/gcc/nios2-elf/3.4.6/libgcc.a(_div_df.o)
 .comment       0x000006e0       0x2c /cygdrive/c/altera/91/nios2eds/bin/nios2-gnutools/H-i686-pc-cygwin/bin/../lib/gcc/nios2-elf/3.4.6/libgcc.a(_eq_df.o)
 .comment       0x0000070c       0x2c /cygdrive/c/altera/91/nios2eds/bin/nios2-gnutools/H-i686-pc-cygwin/bin/../lib/gcc/nios2-elf/3.4.6/libgcc.a(_ne_df.o)
 .comment       0x00000738       0x2c /cygdrive/c/altera/91/nios2eds/bin/nios2-gnutools/H-i686-pc-cygwin/bin/../lib/gcc/nios2-elf/3.4.6/libgcc.a(_gt_df.o)
 .comment       0x00000764       0x2c /cygdrive/c/altera/91/nios2eds/bin/nios2-gnutools/H-i686-pc-cygwin/bin/../lib/gcc/nios2-elf/3.4.6/libgcc.a(_ge_df.o)
 .comment       0x00000790       0x2c /cygdrive/c/altera/91/nios2eds/bin/nios2-gnutools/H-i686-pc-cygwin/bin/../lib/gcc/nios2-elf/3.4.6/libgcc.a(_lt_df.o)
 .comment       0x000007bc       0x2c /cygdrive/c/altera/91/nios2eds/bin/nios2-gnutools/H-i686-pc-cygwin/bin/../lib/gcc/nios2-elf/3.4.6/libgcc.a(_si_to_df.o)
 .comment       0x000007e8       0x2c /cygdrive/c/altera/91/nios2eds/bin/nios2-gnutools/H-i686-pc-cygwin/bin/../lib/gcc/nios2-elf/3.4.6/libgcc.a(_df_to_si.o)
 .comment       0x00000814       0x2c /cygdrive/c/altera/91/nios2eds/bin/nios2-gnutools/H-i686-pc-cygwin/bin/../lib/gcc/nios2-elf/3.4.6/libgcc.a(_make_df.o)
 .comment       0x00000840       0x2c /cygdrive/c/altera/91/nios2eds/bin/nios2-gnutools/H-i686-pc-cygwin/bin/../lib/gcc/nios2-elf/3.4.6/libgcc.a(_df_to_sf.o)
 .comment       0x0000086c       0x2c /cygdrive/c/altera/91/nios2eds/bin/nios2-gnutools/H-i686-pc-cygwin/bin/../lib/gcc/nios2-elf/3.4.6/libgcc.a(_thenan_df.o)
 .comment       0x00000898       0x2c /cygdrive/c/altera/91/nios2eds/bin/nios2-gnutools/H-i686-pc-cygwin/bin/../lib/gcc/nios2-elf/3.4.6/libgcc.a(lib2-divmod.o)
 .comment       0x000008c4       0x2c /cygdrive/c/altera/91/nios2eds/bin/nios2-gnutools/H-i686-pc-cygwin/bin/../lib/gcc/nios2-elf/3.4.6/libgcc.a(_muldi3.o)
 .comment       0x000008f0       0x2c /cygdrive/c/altera/91/nios2eds/bin/nios2-gnutools/H-i686-pc-cygwin/bin/../lib/gcc/nios2-elf/3.4.6/libgcc.a(_negdi2.o)
 .comment       0x0000091c       0x2c /cygdrive/c/altera/91/nios2eds/bin/nios2-gnutools/H-i686-pc-cygwin/bin/../lib/gcc/nios2-elf/3.4.6/libgcc.a(_lshrdi3.o)
 .comment       0x00000948       0x2c /cygdrive/c/altera/91/nios2eds/bin/nios2-gnutools/H-i686-pc-cygwin/bin/../lib/gcc/nios2-elf/3.4.6/libgcc.a(_pack_sf.o)
 .comment       0x00000974       0x2c /cygdrive/c/altera/91/nios2eds/bin/nios2-gnutools/H-i686-pc-cygwin/bin/../lib/gcc/nios2-elf/3.4.6/libgcc.a(_unpack_sf.o)
 .comment       0x000009a0       0x2c /cygdrive/c/altera/91/nios2eds/bin/nios2-gnutools/H-i686-pc-cygwin/bin/../lib/gcc/nios2-elf/3.4.6/libgcc.a(_fpcmp_parts_sf.o)
 .comment       0x000009cc       0x2c /cygdrive/c/altera/91/nios2eds/bin/nios2-gnutools/H-i686-pc-cygwin/bin/../lib/gcc/nios2-elf/3.4.6/libgcc.a(_make_sf.o)
 .comment       0x000009f8       0x2c /cygdrive/c/altera/91/nios2eds/bin/nios2-gnutools/H-i686-pc-cygwin/bin/../lib/gcc/nios2-elf/3.4.6/libgcc.a(_pack_df.o)
 .comment       0x00000a24       0x2c /cygdrive/c/altera/91/nios2eds/bin/nios2-gnutools/H-i686-pc-cygwin/bin/../lib/gcc/nios2-elf/3.4.6/libgcc.a(_unpack_df.o)
 .comment       0x00000a50       0x2c /cygdrive/c/altera/91/nios2eds/bin/nios2-gnutools/H-i686-pc-cygwin/bin/../lib/gcc/nios2-elf/3.4.6/libgcc.a(_fpcmp_parts_df.o)
 .comment       0x00000a7c       0x2c /cygdrive/c/altera/91/nios2eds/bin/nios2-gnutools/H-i686-pc-cygwin/bin/../lib/gcc/nios2-elf/3.4.6/libgcc.a(_ashldi3.o)
 .comment       0x00000aa8       0x2c /cygdrive/c/altera/91/nios2eds/bin/nios2-gnutools/H-i686-pc-cygwin/bin/../lib/gcc/nios2-elf/3.4.6/../../../../nios2-elf/lib/libc.a(calloc.o)
 .comment       0x00000ad4       0x2c /cygdrive/c/altera/91/nios2eds/bin/nios2-gnutools/H-i686-pc-cygwin/bin/../lib/gcc/nios2-elf/3.4.6/../../../../nios2-elf/lib/libc.a(callocr.o)
 .comment       0x00000b00       0x2c /cygdrive/c/altera/91/nios2eds/bin/nios2-gnutools/H-i686-pc-cygwin/bin/../lib/gcc/nios2-elf/3.4.6/../../../../nios2-elf/lib/libc.a(errno.o)
 .comment       0x00000b2c       0x2c /cygdrive/c/altera/91/nios2eds/bin/nios2-gnutools/H-i686-pc-cygwin/bin/../lib/gcc/nios2-elf/3.4.6/../../../../nios2-elf/lib/libc.a(fopen.o)
 .comment       0x00000b58       0x2c /cygdrive/c/altera/91/nios2eds/bin/nios2-gnutools/H-i686-pc-cygwin/bin/../lib/gcc/nios2-elf/3.4.6/../../../../nios2-elf/lib/libc.a(fprintf.o)
 .comment       0x00000b84       0x2c /cygdrive/c/altera/91/nios2eds/bin/nios2-gnutools/H-i686-pc-cygwin/bin/../lib/gcc/nios2-elf/3.4.6/../../../../nios2-elf/lib/libc.a(fseek.o)
 .comment       0x00000bb0       0x2c /cygdrive/c/altera/91/nios2eds/bin/nios2-gnutools/H-i686-pc-cygwin/bin/../lib/gcc/nios2-elf/3.4.6/../../../../nios2-elf/lib/libc.a(fstatr.o)
 .comment       0x00000bdc       0x2c /cygdrive/c/altera/91/nios2eds/bin/nios2-gnutools/H-i686-pc-cygwin/bin/../lib/gcc/nios2-elf/3.4.6/../../../../nios2-elf/lib/libc.a(impure.o)
 .comment       0x00000c08       0x2c /cygdrive/c/altera/91/nios2eds/bin/nios2-gnutools/H-i686-pc-cygwin/bin/../lib/gcc/nios2-elf/3.4.6/../../../../nios2-elf/lib/libc.a(int_errno.o)
 .comment       0x00000c34       0x2c /cygdrive/c/altera/91/nios2eds/bin/nios2-gnutools/H-i686-pc-cygwin/bin/../lib/gcc/nios2-elf/3.4.6/../../../../nios2-elf/lib/libc.a(makebuf.o)
 .comment       0x00000c60       0x2c /cygdrive/c/altera/91/nios2eds/bin/nios2-gnutools/H-i686-pc-cygwin/bin/../lib/gcc/nios2-elf/3.4.6/../../../../nios2-elf/lib/libc.a(malloc.o)
 .comment       0x00000c8c       0x2c /cygdrive/c/altera/91/nios2eds/bin/nios2-gnutools/H-i686-pc-cygwin/bin/../lib/gcc/nios2-elf/3.4.6/../../../../nios2-elf/lib/libc.a(mallocr.o)
 .comment       0x00000cb8       0x2c /cygdrive/c/altera/91/nios2eds/bin/nios2-gnutools/H-i686-pc-cygwin/bin/../lib/gcc/nios2-elf/3.4.6/../../../../nios2-elf/lib/libc.a(memcpy.o)
 .comment       0x00000ce4       0x2c /cygdrive/c/altera/91/nios2eds/bin/nios2-gnutools/H-i686-pc-cygwin/bin/../lib/gcc/nios2-elf/3.4.6/../../../../nios2-elf/lib/libc.a(memset.o)
 .comment       0x00000d10       0x2c /cygdrive/c/altera/91/nios2eds/bin/nios2-gnutools/H-i686-pc-cygwin/bin/../lib/gcc/nios2-elf/3.4.6/../../../../nios2-elf/lib/libc.a(openr.o)
 .comment       0x00000d3c       0x2c /cygdrive/c/altera/91/nios2eds/bin/nios2-gnutools/H-i686-pc-cygwin/bin/../lib/gcc/nios2-elf/3.4.6/../../../../nios2-elf/lib/libc.a(rand.o)
 .comment       0x00000d68       0x2c /cygdrive/c/altera/91/nios2eds/bin/nios2-gnutools/H-i686-pc-cygwin/bin/../lib/gcc/nios2-elf/3.4.6/../../../../nios2-elf/lib/libc.a(refill.o)
 .comment       0x00000d94       0x2c /cygdrive/c/altera/91/nios2eds/bin/nios2-gnutools/H-i686-pc-cygwin/bin/../lib/gcc/nios2-elf/3.4.6/../../../../nios2-elf/lib/libc.a(sbrkr.o)
 .comment       0x00000dc0       0x2c /cygdrive/c/altera/91/nios2eds/bin/nios2-gnutools/H-i686-pc-cygwin/bin/../lib/gcc/nios2-elf/3.4.6/../../../../nios2-elf/lib/libc.a(sprintf.o)
 .comment       0x00000dec       0x2c /cygdrive/c/altera/91/nios2eds/bin/nios2-gnutools/H-i686-pc-cygwin/bin/../lib/gcc/nios2-elf/3.4.6/../../../../nios2-elf/lib/libc.a(stdio.o)
 .comment       0x00000e18       0x2c /cygdrive/c/altera/91/nios2eds/bin/nios2-gnutools/H-i686-pc-cygwin/bin/../lib/gcc/nios2-elf/3.4.6/../../../../nios2-elf/lib/libc.a(strlen.o)
 .comment       0x00000e44       0x2c /cygdrive/c/altera/91/nios2eds/bin/nios2-gnutools/H-i686-pc-cygwin/bin/../lib/gcc/nios2-elf/3.4.6/../../../../nios2-elf/lib/libc.a(vfprintf1.o)
 .comment       0x00000e70       0x2c /cygdrive/c/altera/91/nios2eds/bin/nios2-gnutools/H-i686-pc-cygwin/bin/../lib/gcc/nios2-elf/3.4.6/../../../../nios2-elf/lib/libc.a(wcrtomb.o)
 .comment       0x00000e9c       0x2c /cygdrive/c/altera/91/nios2eds/bin/nios2-gnutools/H-i686-pc-cygwin/bin/../lib/gcc/nios2-elf/3.4.6/../../../../nios2-elf/lib/libc.a(wcsrtombs.o)
 .comment       0x00000ec8       0x2c /cygdrive/c/altera/91/nios2eds/bin/nios2-gnutools/H-i686-pc-cygwin/bin/../lib/gcc/nios2-elf/3.4.6/../../../../nios2-elf/lib/libc.a(wctomb_r.o)
 .comment       0x00000ef4       0x2c /cygdrive/c/altera/91/nios2eds/bin/nios2-gnutools/H-i686-pc-cygwin/bin/../lib/gcc/nios2-elf/3.4.6/../../../../nios2-elf/lib/libc.a(writer.o)
 .comment       0x00000f20       0x2c /cygdrive/c/altera/91/nios2eds/bin/nios2-gnutools/H-i686-pc-cygwin/bin/../lib/gcc/nios2-elf/3.4.6/../../../../nios2-elf/lib/libc.a(wsetup.o)
 .comment       0x00000f4c       0x2c /cygdrive/c/altera/91/nios2eds/bin/nios2-gnutools/H-i686-pc-cygwin/bin/../lib/gcc/nios2-elf/3.4.6/../../../../nios2-elf/lib/libc.a(closer.o)
 .comment       0x00000f78       0x2c /cygdrive/c/altera/91/nios2eds/bin/nios2-gnutools/H-i686-pc-cygwin/bin/../lib/gcc/nios2-elf/3.4.6/../../../../nios2-elf/lib/libc.a(dtoa.o)
 .comment       0x00000fa4       0x2c /cygdrive/c/altera/91/nios2eds/bin/nios2-gnutools/H-i686-pc-cygwin/bin/../lib/gcc/nios2-elf/3.4.6/../../../../nios2-elf/lib/libc.a(fflush.o)
 .comment       0x00000fd0       0x2c /cygdrive/c/altera/91/nios2eds/bin/nios2-gnutools/H-i686-pc-cygwin/bin/../lib/gcc/nios2-elf/3.4.6/../../../../nios2-elf/lib/libc.a(findfp.o)
 .comment       0x00000ffc       0x2c /cygdrive/c/altera/91/nios2eds/bin/nios2-gnutools/H-i686-pc-cygwin/bin/../lib/gcc/nios2-elf/3.4.6/../../../../nios2-elf/lib/libc.a(findfp1.o)
 .comment       0x00001028       0x2c /cygdrive/c/altera/91/nios2eds/bin/nios2-gnutools/H-i686-pc-cygwin/bin/../lib/gcc/nios2-elf/3.4.6/../../../../nios2-elf/lib/libc.a(flags.o)
 .comment       0x00001054       0x2c /cygdrive/c/altera/91/nios2eds/bin/nios2-gnutools/H-i686-pc-cygwin/bin/../lib/gcc/nios2-elf/3.4.6/../../../../nios2-elf/lib/libc.a(freer.o)
 .comment       0x00001080       0x2c /cygdrive/c/altera/91/nios2eds/bin/nios2-gnutools/H-i686-pc-cygwin/bin/../lib/gcc/nios2-elf/3.4.6/../../../../nios2-elf/lib/libc.a(fvwrite.o)
 .comment       0x000010ac       0x2c /cygdrive/c/altera/91/nios2eds/bin/nios2-gnutools/H-i686-pc-cygwin/bin/../lib/gcc/nios2-elf/3.4.6/../../../../nios2-elf/lib/libc.a(fwalk.o)
 .comment       0x000010d8       0x2c /cygdrive/c/altera/91/nios2eds/bin/nios2-gnutools/H-i686-pc-cygwin/bin/../lib/gcc/nios2-elf/3.4.6/../../../../nios2-elf/lib/libc.a(locale.o)
 .comment       0x00001104       0x2c /cygdrive/c/altera/91/nios2eds/bin/nios2-gnutools/H-i686-pc-cygwin/bin/../lib/gcc/nios2-elf/3.4.6/../../../../nios2-elf/lib/libc.a(lseekr.o)
 .comment       0x00001130       0x2c /cygdrive/c/altera/91/nios2eds/bin/nios2-gnutools/H-i686-pc-cygwin/bin/../lib/gcc/nios2-elf/3.4.6/../../../../nios2-elf/lib/libc.a(memchr.o)
 .comment       0x0000115c       0x2c /cygdrive/c/altera/91/nios2eds/bin/nios2-gnutools/H-i686-pc-cygwin/bin/../lib/gcc/nios2-elf/3.4.6/../../../../nios2-elf/lib/libc.a(memmove.o)
 .comment       0x00001188       0x2c /cygdrive/c/altera/91/nios2eds/bin/nios2-gnutools/H-i686-pc-cygwin/bin/../lib/gcc/nios2-elf/3.4.6/../../../../nios2-elf/lib/libc.a(mprec.o)
 .comment       0x000011b4       0x2c /cygdrive/c/altera/91/nios2eds/bin/nios2-gnutools/H-i686-pc-cygwin/bin/../lib/gcc/nios2-elf/3.4.6/../../../../nios2-elf/lib/libc.a(readr.o)
 .comment       0x000011e0       0x2c /cygdrive/c/altera/91/nios2eds/bin/nios2-gnutools/H-i686-pc-cygwin/bin/../lib/gcc/nios2-elf/3.4.6/../../../../nios2-elf/lib/libc.a(reallocr.o)
 .comment       0x0000120c       0x2c /cygdrive/c/altera/91/nios2eds/bin/nios2-gnutools/H-i686-pc-cygwin/bin/../lib/gcc/nios2-elf/3.4.6/../../../../nios2-elf/lib/libc.a(s_isinf.o)
 .comment       0x00001238       0x2c /cygdrive/c/altera/91/nios2eds/bin/nios2-gnutools/H-i686-pc-cygwin/bin/../lib/gcc/nios2-elf/3.4.6/../../../../nios2-elf/lib/libc.a(strcmp.o)
 .comment       0x00001264       0x2c /cygdrive/c/altera/91/nios2eds/bin/nios2-gnutools/H-i686-pc-cygwin/bin/../lib/gcc/nios2-elf/3.4.6/libgcc.a(_udivdi3.o)
 .comment       0x00001290       0x2c /cygdrive/c/altera/91/nios2eds/bin/nios2-gnutools/H-i686-pc-cygwin/bin/../lib/gcc/nios2-elf/3.4.6/libgcc.a(_umoddi3.o)
 .comment       0x000012bc       0x2c /cygdrive/c/altera/91/nios2eds/bin/nios2-gnutools/H-i686-pc-cygwin/bin/../lib/gcc/nios2-elf/3.4.6/libgcc.a(_clz.o)
 .comment       0x000012e8       0x2c ../controller_sw_bsp/libhal_bsp.a(alt_close.o)
 .comment       0x00001314       0x2c ../controller_sw_bsp/libhal_bsp.a(alt_dev.o)
 .comment       0x00001340       0x2c ../controller_sw_bsp/libhal_bsp.a(alt_errno.o)
 .comment       0x0000136c       0x2c ../controller_sw_bsp/libhal_bsp.a(alt_fstat.o)
 .comment       0x00001398       0x2c ../controller_sw_bsp/libhal_bsp.a(alt_irq_register.o)
 .comment       0x000013c4       0x2c ../controller_sw_bsp/libhal_bsp.a(alt_irq_vars.o)
 .comment       0x000013f0       0x2c ../controller_sw_bsp/libhal_bsp.a(alt_isatty.o)
 .comment       0x0000141c       0x2c ../controller_sw_bsp/libhal_bsp.a(alt_lseek.o)
 .comment       0x00001448       0x2c ../controller_sw_bsp/libhal_bsp.a(alt_main.o)
 .comment       0x00001474       0x2c ../controller_sw_bsp/libhal_bsp.a(alt_malloc_lock.o)
 .comment       0x000014a0       0x2c ../controller_sw_bsp/libhal_bsp.a(alt_open.o)
 .comment       0x000014cc       0x2c ../controller_sw_bsp/libhal_bsp.a(alt_printf.o)
 .comment       0x000014f8       0x2c ../controller_sw_bsp/libhal_bsp.a(alt_putchar.o)
 .comment       0x00001524       0x2c ../controller_sw_bsp/libhal_bsp.a(alt_read.o)
 .comment       0x00001550       0x2c ../controller_sw_bsp/libhal_bsp.a(alt_release_fd.o)
 .comment       0x0000157c       0x2c ../controller_sw_bsp/libhal_bsp.a(alt_sbrk.o)
 .comment       0x000015a8       0x2c ../controller_sw_bsp/libhal_bsp.a(alt_usleep.o)
 .comment       0x000015d4       0x2c ../controller_sw_bsp/libhal_bsp.a(alt_write.o)
 .comment       0x00001600       0x2c ../controller_sw_bsp/libhal_bsp.a(alt_sys_init.o)
 .comment       0x0000162c       0x2c ../controller_sw_bsp/libhal_bsp.a(altera_avalon_jtag_uart_fd.o)
 .comment       0x00001658       0x2c ../controller_sw_bsp/libhal_bsp.a(altera_avalon_jtag_uart_init.o)
 .comment       0x00001684       0x2c ../controller_sw_bsp/libhal_bsp.a(altera_avalon_jtag_uart_ioctl.o)
 .comment       0x000016b0       0x2c ../controller_sw_bsp/libhal_bsp.a(altera_avalon_jtag_uart_read.o)
 .comment       0x000016dc       0x2c ../controller_sw_bsp/libhal_bsp.a(altera_avalon_jtag_uart_write.o)
 .comment       0x00001708       0x2c ../controller_sw_bsp/libhal_bsp.a(altera_avalon_lcd_16207.o)
 .comment       0x00001734       0x2c ../controller_sw_bsp/libhal_bsp.a(altera_avalon_lcd_16207_fd.o)
 .comment       0x00001760       0x2c ../controller_sw_bsp/libhal_bsp.a(altera_avalon_timer_sc.o)
 .comment       0x0000178c       0x2c ../controller_sw_bsp/libhal_bsp.a(altera_up_avalon_pixel_buffer.o)
 .comment       0x000017b8       0x2c ../controller_sw_bsp/libhal_bsp.a(alt_alarm_start.o)
 .comment       0x000017e4       0x2c ../controller_sw_bsp/libhal_bsp.a(alt_busy_sleep.o)
 .comment       0x00001810       0x2c ../controller_sw_bsp/libhal_bsp.a(alt_dev_llist_insert.o)
 .comment       0x0000183c       0x2c ../controller_sw_bsp/libhal_bsp.a(alt_do_ctors.o)
 .comment       0x00001868       0x2c ../controller_sw_bsp/libhal_bsp.a(alt_do_dtors.o)
 .comment       0x00001894       0x2c ../controller_sw_bsp/libhal_bsp.a(alt_find_dev.o)
 .comment       0x000018c0       0x2c ../controller_sw_bsp/libhal_bsp.a(alt_find_file.o)
 .comment       0x000018ec       0x2c ../controller_sw_bsp/libhal_bsp.a(alt_get_fd.o)
 .comment       0x00001918       0x2c ../controller_sw_bsp/libhal_bsp.a(alt_io_redirect.o)
 .comment       0x00001944       0x2c ../controller_sw_bsp/libhal_bsp.a(alt_irq_handler.o)
 .comment       0x00001970       0x2c ../controller_sw_bsp/libhal_bsp.a(alt_tick.o)
 .comment       0x0000199c       0x2c ../controller_sw_bsp/libhal_bsp.a(altera_nios2_irq.o)
 .comment       0x000019c8       0x2c /cygdrive/c/altera/91/nios2eds/bin/nios2-gnutools/H-i686-pc-cygwin/bin/../lib/gcc/nios2-elf/3.4.6/../../../../nios2-elf/lib/libc.a(atexit.o)
 .comment       0x000019f4       0x2c /cygdrive/c/altera/91/nios2eds/bin/nios2-gnutools/H-i686-pc-cygwin/bin/../lib/gcc/nios2-elf/3.4.6/../../../../nios2-elf/lib/libc.a(ctype_.o)
 .comment       0x00001a20       0x2c /cygdrive/c/altera/91/nios2eds/bin/nios2-gnutools/H-i686-pc-cygwin/bin/../lib/gcc/nios2-elf/3.4.6/../../../../nios2-elf/lib/libc.a(exit.o)
 .comment       0x00001a4c       0x2c /cygdrive/c/altera/91/nios2eds/bin/nios2-gnutools/H-i686-pc-cygwin/bin/../lib/gcc/nios2-elf/3.4.6/../../../../nios2-elf/lib/libc.a(memcmp.o)
 .comment       0x00001a78       0x2c /cygdrive/c/altera/91/nios2eds/bin/nios2-gnutools/H-i686-pc-cygwin/bin/../lib/gcc/nios2-elf/3.4.6/../../../../nios2-elf/lib/libc.a(putc.o)
 .comment       0x00001aa4       0x2c /cygdrive/c/altera/91/nios2eds/bin/nios2-gnutools/H-i686-pc-cygwin/bin/../lib/gcc/nios2-elf/3.4.6/../../../../nios2-elf/lib/libc.a(wbuf.o)
 .comment       0x00001ad0       0x2c ../controller_sw_bsp/libhal_bsp.a(alt_exit.o)

.debug
 *(.debug)

.line
 *(.line)

.debug_srcinfo
 *(.debug_srcinfo)

.debug_sfnames
 *(.debug_sfnames)

.debug_aranges  0x00000000     0x1318
 *(.debug_aranges)
 .debug_aranges
                0x00000000       0x28 ../controller_sw_bsp/obj/HAL/src/crt0.o
 .debug_aranges
                0x00000028       0x20 obj/collision_detection.o
 .debug_aranges
                0x00000048       0x20 obj/draw.o
 .debug_aranges
                0x00000068       0x20 obj/ethernet_isr.o
 .debug_aranges
                0x00000088       0x20 obj/game_loop.o
 .debug_aranges
                0x000000a8       0x20 obj/main.o
 .debug_aranges
                0x000000c8       0x20 obj/ship.o
 .debug_aranges
                0x000000e8       0x20 obj/util.o
 .debug_aranges
                0x00000108       0x20 /cygdrive/c/altera/91/nios2eds/bin/nios2-gnutools/H-i686-pc-cygwin/bin/../lib/gcc/nios2-elf/3.4.6/../../../../nios2-elf/lib/libm.a(s_cos.o)
 .debug_aranges
                0x00000128       0x20 /cygdrive/c/altera/91/nios2eds/bin/nios2-gnutools/H-i686-pc-cygwin/bin/../lib/gcc/nios2-elf/3.4.6/../../../../nios2-elf/lib/libm.a(s_sin.o)
 .debug_aranges
                0x00000148       0x20 /cygdrive/c/altera/91/nios2eds/bin/nios2-gnutools/H-i686-pc-cygwin/bin/../lib/gcc/nios2-elf/3.4.6/../../../../nios2-elf/lib/libm.a(sf_round.o)
 .debug_aranges
                0x00000168       0x20 /cygdrive/c/altera/91/nios2eds/bin/nios2-gnutools/H-i686-pc-cygwin/bin/../lib/gcc/nios2-elf/3.4.6/../../../../nios2-elf/lib/libm.a(w_sqrt.o)
 .debug_aranges
                0x00000188       0x20 /cygdrive/c/altera/91/nios2eds/bin/nios2-gnutools/H-i686-pc-cygwin/bin/../lib/gcc/nios2-elf/3.4.6/../../../../nios2-elf/lib/libm.a(e_rem_pio2.o)
 .debug_aranges
                0x000001a8       0x20 /cygdrive/c/altera/91/nios2eds/bin/nios2-gnutools/H-i686-pc-cygwin/bin/../lib/gcc/nios2-elf/3.4.6/../../../../nios2-elf/lib/libm.a(e_sqrt.o)
 .debug_aranges
                0x000001c8       0x20 /cygdrive/c/altera/91/nios2eds/bin/nios2-gnutools/H-i686-pc-cygwin/bin/../lib/gcc/nios2-elf/3.4.6/../../../../nios2-elf/lib/libm.a(k_cos.o)
 .debug_aranges
                0x000001e8       0x20 /cygdrive/c/altera/91/nios2eds/bin/nios2-gnutools/H-i686-pc-cygwin/bin/../lib/gcc/nios2-elf/3.4.6/../../../../nios2-elf/lib/libm.a(k_rem_pio2.o)
 .debug_aranges
                0x00000208       0x20 /cygdrive/c/altera/91/nios2eds/bin/nios2-gnutools/H-i686-pc-cygwin/bin/../lib/gcc/nios2-elf/3.4.6/../../../../nios2-elf/lib/libm.a(k_sin.o)
 .debug_aranges
                0x00000228       0x20 /cygdrive/c/altera/91/nios2eds/bin/nios2-gnutools/H-i686-pc-cygwin/bin/../lib/gcc/nios2-elf/3.4.6/../../../../nios2-elf/lib/libm.a(s_fabs.o)
 .debug_aranges
                0x00000248       0x20 /cygdrive/c/altera/91/nios2eds/bin/nios2-gnutools/H-i686-pc-cygwin/bin/../lib/gcc/nios2-elf/3.4.6/../../../../nios2-elf/lib/libm.a(s_floor.o)
 .debug_aranges
                0x00000268       0x20 /cygdrive/c/altera/91/nios2eds/bin/nios2-gnutools/H-i686-pc-cygwin/bin/../lib/gcc/nios2-elf/3.4.6/../../../../nios2-elf/lib/libm.a(s_isnan.o)
 .debug_aranges
                0x00000288       0x20 /cygdrive/c/altera/91/nios2eds/bin/nios2-gnutools/H-i686-pc-cygwin/bin/../lib/gcc/nios2-elf/3.4.6/../../../../nios2-elf/lib/libm.a(s_matherr.o)
 .debug_aranges
                0x000002a8       0x20 /cygdrive/c/altera/91/nios2eds/bin/nios2-gnutools/H-i686-pc-cygwin/bin/../lib/gcc/nios2-elf/3.4.6/../../../../nios2-elf/lib/libm.a(s_scalbn.o)
 .debug_aranges
                0x000002c8       0x20 /cygdrive/c/altera/91/nios2eds/bin/nios2-gnutools/H-i686-pc-cygwin/bin/../lib/gcc/nios2-elf/3.4.6/../../../../nios2-elf/lib/libm.a(s_copysign.o)
 .debug_aranges
                0x000002e8       0x20 /cygdrive/c/altera/91/nios2eds/bin/nios2-gnutools/H-i686-pc-cygwin/bin/../lib/gcc/nios2-elf/3.4.6/libgcc.a(_fixunssfsi.o)
 .debug_aranges
                0x00000308       0x20 /cygdrive/c/altera/91/nios2eds/bin/nios2-gnutools/H-i686-pc-cygwin/bin/../lib/gcc/nios2-elf/3.4.6/libgcc.a(_addsub_sf.o)
 .debug_aranges
                0x00000328       0x20 /cygdrive/c/altera/91/nios2eds/bin/nios2-gnutools/H-i686-pc-cygwin/bin/../lib/gcc/nios2-elf/3.4.6/libgcc.a(_mul_sf.o)
 .debug_aranges
                0x00000348       0x20 /cygdrive/c/altera/91/nios2eds/bin/nios2-gnutools/H-i686-pc-cygwin/bin/../lib/gcc/nios2-elf/3.4.6/libgcc.a(_div_sf.o)
 .debug_aranges
                0x00000368       0x20 /cygdrive/c/altera/91/nios2eds/bin/nios2-gnutools/H-i686-pc-cygwin/bin/../lib/gcc/nios2-elf/3.4.6/libgcc.a(_eq_sf.o)
 .debug_aranges
                0x00000388       0x20 /cygdrive/c/altera/91/nios2eds/bin/nios2-gnutools/H-i686-pc-cygwin/bin/../lib/gcc/nios2-elf/3.4.6/libgcc.a(_ne_sf.o)
 .debug_aranges
                0x000003a8       0x20 /cygdrive/c/altera/91/nios2eds/bin/nios2-gnutools/H-i686-pc-cygwin/bin/../lib/gcc/nios2-elf/3.4.6/libgcc.a(_gt_sf.o)
 .debug_aranges
                0x000003c8       0x20 /cygdrive/c/altera/91/nios2eds/bin/nios2-gnutools/H-i686-pc-cygwin/bin/../lib/gcc/nios2-elf/3.4.6/libgcc.a(_ge_sf.o)
 .debug_aranges
                0x000003e8       0x20 /cygdrive/c/altera/91/nios2eds/bin/nios2-gnutools/H-i686-pc-cygwin/bin/../lib/gcc/nios2-elf/3.4.6/libgcc.a(_lt_sf.o)
 .debug_aranges
                0x00000408       0x20 /cygdrive/c/altera/91/nios2eds/bin/nios2-gnutools/H-i686-pc-cygwin/bin/../lib/gcc/nios2-elf/3.4.6/libgcc.a(_le_sf.o)
 .debug_aranges
                0x00000428       0x20 /cygdrive/c/altera/91/nios2eds/bin/nios2-gnutools/H-i686-pc-cygwin/bin/../lib/gcc/nios2-elf/3.4.6/libgcc.a(_si_to_sf.o)
 .debug_aranges
                0x00000448       0x20 /cygdrive/c/altera/91/nios2eds/bin/nios2-gnutools/H-i686-pc-cygwin/bin/../lib/gcc/nios2-elf/3.4.6/libgcc.a(_sf_to_si.o)
 .debug_aranges
                0x00000468       0x20 /cygdrive/c/altera/91/nios2eds/bin/nios2-gnutools/H-i686-pc-cygwin/bin/../lib/gcc/nios2-elf/3.4.6/libgcc.a(_sf_to_df.o)
 .debug_aranges
                0x00000488       0x20 /cygdrive/c/altera/91/nios2eds/bin/nios2-gnutools/H-i686-pc-cygwin/bin/../lib/gcc/nios2-elf/3.4.6/libgcc.a(_addsub_df.o)
 .debug_aranges
                0x000004a8       0x20 /cygdrive/c/altera/91/nios2eds/bin/nios2-gnutools/H-i686-pc-cygwin/bin/../lib/gcc/nios2-elf/3.4.6/libgcc.a(_mul_df.o)
 .debug_aranges
                0x000004c8       0x20 /cygdrive/c/altera/91/nios2eds/bin/nios2-gnutools/H-i686-pc-cygwin/bin/../lib/gcc/nios2-elf/3.4.6/libgcc.a(_div_df.o)
 .debug_aranges
                0x000004e8       0x20 /cygdrive/c/altera/91/nios2eds/bin/nios2-gnutools/H-i686-pc-cygwin/bin/../lib/gcc/nios2-elf/3.4.6/libgcc.a(_eq_df.o)
 .debug_aranges
                0x00000508       0x20 /cygdrive/c/altera/91/nios2eds/bin/nios2-gnutools/H-i686-pc-cygwin/bin/../lib/gcc/nios2-elf/3.4.6/libgcc.a(_ne_df.o)
 .debug_aranges
                0x00000528       0x20 /cygdrive/c/altera/91/nios2eds/bin/nios2-gnutools/H-i686-pc-cygwin/bin/../lib/gcc/nios2-elf/3.4.6/libgcc.a(_gt_df.o)
 .debug_aranges
                0x00000548       0x20 /cygdrive/c/altera/91/nios2eds/bin/nios2-gnutools/H-i686-pc-cygwin/bin/../lib/gcc/nios2-elf/3.4.6/libgcc.a(_ge_df.o)
 .debug_aranges
                0x00000568       0x20 /cygdrive/c/altera/91/nios2eds/bin/nios2-gnutools/H-i686-pc-cygwin/bin/../lib/gcc/nios2-elf/3.4.6/libgcc.a(_lt_df.o)
 .debug_aranges
                0x00000588       0x20 /cygdrive/c/altera/91/nios2eds/bin/nios2-gnutools/H-i686-pc-cygwin/bin/../lib/gcc/nios2-elf/3.4.6/libgcc.a(_si_to_df.o)
 .debug_aranges
                0x000005a8       0x20 /cygdrive/c/altera/91/nios2eds/bin/nios2-gnutools/H-i686-pc-cygwin/bin/../lib/gcc/nios2-elf/3.4.6/libgcc.a(_df_to_si.o)
 .debug_aranges
                0x000005c8       0x20 /cygdrive/c/altera/91/nios2eds/bin/nios2-gnutools/H-i686-pc-cygwin/bin/../lib/gcc/nios2-elf/3.4.6/libgcc.a(_make_df.o)
 .debug_aranges
                0x000005e8       0x20 /cygdrive/c/altera/91/nios2eds/bin/nios2-gnutools/H-i686-pc-cygwin/bin/../lib/gcc/nios2-elf/3.4.6/libgcc.a(_df_to_sf.o)
 .debug_aranges
                0x00000608       0x20 /cygdrive/c/altera/91/nios2eds/bin/nios2-gnutools/H-i686-pc-cygwin/bin/../lib/gcc/nios2-elf/3.4.6/libgcc.a(lib2-divmod.o)
 .debug_aranges
                0x00000628       0x20 /cygdrive/c/altera/91/nios2eds/bin/nios2-gnutools/H-i686-pc-cygwin/bin/../lib/gcc/nios2-elf/3.4.6/libgcc.a(_muldi3.o)
 .debug_aranges
                0x00000648       0x20 /cygdrive/c/altera/91/nios2eds/bin/nios2-gnutools/H-i686-pc-cygwin/bin/../lib/gcc/nios2-elf/3.4.6/libgcc.a(_negdi2.o)
 .debug_aranges
                0x00000668       0x20 /cygdrive/c/altera/91/nios2eds/bin/nios2-gnutools/H-i686-pc-cygwin/bin/../lib/gcc/nios2-elf/3.4.6/libgcc.a(_lshrdi3.o)
 .debug_aranges
                0x00000688       0x20 /cygdrive/c/altera/91/nios2eds/bin/nios2-gnutools/H-i686-pc-cygwin/bin/../lib/gcc/nios2-elf/3.4.6/libgcc.a(_pack_sf.o)
 .debug_aranges
                0x000006a8       0x20 /cygdrive/c/altera/91/nios2eds/bin/nios2-gnutools/H-i686-pc-cygwin/bin/../lib/gcc/nios2-elf/3.4.6/libgcc.a(_unpack_sf.o)
 .debug_aranges
                0x000006c8       0x20 /cygdrive/c/altera/91/nios2eds/bin/nios2-gnutools/H-i686-pc-cygwin/bin/../lib/gcc/nios2-elf/3.4.6/libgcc.a(_fpcmp_parts_sf.o)
 .debug_aranges
                0x000006e8       0x20 /cygdrive/c/altera/91/nios2eds/bin/nios2-gnutools/H-i686-pc-cygwin/bin/../lib/gcc/nios2-elf/3.4.6/libgcc.a(_make_sf.o)
 .debug_aranges
                0x00000708       0x20 /cygdrive/c/altera/91/nios2eds/bin/nios2-gnutools/H-i686-pc-cygwin/bin/../lib/gcc/nios2-elf/3.4.6/libgcc.a(_pack_df.o)
 .debug_aranges
                0x00000728       0x20 /cygdrive/c/altera/91/nios2eds/bin/nios2-gnutools/H-i686-pc-cygwin/bin/../lib/gcc/nios2-elf/3.4.6/libgcc.a(_unpack_df.o)
 .debug_aranges
                0x00000748       0x20 /cygdrive/c/altera/91/nios2eds/bin/nios2-gnutools/H-i686-pc-cygwin/bin/../lib/gcc/nios2-elf/3.4.6/libgcc.a(_fpcmp_parts_df.o)
 .debug_aranges
                0x00000768       0x20 /cygdrive/c/altera/91/nios2eds/bin/nios2-gnutools/H-i686-pc-cygwin/bin/../lib/gcc/nios2-elf/3.4.6/libgcc.a(_ashldi3.o)
 .debug_aranges
                0x00000788       0x20 /cygdrive/c/altera/91/nios2eds/bin/nios2-gnutools/H-i686-pc-cygwin/bin/../lib/gcc/nios2-elf/3.4.6/../../../../nios2-elf/lib/libc.a(calloc.o)
 .debug_aranges
                0x000007a8       0x20 /cygdrive/c/altera/91/nios2eds/bin/nios2-gnutools/H-i686-pc-cygwin/bin/../lib/gcc/nios2-elf/3.4.6/../../../../nios2-elf/lib/libc.a(callocr.o)
 .debug_aranges
                0x000007c8       0x20 /cygdrive/c/altera/91/nios2eds/bin/nios2-gnutools/H-i686-pc-cygwin/bin/../lib/gcc/nios2-elf/3.4.6/../../../../nios2-elf/lib/libc.a(errno.o)
 .debug_aranges
                0x000007e8       0x20 /cygdrive/c/altera/91/nios2eds/bin/nios2-gnutools/H-i686-pc-cygwin/bin/../lib/gcc/nios2-elf/3.4.6/../../../../nios2-elf/lib/libc.a(fopen.o)
 .debug_aranges
                0x00000808       0x20 /cygdrive/c/altera/91/nios2eds/bin/nios2-gnutools/H-i686-pc-cygwin/bin/../lib/gcc/nios2-elf/3.4.6/../../../../nios2-elf/lib/libc.a(fprintf.o)
 .debug_aranges
                0x00000828       0x20 /cygdrive/c/altera/91/nios2eds/bin/nios2-gnutools/H-i686-pc-cygwin/bin/../lib/gcc/nios2-elf/3.4.6/../../../../nios2-elf/lib/libc.a(fseek.o)
 .debug_aranges
                0x00000848       0x20 /cygdrive/c/altera/91/nios2eds/bin/nios2-gnutools/H-i686-pc-cygwin/bin/../lib/gcc/nios2-elf/3.4.6/../../../../nios2-elf/lib/libc.a(fstatr.o)
 .debug_aranges
                0x00000868       0x20 /cygdrive/c/altera/91/nios2eds/bin/nios2-gnutools/H-i686-pc-cygwin/bin/../lib/gcc/nios2-elf/3.4.6/../../../../nios2-elf/lib/libc.a(makebuf.o)
 .debug_aranges
                0x00000888       0x20 /cygdrive/c/altera/91/nios2eds/bin/nios2-gnutools/H-i686-pc-cygwin/bin/../lib/gcc/nios2-elf/3.4.6/../../../../nios2-elf/lib/libc.a(malloc.o)
 .debug_aranges
                0x000008a8       0x20 /cygdrive/c/altera/91/nios2eds/bin/nios2-gnutools/H-i686-pc-cygwin/bin/../lib/gcc/nios2-elf/3.4.6/../../../../nios2-elf/lib/libc.a(mallocr.o)
 .debug_aranges
                0x000008c8       0x20 /cygdrive/c/altera/91/nios2eds/bin/nios2-gnutools/H-i686-pc-cygwin/bin/../lib/gcc/nios2-elf/3.4.6/../../../../nios2-elf/lib/libc.a(memcpy.o)
 .debug_aranges
                0x000008e8       0x20 /cygdrive/c/altera/91/nios2eds/bin/nios2-gnutools/H-i686-pc-cygwin/bin/../lib/gcc/nios2-elf/3.4.6/../../../../nios2-elf/lib/libc.a(memset.o)
 .debug_aranges
                0x00000908       0x20 /cygdrive/c/altera/91/nios2eds/bin/nios2-gnutools/H-i686-pc-cygwin/bin/../lib/gcc/nios2-elf/3.4.6/../../../../nios2-elf/lib/libc.a(openr.o)
 .debug_aranges
                0x00000928       0x20 /cygdrive/c/altera/91/nios2eds/bin/nios2-gnutools/H-i686-pc-cygwin/bin/../lib/gcc/nios2-elf/3.4.6/../../../../nios2-elf/lib/libc.a(rand.o)
 .debug_aranges
                0x00000948       0x20 /cygdrive/c/altera/91/nios2eds/bin/nios2-gnutools/H-i686-pc-cygwin/bin/../lib/gcc/nios2-elf/3.4.6/../../../../nios2-elf/lib/libc.a(refill.o)
 .debug_aranges
                0x00000968       0x20 /cygdrive/c/altera/91/nios2eds/bin/nios2-gnutools/H-i686-pc-cygwin/bin/../lib/gcc/nios2-elf/3.4.6/../../../../nios2-elf/lib/libc.a(sbrkr.o)
 .debug_aranges
                0x00000988       0x20 /cygdrive/c/altera/91/nios2eds/bin/nios2-gnutools/H-i686-pc-cygwin/bin/../lib/gcc/nios2-elf/3.4.6/../../../../nios2-elf/lib/libc.a(sprintf.o)
 .debug_aranges
                0x000009a8       0x20 /cygdrive/c/altera/91/nios2eds/bin/nios2-gnutools/H-i686-pc-cygwin/bin/../lib/gcc/nios2-elf/3.4.6/../../../../nios2-elf/lib/libc.a(stdio.o)
 .debug_aranges
                0x000009c8       0x20 /cygdrive/c/altera/91/nios2eds/bin/nios2-gnutools/H-i686-pc-cygwin/bin/../lib/gcc/nios2-elf/3.4.6/../../../../nios2-elf/lib/libc.a(strlen.o)
 .debug_aranges
                0x000009e8       0x20 /cygdrive/c/altera/91/nios2eds/bin/nios2-gnutools/H-i686-pc-cygwin/bin/../lib/gcc/nios2-elf/3.4.6/../../../../nios2-elf/lib/libc.a(vfprintf1.o)
 .debug_aranges
                0x00000a08       0x20 /cygdrive/c/altera/91/nios2eds/bin/nios2-gnutools/H-i686-pc-cygwin/bin/../lib/gcc/nios2-elf/3.4.6/../../../../nios2-elf/lib/libc.a(wcrtomb.o)
 .debug_aranges
                0x00000a28       0x20 /cygdrive/c/altera/91/nios2eds/bin/nios2-gnutools/H-i686-pc-cygwin/bin/../lib/gcc/nios2-elf/3.4.6/../../../../nios2-elf/lib/libc.a(wcsrtombs.o)
 .debug_aranges
                0x00000a48       0x20 /cygdrive/c/altera/91/nios2eds/bin/nios2-gnutools/H-i686-pc-cygwin/bin/../lib/gcc/nios2-elf/3.4.6/../../../../nios2-elf/lib/libc.a(wctomb_r.o)
 .debug_aranges
                0x00000a68       0x20 /cygdrive/c/altera/91/nios2eds/bin/nios2-gnutools/H-i686-pc-cygwin/bin/../lib/gcc/nios2-elf/3.4.6/../../../../nios2-elf/lib/libc.a(writer.o)
 .debug_aranges
                0x00000a88       0x20 /cygdrive/c/altera/91/nios2eds/bin/nios2-gnutools/H-i686-pc-cygwin/bin/../lib/gcc/nios2-elf/3.4.6/../../../../nios2-elf/lib/libc.a(wsetup.o)
 .debug_aranges
                0x00000aa8       0x20 /cygdrive/c/altera/91/nios2eds/bin/nios2-gnutools/H-i686-pc-cygwin/bin/../lib/gcc/nios2-elf/3.4.6/../../../../nios2-elf/lib/libc.a(closer.o)
 .debug_aranges
                0x00000ac8       0x20 /cygdrive/c/altera/91/nios2eds/bin/nios2-gnutools/H-i686-pc-cygwin/bin/../lib/gcc/nios2-elf/3.4.6/../../../../nios2-elf/lib/libc.a(dtoa.o)
 .debug_aranges
                0x00000ae8       0x20 /cygdrive/c/altera/91/nios2eds/bin/nios2-gnutools/H-i686-pc-cygwin/bin/../lib/gcc/nios2-elf/3.4.6/../../../../nios2-elf/lib/libc.a(fflush.o)
 .debug_aranges
                0x00000b08       0x20 /cygdrive/c/altera/91/nios2eds/bin/nios2-gnutools/H-i686-pc-cygwin/bin/../lib/gcc/nios2-elf/3.4.6/../../../../nios2-elf/lib/libc.a(findfp.o)
 .debug_aranges
                0x00000b28       0x20 /cygdrive/c/altera/91/nios2eds/bin/nios2-gnutools/H-i686-pc-cygwin/bin/../lib/gcc/nios2-elf/3.4.6/../../../../nios2-elf/lib/libc.a(findfp1.o)
 .debug_aranges
                0x00000b48       0x20 /cygdrive/c/altera/91/nios2eds/bin/nios2-gnutools/H-i686-pc-cygwin/bin/../lib/gcc/nios2-elf/3.4.6/../../../../nios2-elf/lib/libc.a(flags.o)
 .debug_aranges
                0x00000b68       0x20 /cygdrive/c/altera/91/nios2eds/bin/nios2-gnutools/H-i686-pc-cygwin/bin/../lib/gcc/nios2-elf/3.4.6/../../../../nios2-elf/lib/libc.a(freer.o)
 .debug_aranges
                0x00000b88       0x20 /cygdrive/c/altera/91/nios2eds/bin/nios2-gnutools/H-i686-pc-cygwin/bin/../lib/gcc/nios2-elf/3.4.6/../../../../nios2-elf/lib/libc.a(fvwrite.o)
 .debug_aranges
                0x00000ba8       0x20 /cygdrive/c/altera/91/nios2eds/bin/nios2-gnutools/H-i686-pc-cygwin/bin/../lib/gcc/nios2-elf/3.4.6/../../../../nios2-elf/lib/libc.a(fwalk.o)
 .debug_aranges
                0x00000bc8       0x20 /cygdrive/c/altera/91/nios2eds/bin/nios2-gnutools/H-i686-pc-cygwin/bin/../lib/gcc/nios2-elf/3.4.6/../../../../nios2-elf/lib/libc.a(locale.o)
 .debug_aranges
                0x00000be8       0x20 /cygdrive/c/altera/91/nios2eds/bin/nios2-gnutools/H-i686-pc-cygwin/bin/../lib/gcc/nios2-elf/3.4.6/../../../../nios2-elf/lib/libc.a(lseekr.o)
 .debug_aranges
                0x00000c08       0x20 /cygdrive/c/altera/91/nios2eds/bin/nios2-gnutools/H-i686-pc-cygwin/bin/../lib/gcc/nios2-elf/3.4.6/../../../../nios2-elf/lib/libc.a(memchr.o)
 .debug_aranges
                0x00000c28       0x20 /cygdrive/c/altera/91/nios2eds/bin/nios2-gnutools/H-i686-pc-cygwin/bin/../lib/gcc/nios2-elf/3.4.6/../../../../nios2-elf/lib/libc.a(memmove.o)
 .debug_aranges
                0x00000c48       0x20 /cygdrive/c/altera/91/nios2eds/bin/nios2-gnutools/H-i686-pc-cygwin/bin/../lib/gcc/nios2-elf/3.4.6/../../../../nios2-elf/lib/libc.a(mprec.o)
 .debug_aranges
                0x00000c68       0x20 /cygdrive/c/altera/91/nios2eds/bin/nios2-gnutools/H-i686-pc-cygwin/bin/../lib/gcc/nios2-elf/3.4.6/../../../../nios2-elf/lib/libc.a(readr.o)
 .debug_aranges
                0x00000c88       0x20 /cygdrive/c/altera/91/nios2eds/bin/nios2-gnutools/H-i686-pc-cygwin/bin/../lib/gcc/nios2-elf/3.4.6/../../../../nios2-elf/lib/libc.a(reallocr.o)
 .debug_aranges
                0x00000ca8       0x20 /cygdrive/c/altera/91/nios2eds/bin/nios2-gnutools/H-i686-pc-cygwin/bin/../lib/gcc/nios2-elf/3.4.6/../../../../nios2-elf/lib/libc.a(s_isinf.o)
 .debug_aranges
                0x00000cc8       0x20 /cygdrive/c/altera/91/nios2eds/bin/nios2-gnutools/H-i686-pc-cygwin/bin/../lib/gcc/nios2-elf/3.4.6/../../../../nios2-elf/lib/libc.a(strcmp.o)
 .debug_aranges
                0x00000ce8       0x20 /cygdrive/c/altera/91/nios2eds/bin/nios2-gnutools/H-i686-pc-cygwin/bin/../lib/gcc/nios2-elf/3.4.6/libgcc.a(_udivdi3.o)
 .debug_aranges
                0x00000d08       0x20 /cygdrive/c/altera/91/nios2eds/bin/nios2-gnutools/H-i686-pc-cygwin/bin/../lib/gcc/nios2-elf/3.4.6/libgcc.a(_umoddi3.o)
 .debug_aranges
                0x00000d28       0x20 ../controller_sw_bsp/libhal_bsp.a(alt_close.o)
 .debug_aranges
                0x00000d48       0x20 ../controller_sw_bsp/libhal_bsp.a(alt_dev.o)
 .debug_aranges
                0x00000d68       0x20 ../controller_sw_bsp/libhal_bsp.a(alt_fstat.o)
 .debug_aranges
                0x00000d88       0x20 ../controller_sw_bsp/libhal_bsp.a(alt_irq_register.o)
 .debug_aranges
                0x00000da8       0x20 ../controller_sw_bsp/libhal_bsp.a(alt_isatty.o)
 .debug_aranges
                0x00000dc8       0x20 ../controller_sw_bsp/libhal_bsp.a(alt_lseek.o)
 .debug_aranges
                0x00000de8       0x20 ../controller_sw_bsp/libhal_bsp.a(alt_main.o)
 .debug_aranges
                0x00000e08       0x20 ../controller_sw_bsp/libhal_bsp.a(alt_malloc_lock.o)
 .debug_aranges
                0x00000e28       0x20 ../controller_sw_bsp/libhal_bsp.a(alt_open.o)
 .debug_aranges
                0x00000e48       0x20 ../controller_sw_bsp/libhal_bsp.a(alt_printf.o)
 .debug_aranges
                0x00000e68       0x20 ../controller_sw_bsp/libhal_bsp.a(alt_putchar.o)
 .debug_aranges
                0x00000e88       0x20 ../controller_sw_bsp/libhal_bsp.a(alt_read.o)
 .debug_aranges
                0x00000ea8       0x20 ../controller_sw_bsp/libhal_bsp.a(alt_release_fd.o)
 .debug_aranges
                0x00000ec8       0x20 ../controller_sw_bsp/libhal_bsp.a(alt_sbrk.o)
 .debug_aranges
                0x00000ee8       0x20 ../controller_sw_bsp/libhal_bsp.a(alt_usleep.o)
 .debug_aranges
                0x00000f08       0x20 ../controller_sw_bsp/libhal_bsp.a(alt_write.o)
 .debug_aranges
                0x00000f28       0x20 ../controller_sw_bsp/libhal_bsp.a(alt_sys_init.o)
 .debug_aranges
                0x00000f48       0x20 ../controller_sw_bsp/libhal_bsp.a(altera_avalon_jtag_uart_fd.o)
 .debug_aranges
                0x00000f68       0x20 ../controller_sw_bsp/libhal_bsp.a(altera_avalon_jtag_uart_init.o)
 .debug_aranges
                0x00000f88       0x20 ../controller_sw_bsp/libhal_bsp.a(altera_avalon_jtag_uart_ioctl.o)
 .debug_aranges
                0x00000fa8       0x20 ../controller_sw_bsp/libhal_bsp.a(altera_avalon_jtag_uart_read.o)
 .debug_aranges
                0x00000fc8       0x20 ../controller_sw_bsp/libhal_bsp.a(altera_avalon_jtag_uart_write.o)
 .debug_aranges
                0x00000fe8       0x20 ../controller_sw_bsp/libhal_bsp.a(altera_avalon_lcd_16207.o)
 .debug_aranges
                0x00001008       0x20 ../controller_sw_bsp/libhal_bsp.a(altera_avalon_lcd_16207_fd.o)
 .debug_aranges
                0x00001028       0x20 ../controller_sw_bsp/libhal_bsp.a(altera_avalon_timer_sc.o)
 .debug_aranges
                0x00001048       0x20 ../controller_sw_bsp/libhal_bsp.a(altera_up_avalon_pixel_buffer.o)
 .debug_aranges
                0x00001068       0x20 ../controller_sw_bsp/libhal_bsp.a(alt_alarm_start.o)
 .debug_aranges
                0x00001088       0x20 ../controller_sw_bsp/libhal_bsp.a(alt_busy_sleep.o)
 .debug_aranges
                0x000010a8       0x20 ../controller_sw_bsp/libhal_bsp.a(alt_dev_llist_insert.o)
 .debug_aranges
                0x000010c8       0x20 ../controller_sw_bsp/libhal_bsp.a(alt_do_ctors.o)
 .debug_aranges
                0x000010e8       0x20 ../controller_sw_bsp/libhal_bsp.a(alt_do_dtors.o)
 .debug_aranges
                0x00001108       0x20 ../controller_sw_bsp/libhal_bsp.a(alt_find_dev.o)
 .debug_aranges
                0x00001128       0x20 ../controller_sw_bsp/libhal_bsp.a(alt_find_file.o)
 .debug_aranges
                0x00001148       0x20 ../controller_sw_bsp/libhal_bsp.a(alt_get_fd.o)
 .debug_aranges
                0x00001168       0x20 ../controller_sw_bsp/libhal_bsp.a(alt_io_redirect.o)
 .debug_aranges
                0x00001188       0x30 ../controller_sw_bsp/libhal_bsp.a(alt_irq_entry.o)
 .debug_aranges
                0x000011b8       0x28 ../controller_sw_bsp/libhal_bsp.a(alt_irq_handler.o)
 .debug_aranges
                0x000011e0       0x20 ../controller_sw_bsp/libhal_bsp.a(alt_tick.o)
 .debug_aranges
                0x00001200       0x20 ../controller_sw_bsp/libhal_bsp.a(altera_nios2_irq.o)
 .debug_aranges
                0x00001220       0x38 ../controller_sw_bsp/libhal_bsp.a(alt_exception_entry.o)
 .debug_aranges
                0x00001258       0x20 /cygdrive/c/altera/91/nios2eds/bin/nios2-gnutools/H-i686-pc-cygwin/bin/../lib/gcc/nios2-elf/3.4.6/../../../../nios2-elf/lib/libc.a(atexit.o)
 .debug_aranges
                0x00001278       0x20 /cygdrive/c/altera/91/nios2eds/bin/nios2-gnutools/H-i686-pc-cygwin/bin/../lib/gcc/nios2-elf/3.4.6/../../../../nios2-elf/lib/libc.a(exit.o)
 .debug_aranges
                0x00001298       0x20 /cygdrive/c/altera/91/nios2eds/bin/nios2-gnutools/H-i686-pc-cygwin/bin/../lib/gcc/nios2-elf/3.4.6/../../../../nios2-elf/lib/libc.a(memcmp.o)
 .debug_aranges
                0x000012b8       0x20 /cygdrive/c/altera/91/nios2eds/bin/nios2-gnutools/H-i686-pc-cygwin/bin/../lib/gcc/nios2-elf/3.4.6/../../../../nios2-elf/lib/libc.a(putc.o)
 .debug_aranges
                0x000012d8       0x20 /cygdrive/c/altera/91/nios2eds/bin/nios2-gnutools/H-i686-pc-cygwin/bin/../lib/gcc/nios2-elf/3.4.6/../../../../nios2-elf/lib/libc.a(wbuf.o)
 .debug_aranges
                0x000012f8       0x20 ../controller_sw_bsp/libhal_bsp.a(alt_exit.o)

.debug_pubnames
                0x00000000     0x1e9c
 *(.debug_pubnames)
 .debug_pubnames
                0x00000000       0xdf obj/collision_detection.o
 .debug_pubnames
                0x000000df      0x159 obj/draw.o
 .debug_pubnames
                0x00000238       0xc2 obj/ethernet_isr.o
 .debug_pubnames
                0x000002fa       0x36 obj/game_loop.o
 .debug_pubnames
                0x00000330       0x82 obj/main.o
 .debug_pubnames
                0x000003b2       0xc0 obj/ship.o
 .debug_pubnames
                0x00000472       0x31 obj/util.o
 .debug_pubnames
                0x000004a3       0x1a /cygdrive/c/altera/91/nios2eds/bin/nios2-gnutools/H-i686-pc-cygwin/bin/../lib/gcc/nios2-elf/3.4.6/../../../../nios2-elf/lib/libm.a(s_cos.o)
 .debug_pubnames
                0x000004bd       0x1a /cygdrive/c/altera/91/nios2eds/bin/nios2-gnutools/H-i686-pc-cygwin/bin/../lib/gcc/nios2-elf/3.4.6/../../../../nios2-elf/lib/libm.a(s_sin.o)
 .debug_pubnames
                0x000004d7       0x1d /cygdrive/c/altera/91/nios2eds/bin/nios2-gnutools/H-i686-pc-cygwin/bin/../lib/gcc/nios2-elf/3.4.6/../../../../nios2-elf/lib/libm.a(sf_round.o)
 .debug_pubnames
                0x000004f4       0x1b /cygdrive/c/altera/91/nios2eds/bin/nios2-gnutools/H-i686-pc-cygwin/bin/../lib/gcc/nios2-elf/3.4.6/../../../../nios2-elf/lib/libm.a(w_sqrt.o)
 .debug_pubnames
                0x0000050f       0x29 /cygdrive/c/altera/91/nios2eds/bin/nios2-gnutools/H-i686-pc-cygwin/bin/../lib/gcc/nios2-elf/3.4.6/../../../../nios2-elf/lib/libm.a(e_rem_pio2.o)
 .debug_pubnames
                0x00000538       0x25 /cygdrive/c/altera/91/nios2eds/bin/nios2-gnutools/H-i686-pc-cygwin/bin/../lib/gcc/nios2-elf/3.4.6/../../../../nios2-elf/lib/libm.a(e_sqrt.o)
 .debug_pubnames
                0x0000055d       0x23 /cygdrive/c/altera/91/nios2eds/bin/nios2-gnutools/H-i686-pc-cygwin/bin/../lib/gcc/nios2-elf/3.4.6/../../../../nios2-elf/lib/libm.a(k_cos.o)
 .debug_pubnames
                0x00000580       0x28 /cygdrive/c/altera/91/nios2eds/bin/nios2-gnutools/H-i686-pc-cygwin/bin/../lib/gcc/nios2-elf/3.4.6/../../../../nios2-elf/lib/libm.a(k_rem_pio2.o)
 .debug_pubnames
                0x000005a8       0x23 /cygdrive/c/altera/91/nios2eds/bin/nios2-gnutools/H-i686-pc-cygwin/bin/../lib/gcc/nios2-elf/3.4.6/../../../../nios2-elf/lib/libm.a(k_sin.o)
 .debug_pubnames
                0x000005cb       0x1b /cygdrive/c/altera/91/nios2eds/bin/nios2-gnutools/H-i686-pc-cygwin/bin/../lib/gcc/nios2-elf/3.4.6/../../../../nios2-elf/lib/libm.a(s_fabs.o)
 .debug_pubnames
                0x000005e6       0x1c /cygdrive/c/altera/91/nios2eds/bin/nios2-gnutools/H-i686-pc-cygwin/bin/../lib/gcc/nios2-elf/3.4.6/../../../../nios2-elf/lib/libm.a(s_floor.o)
 .debug_pubnames
                0x00000602       0x1c /cygdrive/c/altera/91/nios2eds/bin/nios2-gnutools/H-i686-pc-cygwin/bin/../lib/gcc/nios2-elf/3.4.6/../../../../nios2-elf/lib/libm.a(s_isnan.o)
 .debug_pubnames
                0x0000061e       0x26 /cygdrive/c/altera/91/nios2eds/bin/nios2-gnutools/H-i686-pc-cygwin/bin/../lib/gcc/nios2-elf/3.4.6/../../../../nios2-elf/lib/libm.a(s_lib_ver.o)
 .debug_pubnames
                0x00000644       0x1e /cygdrive/c/altera/91/nios2eds/bin/nios2-gnutools/H-i686-pc-cygwin/bin/../lib/gcc/nios2-elf/3.4.6/../../../../nios2-elf/lib/libm.a(s_matherr.o)
 .debug_pubnames
                0x00000662       0x1d /cygdrive/c/altera/91/nios2eds/bin/nios2-gnutools/H-i686-pc-cygwin/bin/../lib/gcc/nios2-elf/3.4.6/../../../../nios2-elf/lib/libm.a(s_scalbn.o)
 .debug_pubnames
                0x0000067f       0x1f /cygdrive/c/altera/91/nios2eds/bin/nios2-gnutools/H-i686-pc-cygwin/bin/../lib/gcc/nios2-elf/3.4.6/../../../../nios2-elf/lib/libm.a(s_copysign.o)
 .debug_pubnames
                0x0000069e       0x23 /cygdrive/c/altera/91/nios2eds/bin/nios2-gnutools/H-i686-pc-cygwin/bin/../lib/gcc/nios2-elf/3.4.6/libgcc.a(_fixunssfsi.o)
 .debug_pubnames
                0x000006c1       0x2c /cygdrive/c/altera/91/nios2eds/bin/nios2-gnutools/H-i686-pc-cygwin/bin/../lib/gcc/nios2-elf/3.4.6/libgcc.a(_addsub_sf.o)
 .debug_pubnames
                0x000006ed       0x1f /cygdrive/c/altera/91/nios2eds/bin/nios2-gnutools/H-i686-pc-cygwin/bin/../lib/gcc/nios2-elf/3.4.6/libgcc.a(_mul_sf.o)
 .debug_pubnames
                0x0000070c       0x1f /cygdrive/c/altera/91/nios2eds/bin/nios2-gnutools/H-i686-pc-cygwin/bin/../lib/gcc/nios2-elf/3.4.6/libgcc.a(_div_sf.o)
 .debug_pubnames
                0x0000072b       0x1e /cygdrive/c/altera/91/nios2eds/bin/nios2-gnutools/H-i686-pc-cygwin/bin/../lib/gcc/nios2-elf/3.4.6/libgcc.a(_eq_sf.o)
 .debug_pubnames
                0x00000749       0x1e /cygdrive/c/altera/91/nios2eds/bin/nios2-gnutools/H-i686-pc-cygwin/bin/../lib/gcc/nios2-elf/3.4.6/libgcc.a(_ne_sf.o)
 .debug_pubnames
                0x00000767       0x1e /cygdrive/c/altera/91/nios2eds/bin/nios2-gnutools/H-i686-pc-cygwin/bin/../lib/gcc/nios2-elf/3.4.6/libgcc.a(_gt_sf.o)
 .debug_pubnames
                0x00000785       0x1e /cygdrive/c/altera/91/nios2eds/bin/nios2-gnutools/H-i686-pc-cygwin/bin/../lib/gcc/nios2-elf/3.4.6/libgcc.a(_ge_sf.o)
 .debug_pubnames
                0x000007a3       0x1e /cygdrive/c/altera/91/nios2eds/bin/nios2-gnutools/H-i686-pc-cygwin/bin/../lib/gcc/nios2-elf/3.4.6/libgcc.a(_lt_sf.o)
 .debug_pubnames
                0x000007c1       0x1e /cygdrive/c/altera/91/nios2eds/bin/nios2-gnutools/H-i686-pc-cygwin/bin/../lib/gcc/nios2-elf/3.4.6/libgcc.a(_le_sf.o)
 .debug_pubnames
                0x000007df       0x22 /cygdrive/c/altera/91/nios2eds/bin/nios2-gnutools/H-i686-pc-cygwin/bin/../lib/gcc/nios2-elf/3.4.6/libgcc.a(_si_to_sf.o)
 .debug_pubnames
                0x00000801       0x20 /cygdrive/c/altera/91/nios2eds/bin/nios2-gnutools/H-i686-pc-cygwin/bin/../lib/gcc/nios2-elf/3.4.6/libgcc.a(_sf_to_si.o)
 .debug_pubnames
                0x00000821       0x24 /cygdrive/c/altera/91/nios2eds/bin/nios2-gnutools/H-i686-pc-cygwin/bin/../lib/gcc/nios2-elf/3.4.6/libgcc.a(_sf_to_df.o)
 .debug_pubnames
                0x00000845       0x22 /cygdrive/c/altera/91/nios2eds/bin/nios2-gnutools/H-i686-pc-cygwin/bin/../lib/gcc/nios2-elf/3.4.6/libgcc.a(_thenan_sf.o)
 .debug_pubnames
                0x00000867       0x2c /cygdrive/c/altera/91/nios2eds/bin/nios2-gnutools/H-i686-pc-cygwin/bin/../lib/gcc/nios2-elf/3.4.6/libgcc.a(_addsub_df.o)
 .debug_pubnames
                0x00000893       0x1f /cygdrive/c/altera/91/nios2eds/bin/nios2-gnutools/H-i686-pc-cygwin/bin/../lib/gcc/nios2-elf/3.4.6/libgcc.a(_mul_df.o)
 .debug_pubnames
                0x000008b2       0x1f /cygdrive/c/altera/91/nios2eds/bin/nios2-gnutools/H-i686-pc-cygwin/bin/../lib/gcc/nios2-elf/3.4.6/libgcc.a(_div_df.o)
 .debug_pubnames
                0x000008d1       0x1e /cygdrive/c/altera/91/nios2eds/bin/nios2-gnutools/H-i686-pc-cygwin/bin/../lib/gcc/nios2-elf/3.4.6/libgcc.a(_eq_df.o)
 .debug_pubnames
                0x000008ef       0x1e /cygdrive/c/altera/91/nios2eds/bin/nios2-gnutools/H-i686-pc-cygwin/bin/../lib/gcc/nios2-elf/3.4.6/libgcc.a(_ne_df.o)
 .debug_pubnames
                0x0000090d       0x1e /cygdrive/c/altera/91/nios2eds/bin/nios2-gnutools/H-i686-pc-cygwin/bin/../lib/gcc/nios2-elf/3.4.6/libgcc.a(_gt_df.o)
 .debug_pubnames
                0x0000092b       0x1e /cygdrive/c/altera/91/nios2eds/bin/nios2-gnutools/H-i686-pc-cygwin/bin/../lib/gcc/nios2-elf/3.4.6/libgcc.a(_ge_df.o)
 .debug_pubnames
                0x00000949       0x1e /cygdrive/c/altera/91/nios2eds/bin/nios2-gnutools/H-i686-pc-cygwin/bin/../lib/gcc/nios2-elf/3.4.6/libgcc.a(_lt_df.o)
 .debug_pubnames
                0x00000967       0x22 /cygdrive/c/altera/91/nios2eds/bin/nios2-gnutools/H-i686-pc-cygwin/bin/../lib/gcc/nios2-elf/3.4.6/libgcc.a(_si_to_df.o)
 .debug_pubnames
                0x00000989       0x20 /cygdrive/c/altera/91/nios2eds/bin/nios2-gnutools/H-i686-pc-cygwin/bin/../lib/gcc/nios2-elf/3.4.6/libgcc.a(_df_to_si.o)
 .debug_pubnames
                0x000009a9       0x20 /cygdrive/c/altera/91/nios2eds/bin/nios2-gnutools/H-i686-pc-cygwin/bin/../lib/gcc/nios2-elf/3.4.6/libgcc.a(_make_df.o)
 .debug_pubnames
                0x000009c9       0x23 /cygdrive/c/altera/91/nios2eds/bin/nios2-gnutools/H-i686-pc-cygwin/bin/../lib/gcc/nios2-elf/3.4.6/libgcc.a(_df_to_sf.o)
 .debug_pubnames
                0x000009ec       0x22 /cygdrive/c/altera/91/nios2eds/bin/nios2-gnutools/H-i686-pc-cygwin/bin/../lib/gcc/nios2-elf/3.4.6/libgcc.a(_thenan_df.o)
 .debug_pubnames
                0x00000a0e       0x48 /cygdrive/c/altera/91/nios2eds/bin/nios2-gnutools/H-i686-pc-cygwin/bin/../lib/gcc/nios2-elf/3.4.6/libgcc.a(lib2-divmod.o)
 .debug_pubnames
                0x00000a56       0x1f /cygdrive/c/altera/91/nios2eds/bin/nios2-gnutools/H-i686-pc-cygwin/bin/../lib/gcc/nios2-elf/3.4.6/libgcc.a(_muldi3.o)
 .debug_pubnames
                0x00000a75       0x1f /cygdrive/c/altera/91/nios2eds/bin/nios2-gnutools/H-i686-pc-cygwin/bin/../lib/gcc/nios2-elf/3.4.6/libgcc.a(_negdi2.o)
 .debug_pubnames
                0x00000a94       0x20 /cygdrive/c/altera/91/nios2eds/bin/nios2-gnutools/H-i686-pc-cygwin/bin/../lib/gcc/nios2-elf/3.4.6/libgcc.a(_lshrdi3.o)
 .debug_pubnames
                0x00000ab4       0x1f /cygdrive/c/altera/91/nios2eds/bin/nios2-gnutools/H-i686-pc-cygwin/bin/../lib/gcc/nios2-elf/3.4.6/libgcc.a(_pack_sf.o)
 .debug_pubnames
                0x00000ad3       0x21 /cygdrive/c/altera/91/nios2eds/bin/nios2-gnutools/H-i686-pc-cygwin/bin/../lib/gcc/nios2-elf/3.4.6/libgcc.a(_unpack_sf.o)
 .debug_pubnames
                0x00000af4       0x26 /cygdrive/c/altera/91/nios2eds/bin/nios2-gnutools/H-i686-pc-cygwin/bin/../lib/gcc/nios2-elf/3.4.6/libgcc.a(_fpcmp_parts_sf.o)
 .debug_pubnames
                0x00000b1a       0x20 /cygdrive/c/altera/91/nios2eds/bin/nios2-gnutools/H-i686-pc-cygwin/bin/../lib/gcc/nios2-elf/3.4.6/libgcc.a(_make_sf.o)
 .debug_pubnames
                0x00000b3a       0x1f /cygdrive/c/altera/91/nios2eds/bin/nios2-gnutools/H-i686-pc-cygwin/bin/../lib/gcc/nios2-elf/3.4.6/libgcc.a(_pack_df.o)
 .debug_pubnames
                0x00000b59       0x21 /cygdrive/c/altera/91/nios2eds/bin/nios2-gnutools/H-i686-pc-cygwin/bin/../lib/gcc/nios2-elf/3.4.6/libgcc.a(_unpack_df.o)
 .debug_pubnames
                0x00000b7a       0x26 /cygdrive/c/altera/91/nios2eds/bin/nios2-gnutools/H-i686-pc-cygwin/bin/../lib/gcc/nios2-elf/3.4.6/libgcc.a(_fpcmp_parts_df.o)
 .debug_pubnames
                0x00000ba0       0x20 /cygdrive/c/altera/91/nios2eds/bin/nios2-gnutools/H-i686-pc-cygwin/bin/../lib/gcc/nios2-elf/3.4.6/libgcc.a(_ashldi3.o)
 .debug_pubnames
                0x00000bc0       0x1d /cygdrive/c/altera/91/nios2eds/bin/nios2-gnutools/H-i686-pc-cygwin/bin/../lib/gcc/nios2-elf/3.4.6/../../../../nios2-elf/lib/libc.a(calloc.o)
 .debug_pubnames
                0x00000bdd       0x20 /cygdrive/c/altera/91/nios2eds/bin/nios2-gnutools/H-i686-pc-cygwin/bin/../lib/gcc/nios2-elf/3.4.6/../../../../nios2-elf/lib/libc.a(callocr.o)
 .debug_pubnames
                0x00000bfd       0x1e /cygdrive/c/altera/91/nios2eds/bin/nios2-gnutools/H-i686-pc-cygwin/bin/../lib/gcc/nios2-elf/3.4.6/../../../../nios2-elf/lib/libc.a(errno.o)
 .debug_pubnames
                0x00000c1b       0x29 /cygdrive/c/altera/91/nios2eds/bin/nios2-gnutools/H-i686-pc-cygwin/bin/../lib/gcc/nios2-elf/3.4.6/../../../../nios2-elf/lib/libc.a(fopen.o)
 .debug_pubnames
                0x00000c44       0x1e /cygdrive/c/altera/91/nios2eds/bin/nios2-gnutools/H-i686-pc-cygwin/bin/../lib/gcc/nios2-elf/3.4.6/../../../../nios2-elf/lib/libc.a(fprintf.o)
 .debug_pubnames
                0x00000c62       0x29 /cygdrive/c/altera/91/nios2eds/bin/nios2-gnutools/H-i686-pc-cygwin/bin/../lib/gcc/nios2-elf/3.4.6/../../../../nios2-elf/lib/libc.a(fseek.o)
 .debug_pubnames
                0x00000c8b       0x1f /cygdrive/c/altera/91/nios2eds/bin/nios2-gnutools/H-i686-pc-cygwin/bin/../lib/gcc/nios2-elf/3.4.6/../../../../nios2-elf/lib/libc.a(fstatr.o)
 .debug_pubnames
                0x00000caa       0x22 /cygdrive/c/altera/91/nios2eds/bin/nios2-gnutools/H-i686-pc-cygwin/bin/../lib/gcc/nios2-elf/3.4.6/../../../../nios2-elf/lib/libc.a(impure.o)
 .debug_pubnames
                0x00000ccc       0x1c /cygdrive/c/altera/91/nios2eds/bin/nios2-gnutools/H-i686-pc-cygwin/bin/../lib/gcc/nios2-elf/3.4.6/../../../../nios2-elf/lib/libc.a(int_errno.o)
 .debug_pubnames
                0x00000ce8       0x21 /cygdrive/c/altera/91/nios2eds/bin/nios2-gnutools/H-i686-pc-cygwin/bin/../lib/gcc/nios2-elf/3.4.6/../../../../nios2-elf/lib/libc.a(makebuf.o)
 .debug_pubnames
                0x00000d09       0x26 /cygdrive/c/altera/91/nios2eds/bin/nios2-gnutools/H-i686-pc-cygwin/bin/../lib/gcc/nios2-elf/3.4.6/../../../../nios2-elf/lib/libc.a(malloc.o)
 .debug_pubnames
                0x00000d2f       0xce /cygdrive/c/altera/91/nios2eds/bin/nios2-gnutools/H-i686-pc-cygwin/bin/../lib/gcc/nios2-elf/3.4.6/../../../../nios2-elf/lib/libc.a(mallocr.o)
 .debug_pubnames
                0x00000dfd       0x1d /cygdrive/c/altera/91/nios2eds/bin/nios2-gnutools/H-i686-pc-cygwin/bin/../lib/gcc/nios2-elf/3.4.6/../../../../nios2-elf/lib/libc.a(memcpy.o)
 .debug_pubnames
                0x00000e1a       0x1d /cygdrive/c/altera/91/nios2eds/bin/nios2-gnutools/H-i686-pc-cygwin/bin/../lib/gcc/nios2-elf/3.4.6/../../../../nios2-elf/lib/libc.a(memset.o)
 .debug_pubnames
                0x00000e37       0x1e /cygdrive/c/altera/91/nios2eds/bin/nios2-gnutools/H-i686-pc-cygwin/bin/../lib/gcc/nios2-elf/3.4.6/../../../../nios2-elf/lib/libc.a(openr.o)
 .debug_pubnames
                0x00000e55       0x25 /cygdrive/c/altera/91/nios2eds/bin/nios2-gnutools/H-i686-pc-cygwin/bin/../lib/gcc/nios2-elf/3.4.6/../../../../nios2-elf/lib/libc.a(rand.o)
 .debug_pubnames
                0x00000e7a       0x20 /cygdrive/c/altera/91/nios2eds/bin/nios2-gnutools/H-i686-pc-cygwin/bin/../lib/gcc/nios2-elf/3.4.6/../../../../nios2-elf/lib/libc.a(refill.o)
 .debug_pubnames
                0x00000e9a       0x1e /cygdrive/c/altera/91/nios2eds/bin/nios2-gnutools/H-i686-pc-cygwin/bin/../lib/gcc/nios2-elf/3.4.6/../../../../nios2-elf/lib/libc.a(sbrkr.o)
 .debug_pubnames
                0x00000eb8       0x2d /cygdrive/c/altera/91/nios2eds/bin/nios2-gnutools/H-i686-pc-cygwin/bin/../lib/gcc/nios2-elf/3.4.6/../../../../nios2-elf/lib/libc.a(sprintf.o)
 .debug_pubnames
                0x00000ee5       0x44 /cygdrive/c/altera/91/nios2eds/bin/nios2-gnutools/H-i686-pc-cygwin/bin/../lib/gcc/nios2-elf/3.4.6/../../../../nios2-elf/lib/libc.a(stdio.o)
 .debug_pubnames
                0x00000f29       0x1d /cygdrive/c/altera/91/nios2eds/bin/nios2-gnutools/H-i686-pc-cygwin/bin/../lib/gcc/nios2-elf/3.4.6/../../../../nios2-elf/lib/libc.a(strlen.o)
 .debug_pubnames
                0x00000f46       0x45 /cygdrive/c/altera/91/nios2eds/bin/nios2-gnutools/H-i686-pc-cygwin/bin/../lib/gcc/nios2-elf/3.4.6/../../../../nios2-elf/lib/libc.a(vfprintf1.o)
 .debug_pubnames
                0x00000f8b       0x2d /cygdrive/c/altera/91/nios2eds/bin/nios2-gnutools/H-i686-pc-cygwin/bin/../lib/gcc/nios2-elf/3.4.6/../../../../nios2-elf/lib/libc.a(wcrtomb.o)
 .debug_pubnames
                0x00000fb8       0x31 /cygdrive/c/altera/91/nios2eds/bin/nios2-gnutools/H-i686-pc-cygwin/bin/../lib/gcc/nios2-elf/3.4.6/../../../../nios2-elf/lib/libc.a(wcsrtombs.o)
 .debug_pubnames
                0x00000fe9       0x20 /cygdrive/c/altera/91/nios2eds/bin/nios2-gnutools/H-i686-pc-cygwin/bin/../lib/gcc/nios2-elf/3.4.6/../../../../nios2-elf/lib/libc.a(wctomb_r.o)
 .debug_pubnames
                0x00001009       0x1f /cygdrive/c/altera/91/nios2eds/bin/nios2-gnutools/H-i686-pc-cygwin/bin/../lib/gcc/nios2-elf/3.4.6/../../../../nios2-elf/lib/libc.a(writer.o)
 .debug_pubnames
                0x00001028       0x20 /cygdrive/c/altera/91/nios2eds/bin/nios2-gnutools/H-i686-pc-cygwin/bin/../lib/gcc/nios2-elf/3.4.6/../../../../nios2-elf/lib/libc.a(wsetup.o)
 .debug_pubnames
                0x00001048       0x1f /cygdrive/c/altera/91/nios2eds/bin/nios2-gnutools/H-i686-pc-cygwin/bin/../lib/gcc/nios2-elf/3.4.6/../../../../nios2-elf/lib/libc.a(closer.o)
 .debug_pubnames
                0x00001067       0x1e /cygdrive/c/altera/91/nios2eds/bin/nios2-gnutools/H-i686-pc-cygwin/bin/../lib/gcc/nios2-elf/3.4.6/../../../../nios2-elf/lib/libc.a(dtoa.o)
 .debug_pubnames
                0x00001085       0x1d /cygdrive/c/altera/91/nios2eds/bin/nios2-gnutools/H-i686-pc-cygwin/bin/../lib/gcc/nios2-elf/3.4.6/../../../../nios2-elf/lib/libc.a(fflush.o)
 .debug_pubnames
                0x000010a2       0x3a /cygdrive/c/altera/91/nios2eds/bin/nios2-gnutools/H-i686-pc-cygwin/bin/../lib/gcc/nios2-elf/3.4.6/../../../../nios2-elf/lib/libc.a(findfp.o)
 .debug_pubnames
                0x000010dc       0x2d /cygdrive/c/altera/91/nios2eds/bin/nios2-gnutools/H-i686-pc-cygwin/bin/../lib/gcc/nios2-elf/3.4.6/../../../../nios2-elf/lib/libc.a(findfp1.o)
 .debug_pubnames
                0x00001109       0x1f /cygdrive/c/altera/91/nios2eds/bin/nios2-gnutools/H-i686-pc-cygwin/bin/../lib/gcc/nios2-elf/3.4.6/../../../../nios2-elf/lib/libc.a(flags.o)
 .debug_pubnames
                0x00001128       0x31 /cygdrive/c/altera/91/nios2eds/bin/nios2-gnutools/H-i686-pc-cygwin/bin/../lib/gcc/nios2-elf/3.4.6/../../../../nios2-elf/lib/libc.a(freer.o)
 .debug_pubnames
                0x00001159       0x21 /cygdrive/c/altera/91/nios2eds/bin/nios2-gnutools/H-i686-pc-cygwin/bin/../lib/gcc/nios2-elf/3.4.6/../../../../nios2-elf/lib/libc.a(fvwrite.o)
 .debug_pubnames
                0x0000117a       0x1d /cygdrive/c/altera/91/nios2eds/bin/nios2-gnutools/H-i686-pc-cygwin/bin/../lib/gcc/nios2-elf/3.4.6/../../../../nios2-elf/lib/libc.a(fwalk.o)
 .debug_pubnames
                0x00001197       0xc3 /cygdrive/c/altera/91/nios2eds/bin/nios2-gnutools/H-i686-pc-cygwin/bin/../lib/gcc/nios2-elf/3.4.6/../../../../nios2-elf/lib/libc.a(locale.o)
 .debug_pubnames
                0x0000125a       0x1f /cygdrive/c/altera/91/nios2eds/bin/nios2-gnutools/H-i686-pc-cygwin/bin/../lib/gcc/nios2-elf/3.4.6/../../../../nios2-elf/lib/libc.a(lseekr.o)
 .debug_pubnames
                0x00001279       0x1d /cygdrive/c/altera/91/nios2eds/bin/nios2-gnutools/H-i686-pc-cygwin/bin/../lib/gcc/nios2-elf/3.4.6/../../../../nios2-elf/lib/libc.a(memchr.o)
 .debug_pubnames
                0x00001296       0x1e /cygdrive/c/altera/91/nios2eds/bin/nios2-gnutools/H-i686-pc-cygwin/bin/../lib/gcc/nios2-elf/3.4.6/../../../../nios2-elf/lib/libc.a(memmove.o)
 .debug_pubnames
                0x000012b4      0x112 /cygdrive/c/altera/91/nios2eds/bin/nios2-gnutools/H-i686-pc-cygwin/bin/../lib/gcc/nios2-elf/3.4.6/../../../../nios2-elf/lib/libc.a(mprec.o)
 .debug_pubnames
                0x000013c6       0x1e /cygdrive/c/altera/91/nios2eds/bin/nios2-gnutools/H-i686-pc-cygwin/bin/../lib/gcc/nios2-elf/3.4.6/../../../../nios2-elf/lib/libc.a(readr.o)
 .debug_pubnames
                0x000013e4       0x21 /cygdrive/c/altera/91/nios2eds/bin/nios2-gnutools/H-i686-pc-cygwin/bin/../lib/gcc/nios2-elf/3.4.6/../../../../nios2-elf/lib/libc.a(reallocr.o)
 .debug_pubnames
                0x00001405       0x1c /cygdrive/c/altera/91/nios2eds/bin/nios2-gnutools/H-i686-pc-cygwin/bin/../lib/gcc/nios2-elf/3.4.6/../../../../nios2-elf/lib/libc.a(s_isinf.o)
 .debug_pubnames
                0x00001421       0x1d /cygdrive/c/altera/91/nios2eds/bin/nios2-gnutools/H-i686-pc-cygwin/bin/../lib/gcc/nios2-elf/3.4.6/../../../../nios2-elf/lib/libc.a(strcmp.o)
 .debug_pubnames
                0x0000143e       0x20 /cygdrive/c/altera/91/nios2eds/bin/nios2-gnutools/H-i686-pc-cygwin/bin/../lib/gcc/nios2-elf/3.4.6/libgcc.a(_udivdi3.o)
 .debug_pubnames
                0x0000145e       0x20 /cygdrive/c/altera/91/nios2eds/bin/nios2-gnutools/H-i686-pc-cygwin/bin/../lib/gcc/nios2-elf/3.4.6/libgcc.a(_umoddi3.o)
 .debug_pubnames
                0x0000147e       0x20 /cygdrive/c/altera/91/nios2eds/bin/nios2-gnutools/H-i686-pc-cygwin/bin/../lib/gcc/nios2-elf/3.4.6/libgcc.a(_clz.o)
 .debug_pubnames
                0x0000149e       0x1c ../controller_sw_bsp/libhal_bsp.a(alt_close.o)
 .debug_pubnames
                0x000014ba       0x63 ../controller_sw_bsp/libhal_bsp.a(alt_dev.o)
 .debug_pubnames
                0x0000151d       0x20 ../controller_sw_bsp/libhal_bsp.a(alt_errno.o)
 .debug_pubnames
                0x0000153d       0x1c ../controller_sw_bsp/libhal_bsp.a(alt_fstat.o)
 .debug_pubnames
                0x00001559       0x27 ../controller_sw_bsp/libhal_bsp.a(alt_irq_register.o)
 .debug_pubnames
                0x00001580       0x3b ../controller_sw_bsp/libhal_bsp.a(alt_irq_vars.o)
 .debug_pubnames
                0x000015bb       0x1d ../controller_sw_bsp/libhal_bsp.a(alt_isatty.o)
 .debug_pubnames
                0x000015d8       0x1c ../controller_sw_bsp/libhal_bsp.a(alt_lseek.o)
 .debug_pubnames
                0x000015f4       0x46 ../controller_sw_bsp/libhal_bsp.a(alt_main.o)
 .debug_pubnames
                0x0000163a       0x38 ../controller_sw_bsp/libhal_bsp.a(alt_malloc_lock.o)
 .debug_pubnames
                0x00001672       0x1b ../controller_sw_bsp/libhal_bsp.a(alt_open.o)
 .debug_pubnames
                0x0000168d       0x21 ../controller_sw_bsp/libhal_bsp.a(alt_printf.o)
 .debug_pubnames
                0x000016ae       0x22 ../controller_sw_bsp/libhal_bsp.a(alt_putchar.o)
 .debug_pubnames
                0x000016d0       0x1b ../controller_sw_bsp/libhal_bsp.a(alt_read.o)
 .debug_pubnames
                0x000016eb       0x25 ../controller_sw_bsp/libhal_bsp.a(alt_release_fd.o)
 .debug_pubnames
                0x00001710       0x1b ../controller_sw_bsp/libhal_bsp.a(alt_sbrk.o)
 .debug_pubnames
                0x0000172b       0x1d ../controller_sw_bsp/libhal_bsp.a(alt_usleep.o)
 .debug_pubnames
                0x00001748       0x1c ../controller_sw_bsp/libhal_bsp.a(alt_write.o)
 .debug_pubnames
                0x00001764       0x34 ../controller_sw_bsp/libhal_bsp.a(alt_sys_init.o)
 .debug_pubnames
                0x00001798       0xa5 ../controller_sw_bsp/libhal_bsp.a(altera_avalon_jtag_uart_fd.o)
 .debug_pubnames
                0x0000183d       0x55 ../controller_sw_bsp/libhal_bsp.a(altera_avalon_jtag_uart_init.o)
 .debug_pubnames
                0x00001892       0x34 ../controller_sw_bsp/libhal_bsp.a(altera_avalon_jtag_uart_ioctl.o)
 .debug_pubnames
                0x000018c6       0x33 ../controller_sw_bsp/libhal_bsp.a(altera_avalon_jtag_uart_read.o)
 .debug_pubnames
                0x000018f9       0x34 ../controller_sw_bsp/libhal_bsp.a(altera_avalon_jtag_uart_write.o)
 .debug_pubnames
                0x0000192d       0x55 ../controller_sw_bsp/libhal_bsp.a(altera_avalon_lcd_16207.o)
 .debug_pubnames
                0x00001982       0x37 ../controller_sw_bsp/libhal_bsp.a(altera_avalon_lcd_16207_fd.o)
 .debug_pubnames
                0x000019b9       0x2f ../controller_sw_bsp/libhal_bsp.a(altera_avalon_timer_sc.o)
 .debug_pubnames
                0x000019e8      0x1c5 ../controller_sw_bsp/libhal_bsp.a(altera_up_avalon_pixel_buffer.o)
 .debug_pubnames
                0x00001bad       0x26 ../controller_sw_bsp/libhal_bsp.a(alt_alarm_start.o)
 .debug_pubnames
                0x00001bd3       0x25 ../controller_sw_bsp/libhal_bsp.a(alt_busy_sleep.o)
 .debug_pubnames
                0x00001bf8       0x2b ../controller_sw_bsp/libhal_bsp.a(alt_dev_llist_insert.o)
 .debug_pubnames
                0x00001c23       0x20 ../controller_sw_bsp/libhal_bsp.a(alt_do_ctors.o)
 .debug_pubnames
                0x00001c43       0x20 ../controller_sw_bsp/libhal_bsp.a(alt_do_dtors.o)
 .debug_pubnames
                0x00001c63       0x23 ../controller_sw_bsp/libhal_bsp.a(alt_find_dev.o)
 .debug_pubnames
                0x00001c86       0x24 ../controller_sw_bsp/libhal_bsp.a(alt_find_file.o)
 .debug_pubnames
                0x00001caa       0x21 ../controller_sw_bsp/libhal_bsp.a(alt_get_fd.o)
 .debug_pubnames
                0x00001ccb       0x26 ../controller_sw_bsp/libhal_bsp.a(alt_io_redirect.o)
 .debug_pubnames
                0x00001cf1       0x32 ../controller_sw_bsp/libhal_bsp.a(alt_irq_handler.o)
 .debug_pubnames
                0x00001d23       0x68 ../controller_sw_bsp/libhal_bsp.a(alt_tick.o)
 .debug_pubnames
                0x00001d8b       0x2c ../controller_sw_bsp/libhal_bsp.a(altera_nios2_irq.o)
 .debug_pubnames
                0x00001db7       0x2a /cygdrive/c/altera/91/nios2eds/bin/nios2-gnutools/H-i686-pc-cygwin/bin/../lib/gcc/nios2-elf/3.4.6/../../../../nios2-elf/lib/libc.a(atexit.o)
 .debug_pubnames
                0x00001de1       0x2e /cygdrive/c/altera/91/nios2eds/bin/nios2-gnutools/H-i686-pc-cygwin/bin/../lib/gcc/nios2-elf/3.4.6/../../../../nios2-elf/lib/libc.a(ctype_.o)
 .debug_pubnames
                0x00001e0f       0x1b /cygdrive/c/altera/91/nios2eds/bin/nios2-gnutools/H-i686-pc-cygwin/bin/../lib/gcc/nios2-elf/3.4.6/../../../../nios2-elf/lib/libc.a(exit.o)
 .debug_pubnames
                0x00001e2a       0x1d /cygdrive/c/altera/91/nios2eds/bin/nios2-gnutools/H-i686-pc-cygwin/bin/../lib/gcc/nios2-elf/3.4.6/../../../../nios2-elf/lib/libc.a(memcmp.o)
 .debug_pubnames
                0x00001e47       0x1b /cygdrive/c/altera/91/nios2eds/bin/nios2-gnutools/H-i686-pc-cygwin/bin/../lib/gcc/nios2-elf/3.4.6/../../../../nios2-elf/lib/libc.a(putc.o)
 .debug_pubnames
                0x00001e62       0x1e /cygdrive/c/altera/91/nios2eds/bin/nios2-gnutools/H-i686-pc-cygwin/bin/../lib/gcc/nios2-elf/3.4.6/../../../../nios2-elf/lib/libc.a(wbuf.o)
 .debug_pubnames
                0x00001e80       0x1c ../controller_sw_bsp/libhal_bsp.a(alt_exit.o)

.debug_info     0x00000000    0x36da0
 *(.debug_info .gnu.linkonce.wi.*)
 .debug_info    0x00000000       0xd8 ../controller_sw_bsp/obj/HAL/src/crt0.o
 .debug_info    0x000000d8      0xd80 obj/collision_detection.o
 .debug_info    0x00000e58     0x12f4 obj/draw.o
 .debug_info    0x0000214c      0xa06 obj/ethernet_isr.o
 .debug_info    0x00002b52      0xd34 obj/game_loop.o
 .debug_info    0x00003886     0x1802 obj/main.o
 .debug_info    0x00005088      0xb73 obj/ship.o
 .debug_info    0x00005bfb      0x1e8 obj/util.o
 .debug_info    0x00005de3       0xf1 /cygdrive/c/altera/91/nios2eds/bin/nios2-gnutools/H-i686-pc-cygwin/bin/../lib/gcc/nios2-elf/3.4.6/../../../../nios2-elf/lib/libm.a(s_cos.o)
 .debug_info    0x00005ed4       0xf1 /cygdrive/c/altera/91/nios2eds/bin/nios2-gnutools/H-i686-pc-cygwin/bin/../lib/gcc/nios2-elf/3.4.6/../../../../nios2-elf/lib/libm.a(s_sin.o)
 .debug_info    0x00005fc5      0x128 /cygdrive/c/altera/91/nios2eds/bin/nios2-gnutools/H-i686-pc-cygwin/bin/../lib/gcc/nios2-elf/3.4.6/../../../../nios2-elf/lib/libm.a(sf_round.o)
 .debug_info    0x000060ed      0x16e /cygdrive/c/altera/91/nios2eds/bin/nios2-gnutools/H-i686-pc-cygwin/bin/../lib/gcc/nios2-elf/3.4.6/../../../../nios2-elf/lib/libm.a(w_sqrt.o)
 .debug_info    0x0000625b      0x371 /cygdrive/c/altera/91/nios2eds/bin/nios2-gnutools/H-i686-pc-cygwin/bin/../lib/gcc/nios2-elf/3.4.6/../../../../nios2-elf/lib/libm.a(e_rem_pio2.o)
 .debug_info    0x000065cc      0x21c /cygdrive/c/altera/91/nios2eds/bin/nios2-gnutools/H-i686-pc-cygwin/bin/../lib/gcc/nios2-elf/3.4.6/../../../../nios2-elf/lib/libm.a(e_sqrt.o)
 .debug_info    0x000067e8      0x21e /cygdrive/c/altera/91/nios2eds/bin/nios2-gnutools/H-i686-pc-cygwin/bin/../lib/gcc/nios2-elf/3.4.6/../../../../nios2-elf/lib/libm.a(k_cos.o)
 .debug_info    0x00006a06      0x2cb /cygdrive/c/altera/91/nios2eds/bin/nios2-gnutools/H-i686-pc-cygwin/bin/../lib/gcc/nios2-elf/3.4.6/../../../../nios2-elf/lib/libm.a(k_rem_pio2.o)
 .debug_info    0x00006cd1      0x18b /cygdrive/c/altera/91/nios2eds/bin/nios2-gnutools/H-i686-pc-cygwin/bin/../lib/gcc/nios2-elf/3.4.6/../../../../nios2-elf/lib/libm.a(k_sin.o)
 .debug_info    0x00006e5c      0x12f /cygdrive/c/altera/91/nios2eds/bin/nios2-gnutools/H-i686-pc-cygwin/bin/../lib/gcc/nios2-elf/3.4.6/../../../../nios2-elf/lib/libm.a(s_fabs.o)
 .debug_info    0x00006f8b      0x180 /cygdrive/c/altera/91/nios2eds/bin/nios2-gnutools/H-i686-pc-cygwin/bin/../lib/gcc/nios2-elf/3.4.6/../../../../nios2-elf/lib/libm.a(s_floor.o)
 .debug_info    0x0000710b       0xc6 /cygdrive/c/altera/91/nios2eds/bin/nios2-gnutools/H-i686-pc-cygwin/bin/../lib/gcc/nios2-elf/3.4.6/../../../../nios2-elf/lib/libm.a(s_isnan.o)
 .debug_info    0x000071d1       0xba /cygdrive/c/altera/91/nios2eds/bin/nios2-gnutools/H-i686-pc-cygwin/bin/../lib/gcc/nios2-elf/3.4.6/../../../../nios2-elf/lib/libm.a(s_lib_ver.o)
 .debug_info    0x0000728b      0x121 /cygdrive/c/altera/91/nios2eds/bin/nios2-gnutools/H-i686-pc-cygwin/bin/../lib/gcc/nios2-elf/3.4.6/../../../../nios2-elf/lib/libm.a(s_matherr.o)
 .debug_info    0x000073ac      0x210 /cygdrive/c/altera/91/nios2eds/bin/nios2-gnutools/H-i686-pc-cygwin/bin/../lib/gcc/nios2-elf/3.4.6/../../../../nios2-elf/lib/libm.a(s_scalbn.o)
 .debug_info    0x000075bc      0x144 /cygdrive/c/altera/91/nios2eds/bin/nios2-gnutools/H-i686-pc-cygwin/bin/../lib/gcc/nios2-elf/3.4.6/../../../../nios2-elf/lib/libm.a(s_copysign.o)
 .debug_info    0x00007700       0xb8 /cygdrive/c/altera/91/nios2eds/bin/nios2-gnutools/H-i686-pc-cygwin/bin/../lib/gcc/nios2-elf/3.4.6/libgcc.a(_fixunssfsi.o)
 .debug_info    0x000077b8      0x41e /cygdrive/c/altera/91/nios2eds/bin/nios2-gnutools/H-i686-pc-cygwin/bin/../lib/gcc/nios2-elf/3.4.6/libgcc.a(_addsub_sf.o)
 .debug_info    0x00007bd6      0x398 /cygdrive/c/altera/91/nios2eds/bin/nios2-gnutools/H-i686-pc-cygwin/bin/../lib/gcc/nios2-elf/3.4.6/libgcc.a(_mul_sf.o)
 .debug_info    0x00007f6e      0x362 /cygdrive/c/altera/91/nios2eds/bin/nios2-gnutools/H-i686-pc-cygwin/bin/../lib/gcc/nios2-elf/3.4.6/libgcc.a(_div_sf.o)
 .debug_info    0x000082d0      0x2b0 /cygdrive/c/altera/91/nios2eds/bin/nios2-gnutools/H-i686-pc-cygwin/bin/../lib/gcc/nios2-elf/3.4.6/libgcc.a(_eq_sf.o)
 .debug_info    0x00008580      0x2b0 /cygdrive/c/altera/91/nios2eds/bin/nios2-gnutools/H-i686-pc-cygwin/bin/../lib/gcc/nios2-elf/3.4.6/libgcc.a(_ne_sf.o)
 .debug_info    0x00008830      0x2b0 /cygdrive/c/altera/91/nios2eds/bin/nios2-gnutools/H-i686-pc-cygwin/bin/../lib/gcc/nios2-elf/3.4.6/libgcc.a(_gt_sf.o)
 .debug_info    0x00008ae0      0x2b0 /cygdrive/c/altera/91/nios2eds/bin/nios2-gnutools/H-i686-pc-cygwin/bin/../lib/gcc/nios2-elf/3.4.6/libgcc.a(_ge_sf.o)
 .debug_info    0x00008d90      0x2b0 /cygdrive/c/altera/91/nios2eds/bin/nios2-gnutools/H-i686-pc-cygwin/bin/../lib/gcc/nios2-elf/3.4.6/libgcc.a(_lt_sf.o)
 .debug_info    0x00009040      0x2b0 /cygdrive/c/altera/91/nios2eds/bin/nios2-gnutools/H-i686-pc-cygwin/bin/../lib/gcc/nios2-elf/3.4.6/libgcc.a(_le_sf.o)
 .debug_info    0x000092f0      0x1b5 /cygdrive/c/altera/91/nios2eds/bin/nios2-gnutools/H-i686-pc-cygwin/bin/../lib/gcc/nios2-elf/3.4.6/libgcc.a(_si_to_sf.o)
 .debug_info    0x000094a5      0x27c /cygdrive/c/altera/91/nios2eds/bin/nios2-gnutools/H-i686-pc-cygwin/bin/../lib/gcc/nios2-elf/3.4.6/libgcc.a(_sf_to_si.o)
 .debug_info    0x00009721      0x23d /cygdrive/c/altera/91/nios2eds/bin/nios2-gnutools/H-i686-pc-cygwin/bin/../lib/gcc/nios2-elf/3.4.6/libgcc.a(_sf_to_df.o)
 .debug_info    0x0000995e      0x160 /cygdrive/c/altera/91/nios2eds/bin/nios2-gnutools/H-i686-pc-cygwin/bin/../lib/gcc/nios2-elf/3.4.6/libgcc.a(_thenan_sf.o)
 .debug_info    0x00009abe      0x44f /cygdrive/c/altera/91/nios2eds/bin/nios2-gnutools/H-i686-pc-cygwin/bin/../lib/gcc/nios2-elf/3.4.6/libgcc.a(_addsub_df.o)
 .debug_info    0x00009f0d      0x47d /cygdrive/c/altera/91/nios2eds/bin/nios2-gnutools/H-i686-pc-cygwin/bin/../lib/gcc/nios2-elf/3.4.6/libgcc.a(_mul_df.o)
 .debug_info    0x0000a38a      0x38c /cygdrive/c/altera/91/nios2eds/bin/nios2-gnutools/H-i686-pc-cygwin/bin/../lib/gcc/nios2-elf/3.4.6/libgcc.a(_div_df.o)
 .debug_info    0x0000a716      0x2c6 /cygdrive/c/altera/91/nios2eds/bin/nios2-gnutools/H-i686-pc-cygwin/bin/../lib/gcc/nios2-elf/3.4.6/libgcc.a(_eq_df.o)
 .debug_info    0x0000a9dc      0x2c6 /cygdrive/c/altera/91/nios2eds/bin/nios2-gnutools/H-i686-pc-cygwin/bin/../lib/gcc/nios2-elf/3.4.6/libgcc.a(_ne_df.o)
 .debug_info    0x0000aca2      0x2c6 /cygdrive/c/altera/91/nios2eds/bin/nios2-gnutools/H-i686-pc-cygwin/bin/../lib/gcc/nios2-elf/3.4.6/libgcc.a(_gt_df.o)
 .debug_info    0x0000af68      0x2c6 /cygdrive/c/altera/91/nios2eds/bin/nios2-gnutools/H-i686-pc-cygwin/bin/../lib/gcc/nios2-elf/3.4.6/libgcc.a(_ge_df.o)
 .debug_info    0x0000b22e      0x2c6 /cygdrive/c/altera/91/nios2eds/bin/nios2-gnutools/H-i686-pc-cygwin/bin/../lib/gcc/nios2-elf/3.4.6/libgcc.a(_lt_df.o)
 .debug_info    0x0000b4f4      0x1b5 /cygdrive/c/altera/91/nios2eds/bin/nios2-gnutools/H-i686-pc-cygwin/bin/../lib/gcc/nios2-elf/3.4.6/libgcc.a(_si_to_df.o)
 .debug_info    0x0000b6a9      0x28d /cygdrive/c/altera/91/nios2eds/bin/nios2-gnutools/H-i686-pc-cygwin/bin/../lib/gcc/nios2-elf/3.4.6/libgcc.a(_df_to_si.o)
 .debug_info    0x0000b936      0x1ce /cygdrive/c/altera/91/nios2eds/bin/nios2-gnutools/H-i686-pc-cygwin/bin/../lib/gcc/nios2-elf/3.4.6/libgcc.a(_make_df.o)
 .debug_info    0x0000bb04      0x25c /cygdrive/c/altera/91/nios2eds/bin/nios2-gnutools/H-i686-pc-cygwin/bin/../lib/gcc/nios2-elf/3.4.6/libgcc.a(_df_to_sf.o)
 .debug_info    0x0000bd60      0x160 /cygdrive/c/altera/91/nios2eds/bin/nios2-gnutools/H-i686-pc-cygwin/bin/../lib/gcc/nios2-elf/3.4.6/libgcc.a(_thenan_df.o)
 .debug_info    0x0000bec0      0x1f2 /cygdrive/c/altera/91/nios2eds/bin/nios2-gnutools/H-i686-pc-cygwin/bin/../lib/gcc/nios2-elf/3.4.6/libgcc.a(lib2-divmod.o)
 .debug_info    0x0000c0b2      0x1fd /cygdrive/c/altera/91/nios2eds/bin/nios2-gnutools/H-i686-pc-cygwin/bin/../lib/gcc/nios2-elf/3.4.6/libgcc.a(_muldi3.o)
 .debug_info    0x0000c2af      0x13c /cygdrive/c/altera/91/nios2eds/bin/nios2-gnutools/H-i686-pc-cygwin/bin/../lib/gcc/nios2-elf/3.4.6/libgcc.a(_negdi2.o)
 .debug_info    0x0000c3eb      0x18d /cygdrive/c/altera/91/nios2eds/bin/nios2-gnutools/H-i686-pc-cygwin/bin/../lib/gcc/nios2-elf/3.4.6/libgcc.a(_lshrdi3.o)
 .debug_info    0x0000c578      0x2a9 /cygdrive/c/altera/91/nios2eds/bin/nios2-gnutools/H-i686-pc-cygwin/bin/../lib/gcc/nios2-elf/3.4.6/libgcc.a(_pack_sf.o)
 .debug_info    0x0000c821      0x256 /cygdrive/c/altera/91/nios2eds/bin/nios2-gnutools/H-i686-pc-cygwin/bin/../lib/gcc/nios2-elf/3.4.6/libgcc.a(_unpack_sf.o)
 .debug_info    0x0000ca77      0x1db /cygdrive/c/altera/91/nios2eds/bin/nios2-gnutools/H-i686-pc-cygwin/bin/../lib/gcc/nios2-elf/3.4.6/libgcc.a(_fpcmp_parts_sf.o)
 .debug_info    0x0000cc52      0x1c9 /cygdrive/c/altera/91/nios2eds/bin/nios2-gnutools/H-i686-pc-cygwin/bin/../lib/gcc/nios2-elf/3.4.6/libgcc.a(_make_sf.o)
 .debug_info    0x0000ce1b      0x2c1 /cygdrive/c/altera/91/nios2eds/bin/nios2-gnutools/H-i686-pc-cygwin/bin/../lib/gcc/nios2-elf/3.4.6/libgcc.a(_pack_df.o)
 .debug_info    0x0000d0dc      0x267 /cygdrive/c/altera/91/nios2eds/bin/nios2-gnutools/H-i686-pc-cygwin/bin/../lib/gcc/nios2-elf/3.4.6/libgcc.a(_unpack_df.o)
 .debug_info    0x0000d343      0x1db /cygdrive/c/altera/91/nios2eds/bin/nios2-gnutools/H-i686-pc-cygwin/bin/../lib/gcc/nios2-elf/3.4.6/libgcc.a(_fpcmp_parts_df.o)
 .debug_info    0x0000d51e      0x18d /cygdrive/c/altera/91/nios2eds/bin/nios2-gnutools/H-i686-pc-cygwin/bin/../lib/gcc/nios2-elf/3.4.6/libgcc.a(_ashldi3.o)
 .debug_info    0x0000d6ab      0x907 /cygdrive/c/altera/91/nios2eds/bin/nios2-gnutools/H-i686-pc-cygwin/bin/../lib/gcc/nios2-elf/3.4.6/../../../../nios2-elf/lib/libc.a(calloc.o)
 .debug_info    0x0000dfb2      0x9ca /cygdrive/c/altera/91/nios2eds/bin/nios2-gnutools/H-i686-pc-cygwin/bin/../lib/gcc/nios2-elf/3.4.6/../../../../nios2-elf/lib/libc.a(callocr.o)
 .debug_info    0x0000e97c      0x8e5 /cygdrive/c/altera/91/nios2eds/bin/nios2-gnutools/H-i686-pc-cygwin/bin/../lib/gcc/nios2-elf/3.4.6/../../../../nios2-elf/lib/libc.a(errno.o)
 .debug_info    0x0000f261      0x993 /cygdrive/c/altera/91/nios2eds/bin/nios2-gnutools/H-i686-pc-cygwin/bin/../lib/gcc/nios2-elf/3.4.6/../../../../nios2-elf/lib/libc.a(fopen.o)
 .debug_info    0x0000fbf4      0x92e /cygdrive/c/altera/91/nios2eds/bin/nios2-gnutools/H-i686-pc-cygwin/bin/../lib/gcc/nios2-elf/3.4.6/../../../../nios2-elf/lib/libc.a(fprintf.o)
 .debug_info    0x00010522      0xb4a /cygdrive/c/altera/91/nios2eds/bin/nios2-gnutools/H-i686-pc-cygwin/bin/../lib/gcc/nios2-elf/3.4.6/../../../../nios2-elf/lib/libc.a(fseek.o)
 .debug_info    0x0001106c      0xa7f /cygdrive/c/altera/91/nios2eds/bin/nios2-gnutools/H-i686-pc-cygwin/bin/../lib/gcc/nios2-elf/3.4.6/../../../../nios2-elf/lib/libc.a(fstatr.o)
 .debug_info    0x00011aeb      0x8dd /cygdrive/c/altera/91/nios2eds/bin/nios2-gnutools/H-i686-pc-cygwin/bin/../lib/gcc/nios2-elf/3.4.6/../../../../nios2-elf/lib/libc.a(impure.o)
 .debug_info    0x000123c8       0x81 /cygdrive/c/altera/91/nios2eds/bin/nios2-gnutools/H-i686-pc-cygwin/bin/../lib/gcc/nios2-elf/3.4.6/../../../../nios2-elf/lib/libc.a(int_errno.o)
 .debug_info    0x00012449      0xa9d /cygdrive/c/altera/91/nios2eds/bin/nios2-gnutools/H-i686-pc-cygwin/bin/../lib/gcc/nios2-elf/3.4.6/../../../../nios2-elf/lib/libc.a(makebuf.o)
 .debug_info    0x00012ee6      0x921 /cygdrive/c/altera/91/nios2eds/bin/nios2-gnutools/H-i686-pc-cygwin/bin/../lib/gcc/nios2-elf/3.4.6/../../../../nios2-elf/lib/libc.a(malloc.o)
 .debug_info    0x00013807      0xc62 /cygdrive/c/altera/91/nios2eds/bin/nios2-gnutools/H-i686-pc-cygwin/bin/../lib/gcc/nios2-elf/3.4.6/../../../../nios2-elf/lib/libc.a(mallocr.o)
 .debug_info    0x00014469       0xf8 /cygdrive/c/altera/91/nios2eds/bin/nios2-gnutools/H-i686-pc-cygwin/bin/../lib/gcc/nios2-elf/3.4.6/../../../../nios2-elf/lib/libc.a(memcpy.o)
 .debug_info    0x00014561       0xfe /cygdrive/c/altera/91/nios2eds/bin/nios2-gnutools/H-i686-pc-cygwin/bin/../lib/gcc/nios2-elf/3.4.6/../../../../nios2-elf/lib/libc.a(memset.o)
 .debug_info    0x0001465f      0x924 /cygdrive/c/altera/91/nios2eds/bin/nios2-gnutools/H-i686-pc-cygwin/bin/../lib/gcc/nios2-elf/3.4.6/../../../../nios2-elf/lib/libc.a(openr.o)
 .debug_info    0x00014f83      0x904 /cygdrive/c/altera/91/nios2eds/bin/nios2-gnutools/H-i686-pc-cygwin/bin/../lib/gcc/nios2-elf/3.4.6/../../../../nios2-elf/lib/libc.a(rand.o)
 .debug_info    0x00015887      0x927 /cygdrive/c/altera/91/nios2eds/bin/nios2-gnutools/H-i686-pc-cygwin/bin/../lib/gcc/nios2-elf/3.4.6/../../../../nios2-elf/lib/libc.a(refill.o)
 .debug_info    0x000161ae      0x929 /cygdrive/c/altera/91/nios2eds/bin/nios2-gnutools/H-i686-pc-cygwin/bin/../lib/gcc/nios2-elf/3.4.6/../../../../nios2-elf/lib/libc.a(sbrkr.o)
 .debug_info    0x00016ad7      0x9b5 /cygdrive/c/altera/91/nios2eds/bin/nios2-gnutools/H-i686-pc-cygwin/bin/../lib/gcc/nios2-elf/3.4.6/../../../../nios2-elf/lib/libc.a(sprintf.o)
 .debug_info    0x0001748c      0xa1d /cygdrive/c/altera/91/nios2eds/bin/nios2-gnutools/H-i686-pc-cygwin/bin/../lib/gcc/nios2-elf/3.4.6/../../../../nios2-elf/lib/libc.a(stdio.o)
 .debug_info    0x00017ea9       0xce /cygdrive/c/altera/91/nios2eds/bin/nios2-gnutools/H-i686-pc-cygwin/bin/../lib/gcc/nios2-elf/3.4.6/../../../../nios2-elf/lib/libc.a(strlen.o)
 .debug_info    0x00017f77     0x10a7 /cygdrive/c/altera/91/nios2eds/bin/nios2-gnutools/H-i686-pc-cygwin/bin/../lib/gcc/nios2-elf/3.4.6/../../../../nios2-elf/lib/libc.a(vfprintf1.o)
 .debug_info    0x0001901e      0x9a6 /cygdrive/c/altera/91/nios2eds/bin/nios2-gnutools/H-i686-pc-cygwin/bin/../lib/gcc/nios2-elf/3.4.6/../../../../nios2-elf/lib/libc.a(wcrtomb.o)
 .debug_info    0x000199c4      0xa2c /cygdrive/c/altera/91/nios2eds/bin/nios2-gnutools/H-i686-pc-cygwin/bin/../lib/gcc/nios2-elf/3.4.6/../../../../nios2-elf/lib/libc.a(wcsrtombs.o)
 .debug_info    0x0001a3f0      0x9b1 /cygdrive/c/altera/91/nios2eds/bin/nios2-gnutools/H-i686-pc-cygwin/bin/../lib/gcc/nios2-elf/3.4.6/../../../../nios2-elf/lib/libc.a(wctomb_r.o)
 .debug_info    0x0001ada1      0x940 /cygdrive/c/altera/91/nios2eds/bin/nios2-gnutools/H-i686-pc-cygwin/bin/../lib/gcc/nios2-elf/3.4.6/../../../../nios2-elf/lib/libc.a(writer.o)
 .debug_info    0x0001b6e1      0x901 /cygdrive/c/altera/91/nios2eds/bin/nios2-gnutools/H-i686-pc-cygwin/bin/../lib/gcc/nios2-elf/3.4.6/../../../../nios2-elf/lib/libc.a(wsetup.o)
 .debug_info    0x0001bfe2      0x909 /cygdrive/c/altera/91/nios2eds/bin/nios2-gnutools/H-i686-pc-cygwin/bin/../lib/gcc/nios2-elf/3.4.6/../../../../nios2-elf/lib/libc.a(closer.o)
 .debug_info    0x0001c8eb      0xcf8 /cygdrive/c/altera/91/nios2eds/bin/nios2-gnutools/H-i686-pc-cygwin/bin/../lib/gcc/nios2-elf/3.4.6/../../../../nios2-elf/lib/libc.a(dtoa.o)
 .debug_info    0x0001d5e3      0x922 /cygdrive/c/altera/91/nios2eds/bin/nios2-gnutools/H-i686-pc-cygwin/bin/../lib/gcc/nios2-elf/3.4.6/../../../../nios2-elf/lib/libc.a(fflush.o)
 .debug_info    0x0001df05      0x97d /cygdrive/c/altera/91/nios2eds/bin/nios2-gnutools/H-i686-pc-cygwin/bin/../lib/gcc/nios2-elf/3.4.6/../../../../nios2-elf/lib/libc.a(findfp.o)
 .debug_info    0x0001e882      0x986 /cygdrive/c/altera/91/nios2eds/bin/nios2-gnutools/H-i686-pc-cygwin/bin/../lib/gcc/nios2-elf/3.4.6/../../../../nios2-elf/lib/libc.a(findfp1.o)
 .debug_info    0x0001f208      0x925 /cygdrive/c/altera/91/nios2eds/bin/nios2-gnutools/H-i686-pc-cygwin/bin/../lib/gcc/nios2-elf/3.4.6/../../../../nios2-elf/lib/libc.a(flags.o)
 .debug_info    0x0001fb2d      0xb60 /cygdrive/c/altera/91/nios2eds/bin/nios2-gnutools/H-i686-pc-cygwin/bin/../lib/gcc/nios2-elf/3.4.6/../../../../nios2-elf/lib/libc.a(freer.o)
 .debug_info    0x0002068d      0xa1c /cygdrive/c/altera/91/nios2eds/bin/nios2-gnutools/H-i686-pc-cygwin/bin/../lib/gcc/nios2-elf/3.4.6/../../../../nios2-elf/lib/libc.a(fvwrite.o)
 .debug_info    0x000210a9      0x94f /cygdrive/c/altera/91/nios2eds/bin/nios2-gnutools/H-i686-pc-cygwin/bin/../lib/gcc/nios2-elf/3.4.6/../../../../nios2-elf/lib/libc.a(fwalk.o)
 .debug_info    0x000219f8      0xb3d /cygdrive/c/altera/91/nios2eds/bin/nios2-gnutools/H-i686-pc-cygwin/bin/../lib/gcc/nios2-elf/3.4.6/../../../../nios2-elf/lib/libc.a(locale.o)
 .debug_info    0x00022535      0x92e /cygdrive/c/altera/91/nios2eds/bin/nios2-gnutools/H-i686-pc-cygwin/bin/../lib/gcc/nios2-elf/3.4.6/../../../../nios2-elf/lib/libc.a(lseekr.o)
 .debug_info    0x00022e63      0x11f /cygdrive/c/altera/91/nios2eds/bin/nios2-gnutools/H-i686-pc-cygwin/bin/../lib/gcc/nios2-elf/3.4.6/../../../../nios2-elf/lib/libc.a(memchr.o)
 .debug_info    0x00022f82      0x129 /cygdrive/c/altera/91/nios2eds/bin/nios2-gnutools/H-i686-pc-cygwin/bin/../lib/gcc/nios2-elf/3.4.6/../../../../nios2-elf/lib/libc.a(memmove.o)
 .debug_info    0x000230ab     0x1235 /cygdrive/c/altera/91/nios2eds/bin/nios2-gnutools/H-i686-pc-cygwin/bin/../lib/gcc/nios2-elf/3.4.6/../../../../nios2-elf/lib/libc.a(mprec.o)
 .debug_info    0x000242e0      0x939 /cygdrive/c/altera/91/nios2eds/bin/nios2-gnutools/H-i686-pc-cygwin/bin/../lib/gcc/nios2-elf/3.4.6/../../../../nios2-elf/lib/libc.a(readr.o)
 .debug_info    0x00024c19      0xb40 /cygdrive/c/altera/91/nios2eds/bin/nios2-gnutools/H-i686-pc-cygwin/bin/../lib/gcc/nios2-elf/3.4.6/../../../../nios2-elf/lib/libc.a(reallocr.o)
 .debug_info    0x00025759       0xc6 /cygdrive/c/altera/91/nios2eds/bin/nios2-gnutools/H-i686-pc-cygwin/bin/../lib/gcc/nios2-elf/3.4.6/../../../../nios2-elf/lib/libc.a(s_isinf.o)
 .debug_info    0x0002581f       0xcc /cygdrive/c/altera/91/nios2eds/bin/nios2-gnutools/H-i686-pc-cygwin/bin/../lib/gcc/nios2-elf/3.4.6/../../../../nios2-elf/lib/libc.a(strcmp.o)
 .debug_info    0x000258eb      0x6c1 /cygdrive/c/altera/91/nios2eds/bin/nios2-gnutools/H-i686-pc-cygwin/bin/../lib/gcc/nios2-elf/3.4.6/libgcc.a(_udivdi3.o)
 .debug_info    0x00025fac      0x70b /cygdrive/c/altera/91/nios2eds/bin/nios2-gnutools/H-i686-pc-cygwin/bin/../lib/gcc/nios2-elf/3.4.6/libgcc.a(_umoddi3.o)
 .debug_info    0x000266b7       0xbc /cygdrive/c/altera/91/nios2eds/bin/nios2-gnutools/H-i686-pc-cygwin/bin/../lib/gcc/nios2-elf/3.4.6/libgcc.a(_clz.o)
 .debug_info    0x00026773      0x4de ../controller_sw_bsp/libhal_bsp.a(alt_close.o)
 .debug_info    0x00026c51      0x6fe ../controller_sw_bsp/libhal_bsp.a(alt_dev.o)
 .debug_info    0x0002734f      0x1df ../controller_sw_bsp/libhal_bsp.a(alt_errno.o)
 .debug_info    0x0002752e      0x6dd ../controller_sw_bsp/libhal_bsp.a(alt_fstat.o)
 .debug_info    0x00027c0b      0x4c2 ../controller_sw_bsp/libhal_bsp.a(alt_irq_register.o)
 .debug_info    0x000280cd      0x1e2 ../controller_sw_bsp/libhal_bsp.a(alt_irq_vars.o)
 .debug_info    0x000282af      0x6e4 ../controller_sw_bsp/libhal_bsp.a(alt_isatty.o)
 .debug_info    0x00028993      0x503 ../controller_sw_bsp/libhal_bsp.a(alt_lseek.o)
 .debug_info    0x00028e96      0x2ec ../controller_sw_bsp/libhal_bsp.a(alt_main.o)
 .debug_info    0x00029182      0xc28 ../controller_sw_bsp/libhal_bsp.a(alt_malloc_lock.o)
 .debug_info    0x00029daa      0x59a ../controller_sw_bsp/libhal_bsp.a(alt_open.o)
 .debug_info    0x0002a344      0x221 ../controller_sw_bsp/libhal_bsp.a(alt_printf.o)
 .debug_info    0x0002a565      0xc0e ../controller_sw_bsp/libhal_bsp.a(alt_putchar.o)
 .debug_info    0x0002b173      0x707 ../controller_sw_bsp/libhal_bsp.a(alt_read.o)
 .debug_info    0x0002b87a      0x46b ../controller_sw_bsp/libhal_bsp.a(alt_release_fd.o)
 .debug_info    0x0002bce5      0x353 ../controller_sw_bsp/libhal_bsp.a(alt_sbrk.o)
 .debug_info    0x0002c038      0x1c0 ../controller_sw_bsp/libhal_bsp.a(alt_usleep.o)
 .debug_info    0x0002c1f8      0x710 ../controller_sw_bsp/libhal_bsp.a(alt_write.o)
 .debug_info    0x0002c908      0xc82 ../controller_sw_bsp/libhal_bsp.a(alt_sys_init.o)
 .debug_info    0x0002d58a      0x83b ../controller_sw_bsp/libhal_bsp.a(altera_avalon_jtag_uart_fd.o)
 .debug_info    0x0002ddc5      0x6ab ../controller_sw_bsp/libhal_bsp.a(altera_avalon_jtag_uart_init.o)
 .debug_info    0x0002e470      0x4ab ../controller_sw_bsp/libhal_bsp.a(altera_avalon_jtag_uart_ioctl.o)
 .debug_info    0x0002e91b      0x5c6 ../controller_sw_bsp/libhal_bsp.a(altera_avalon_jtag_uart_read.o)
 .debug_info    0x0002eee1      0x5c2 ../controller_sw_bsp/libhal_bsp.a(altera_avalon_jtag_uart_write.o)
 .debug_info    0x0002f4a3      0x975 ../controller_sw_bsp/libhal_bsp.a(altera_avalon_lcd_16207.o)
 .debug_info    0x0002fe18      0x775 ../controller_sw_bsp/libhal_bsp.a(altera_avalon_lcd_16207_fd.o)
 .debug_info    0x0003058d      0x3bf ../controller_sw_bsp/libhal_bsp.a(altera_avalon_timer_sc.o)
 .debug_info    0x0003094c      0xea6 ../controller_sw_bsp/libhal_bsp.a(altera_up_avalon_pixel_buffer.o)
 .debug_info    0x000317f2      0x4d7 ../controller_sw_bsp/libhal_bsp.a(alt_alarm_start.o)
 .debug_info    0x00031cc9      0x224 ../controller_sw_bsp/libhal_bsp.a(alt_busy_sleep.o)
 .debug_info    0x00031eed      0x33d ../controller_sw_bsp/libhal_bsp.a(alt_dev_llist_insert.o)
 .debug_info    0x0003222a      0x193 ../controller_sw_bsp/libhal_bsp.a(alt_do_ctors.o)
 .debug_info    0x000323bd      0x192 ../controller_sw_bsp/libhal_bsp.a(alt_do_dtors.o)
 .debug_info    0x0003254f      0x491 ../controller_sw_bsp/libhal_bsp.a(alt_find_dev.o)
 .debug_info    0x000329e0      0x498 ../controller_sw_bsp/libhal_bsp.a(alt_find_file.o)
 .debug_info    0x00032e78      0x4f3 ../controller_sw_bsp/libhal_bsp.a(alt_get_fd.o)
 .debug_info    0x0003336b      0x712 ../controller_sw_bsp/libhal_bsp.a(alt_io_redirect.o)
 .debug_info    0x00033a7d       0xe1 ../controller_sw_bsp/libhal_bsp.a(alt_irq_entry.o)
 .debug_info    0x00033b5e      0x2ff ../controller_sw_bsp/libhal_bsp.a(alt_irq_handler.o)
 .debug_info    0x00033e5d      0x48d ../controller_sw_bsp/libhal_bsp.a(alt_tick.o)
 .debug_info    0x000342ea      0x1d2 ../controller_sw_bsp/libhal_bsp.a(altera_nios2_irq.o)
 .debug_info    0x000344bc       0xe7 ../controller_sw_bsp/libhal_bsp.a(alt_exception_entry.o)
 .debug_info    0x000345a3      0x91e /cygdrive/c/altera/91/nios2eds/bin/nios2-gnutools/H-i686-pc-cygwin/bin/../lib/gcc/nios2-elf/3.4.6/../../../../nios2-elf/lib/libc.a(atexit.o)
 .debug_info    0x00034ec1       0x9c /cygdrive/c/altera/91/nios2eds/bin/nios2-gnutools/H-i686-pc-cygwin/bin/../lib/gcc/nios2-elf/3.4.6/../../../../nios2-elf/lib/libc.a(ctype_.o)
 .debug_info    0x00034f5d      0x921 /cygdrive/c/altera/91/nios2eds/bin/nios2-gnutools/H-i686-pc-cygwin/bin/../lib/gcc/nios2-elf/3.4.6/../../../../nios2-elf/lib/libc.a(exit.o)
 .debug_info    0x0003587e       0xfc /cygdrive/c/altera/91/nios2eds/bin/nios2-gnutools/H-i686-pc-cygwin/bin/../lib/gcc/nios2-elf/3.4.6/../../../../nios2-elf/lib/libc.a(memcmp.o)
 .debug_info    0x0003597a      0x90b /cygdrive/c/altera/91/nios2eds/bin/nios2-gnutools/H-i686-pc-cygwin/bin/../lib/gcc/nios2-elf/3.4.6/../../../../nios2-elf/lib/libc.a(putc.o)
 .debug_info    0x00036285      0x917 /cygdrive/c/altera/91/nios2eds/bin/nios2-gnutools/H-i686-pc-cygwin/bin/../lib/gcc/nios2-elf/3.4.6/../../../../nios2-elf/lib/libc.a(wbuf.o)
 .debug_info    0x00036b9c      0x204 ../controller_sw_bsp/libhal_bsp.a(alt_exit.o)

.debug_abbrev   0x00000000     0xba5e
 *(.debug_abbrev)
 .debug_abbrev  0x00000000       0x10 ../controller_sw_bsp/obj/HAL/src/crt0.o
 .debug_abbrev  0x00000010      0x138 obj/collision_detection.o
 .debug_abbrev  0x00000148      0x1a9 obj/draw.o
 .debug_abbrev  0x000002f1      0x115 obj/ethernet_isr.o
 .debug_abbrev  0x00000406      0x148 obj/game_loop.o
 .debug_abbrev  0x0000054e      0x1f7 obj/main.o
 .debug_abbrev  0x00000745      0x131 obj/ship.o
 .debug_abbrev  0x00000876       0x75 obj/util.o
 .debug_abbrev  0x000008eb       0x89 /cygdrive/c/altera/91/nios2eds/bin/nios2-gnutools/H-i686-pc-cygwin/bin/../lib/gcc/nios2-elf/3.4.6/../../../../nios2-elf/lib/libm.a(s_cos.o)
 .debug_abbrev  0x00000974       0x89 /cygdrive/c/altera/91/nios2eds/bin/nios2-gnutools/H-i686-pc-cygwin/bin/../lib/gcc/nios2-elf/3.4.6/../../../../nios2-elf/lib/libm.a(s_sin.o)
 .debug_abbrev  0x000009fd       0xbf /cygdrive/c/altera/91/nios2eds/bin/nios2-gnutools/H-i686-pc-cygwin/bin/../lib/gcc/nios2-elf/3.4.6/../../../../nios2-elf/lib/libm.a(sf_round.o)
 .debug_abbrev  0x00000abc       0xc5 /cygdrive/c/altera/91/nios2eds/bin/nios2-gnutools/H-i686-pc-cygwin/bin/../lib/gcc/nios2-elf/3.4.6/../../../../nios2-elf/lib/libm.a(w_sqrt.o)
 .debug_abbrev  0x00000b81      0x11b /cygdrive/c/altera/91/nios2eds/bin/nios2-gnutools/H-i686-pc-cygwin/bin/../lib/gcc/nios2-elf/3.4.6/../../../../nios2-elf/lib/libm.a(e_rem_pio2.o)
 .debug_abbrev  0x00000c9c       0xf7 /cygdrive/c/altera/91/nios2eds/bin/nios2-gnutools/H-i686-pc-cygwin/bin/../lib/gcc/nios2-elf/3.4.6/../../../../nios2-elf/lib/libm.a(e_sqrt.o)
 .debug_abbrev  0x00000d93       0xdd /cygdrive/c/altera/91/nios2eds/bin/nios2-gnutools/H-i686-pc-cygwin/bin/../lib/gcc/nios2-elf/3.4.6/../../../../nios2-elf/lib/libm.a(k_cos.o)
 .debug_abbrev  0x00000e70       0xe4 /cygdrive/c/altera/91/nios2eds/bin/nios2-gnutools/H-i686-pc-cygwin/bin/../lib/gcc/nios2-elf/3.4.6/../../../../nios2-elf/lib/libm.a(k_rem_pio2.o)
 .debug_abbrev  0x00000f54       0x91 /cygdrive/c/altera/91/nios2eds/bin/nios2-gnutools/H-i686-pc-cygwin/bin/../lib/gcc/nios2-elf/3.4.6/../../../../nios2-elf/lib/libm.a(k_sin.o)
 .debug_abbrev  0x00000fe5       0xb6 /cygdrive/c/altera/91/nios2eds/bin/nios2-gnutools/H-i686-pc-cygwin/bin/../lib/gcc/nios2-elf/3.4.6/../../../../nios2-elf/lib/libm.a(s_fabs.o)
 .debug_abbrev  0x0000109b       0xdb /cygdrive/c/altera/91/nios2eds/bin/nios2-gnutools/H-i686-pc-cygwin/bin/../lib/gcc/nios2-elf/3.4.6/../../../../nios2-elf/lib/libm.a(s_floor.o)
 .debug_abbrev  0x00001176       0x77 /cygdrive/c/altera/91/nios2eds/bin/nios2-gnutools/H-i686-pc-cygwin/bin/../lib/gcc/nios2-elf/3.4.6/../../../../nios2-elf/lib/libm.a(s_isnan.o)
 .debug_abbrev  0x000011ed       0x58 /cygdrive/c/altera/91/nios2eds/bin/nios2-gnutools/H-i686-pc-cygwin/bin/../lib/gcc/nios2-elf/3.4.6/../../../../nios2-elf/lib/libm.a(s_lib_ver.o)
 .debug_abbrev  0x00001245       0x93 /cygdrive/c/altera/91/nios2eds/bin/nios2-gnutools/H-i686-pc-cygwin/bin/../lib/gcc/nios2-elf/3.4.6/../../../../nios2-elf/lib/libm.a(s_matherr.o)
 .debug_abbrev  0x000012d8       0xe6 /cygdrive/c/altera/91/nios2eds/bin/nios2-gnutools/H-i686-pc-cygwin/bin/../lib/gcc/nios2-elf/3.4.6/../../../../nios2-elf/lib/libm.a(s_scalbn.o)
 .debug_abbrev  0x000013be       0xd0 /cygdrive/c/altera/91/nios2eds/bin/nios2-gnutools/H-i686-pc-cygwin/bin/../lib/gcc/nios2-elf/3.4.6/../../../../nios2-elf/lib/libm.a(s_copysign.o)
 .debug_abbrev  0x0000148e       0x5b /cygdrive/c/altera/91/nios2eds/bin/nios2-gnutools/H-i686-pc-cygwin/bin/../lib/gcc/nios2-elf/3.4.6/libgcc.a(_fixunssfsi.o)
 .debug_abbrev  0x000014e9      0x1ca /cygdrive/c/altera/91/nios2eds/bin/nios2-gnutools/H-i686-pc-cygwin/bin/../lib/gcc/nios2-elf/3.4.6/libgcc.a(_addsub_sf.o)
 .debug_abbrev  0x000016b3      0x1e4 /cygdrive/c/altera/91/nios2eds/bin/nios2-gnutools/H-i686-pc-cygwin/bin/../lib/gcc/nios2-elf/3.4.6/libgcc.a(_mul_sf.o)
 .debug_abbrev  0x00001897      0x1df /cygdrive/c/altera/91/nios2eds/bin/nios2-gnutools/H-i686-pc-cygwin/bin/../lib/gcc/nios2-elf/3.4.6/libgcc.a(_div_sf.o)
 .debug_abbrev  0x00001a76      0x16e /cygdrive/c/altera/91/nios2eds/bin/nios2-gnutools/H-i686-pc-cygwin/bin/../lib/gcc/nios2-elf/3.4.6/libgcc.a(_eq_sf.o)
 .debug_abbrev  0x00001be4      0x16e /cygdrive/c/altera/91/nios2eds/bin/nios2-gnutools/H-i686-pc-cygwin/bin/../lib/gcc/nios2-elf/3.4.6/libgcc.a(_ne_sf.o)
 .debug_abbrev  0x00001d52      0x16e /cygdrive/c/altera/91/nios2eds/bin/nios2-gnutools/H-i686-pc-cygwin/bin/../lib/gcc/nios2-elf/3.4.6/libgcc.a(_gt_sf.o)
 .debug_abbrev  0x00001ec0      0x16e /cygdrive/c/altera/91/nios2eds/bin/nios2-gnutools/H-i686-pc-cygwin/bin/../lib/gcc/nios2-elf/3.4.6/libgcc.a(_ge_sf.o)
 .debug_abbrev  0x0000202e      0x16e /cygdrive/c/altera/91/nios2eds/bin/nios2-gnutools/H-i686-pc-cygwin/bin/../lib/gcc/nios2-elf/3.4.6/libgcc.a(_lt_sf.o)
 .debug_abbrev  0x0000219c      0x16e /cygdrive/c/altera/91/nios2eds/bin/nios2-gnutools/H-i686-pc-cygwin/bin/../lib/gcc/nios2-elf/3.4.6/libgcc.a(_le_sf.o)
 .debug_abbrev  0x0000230a       0xef /cygdrive/c/altera/91/nios2eds/bin/nios2-gnutools/H-i686-pc-cygwin/bin/../lib/gcc/nios2-elf/3.4.6/libgcc.a(_si_to_sf.o)
 .debug_abbrev  0x000023f9      0x16e /cygdrive/c/altera/91/nios2eds/bin/nios2-gnutools/H-i686-pc-cygwin/bin/../lib/gcc/nios2-elf/3.4.6/libgcc.a(_sf_to_si.o)
 .debug_abbrev  0x00002567      0x126 /cygdrive/c/altera/91/nios2eds/bin/nios2-gnutools/H-i686-pc-cygwin/bin/../lib/gcc/nios2-elf/3.4.6/libgcc.a(_sf_to_df.o)
 .debug_abbrev  0x0000268d       0xb8 /cygdrive/c/altera/91/nios2eds/bin/nios2-gnutools/H-i686-pc-cygwin/bin/../lib/gcc/nios2-elf/3.4.6/libgcc.a(_thenan_sf.o)
 .debug_abbrev  0x00002745      0x1ca /cygdrive/c/altera/91/nios2eds/bin/nios2-gnutools/H-i686-pc-cygwin/bin/../lib/gcc/nios2-elf/3.4.6/libgcc.a(_addsub_df.o)
 .debug_abbrev  0x0000290f      0x1de /cygdrive/c/altera/91/nios2eds/bin/nios2-gnutools/H-i686-pc-cygwin/bin/../lib/gcc/nios2-elf/3.4.6/libgcc.a(_mul_df.o)
 .debug_abbrev  0x00002aed      0x1df /cygdrive/c/altera/91/nios2eds/bin/nios2-gnutools/H-i686-pc-cygwin/bin/../lib/gcc/nios2-elf/3.4.6/libgcc.a(_div_df.o)
 .debug_abbrev  0x00002ccc      0x16e /cygdrive/c/altera/91/nios2eds/bin/nios2-gnutools/H-i686-pc-cygwin/bin/../lib/gcc/nios2-elf/3.4.6/libgcc.a(_eq_df.o)
 .debug_abbrev  0x00002e3a      0x16e /cygdrive/c/altera/91/nios2eds/bin/nios2-gnutools/H-i686-pc-cygwin/bin/../lib/gcc/nios2-elf/3.4.6/libgcc.a(_ne_df.o)
 .debug_abbrev  0x00002fa8      0x16e /cygdrive/c/altera/91/nios2eds/bin/nios2-gnutools/H-i686-pc-cygwin/bin/../lib/gcc/nios2-elf/3.4.6/libgcc.a(_gt_df.o)
 .debug_abbrev  0x00003116      0x16e /cygdrive/c/altera/91/nios2eds/bin/nios2-gnutools/H-i686-pc-cygwin/bin/../lib/gcc/nios2-elf/3.4.6/libgcc.a(_ge_df.o)
 .debug_abbrev  0x00003284      0x16e /cygdrive/c/altera/91/nios2eds/bin/nios2-gnutools/H-i686-pc-cygwin/bin/../lib/gcc/nios2-elf/3.4.6/libgcc.a(_lt_df.o)
 .debug_abbrev  0x000033f2       0xef /cygdrive/c/altera/91/nios2eds/bin/nios2-gnutools/H-i686-pc-cygwin/bin/../lib/gcc/nios2-elf/3.4.6/libgcc.a(_si_to_df.o)
 .debug_abbrev  0x000034e1      0x16e /cygdrive/c/altera/91/nios2eds/bin/nios2-gnutools/H-i686-pc-cygwin/bin/../lib/gcc/nios2-elf/3.4.6/libgcc.a(_df_to_si.o)
 .debug_abbrev  0x0000364f       0xfe /cygdrive/c/altera/91/nios2eds/bin/nios2-gnutools/H-i686-pc-cygwin/bin/../lib/gcc/nios2-elf/3.4.6/libgcc.a(_make_df.o)
 .debug_abbrev  0x0000374d      0x135 /cygdrive/c/altera/91/nios2eds/bin/nios2-gnutools/H-i686-pc-cygwin/bin/../lib/gcc/nios2-elf/3.4.6/libgcc.a(_df_to_sf.o)
 .debug_abbrev  0x00003882       0xb8 /cygdrive/c/altera/91/nios2eds/bin/nios2-gnutools/H-i686-pc-cygwin/bin/../lib/gcc/nios2-elf/3.4.6/libgcc.a(_thenan_df.o)
 .debug_abbrev  0x0000393a       0xa9 /cygdrive/c/altera/91/nios2eds/bin/nios2-gnutools/H-i686-pc-cygwin/bin/../lib/gcc/nios2-elf/3.4.6/libgcc.a(lib2-divmod.o)
 .debug_abbrev  0x000039e3       0xdd /cygdrive/c/altera/91/nios2eds/bin/nios2-gnutools/H-i686-pc-cygwin/bin/../lib/gcc/nios2-elf/3.4.6/libgcc.a(_muldi3.o)
 .debug_abbrev  0x00003ac0       0xc7 /cygdrive/c/altera/91/nios2eds/bin/nios2-gnutools/H-i686-pc-cygwin/bin/../lib/gcc/nios2-elf/3.4.6/libgcc.a(_negdi2.o)
 .debug_abbrev  0x00003b87       0xdd /cygdrive/c/altera/91/nios2eds/bin/nios2-gnutools/H-i686-pc-cygwin/bin/../lib/gcc/nios2-elf/3.4.6/libgcc.a(_lshrdi3.o)
 .debug_abbrev  0x00003c64      0x18f /cygdrive/c/altera/91/nios2eds/bin/nios2-gnutools/H-i686-pc-cygwin/bin/../lib/gcc/nios2-elf/3.4.6/libgcc.a(_pack_sf.o)
 .debug_abbrev  0x00003df3      0x13c /cygdrive/c/altera/91/nios2eds/bin/nios2-gnutools/H-i686-pc-cygwin/bin/../lib/gcc/nios2-elf/3.4.6/libgcc.a(_unpack_sf.o)
 .debug_abbrev  0x00003f2f      0x128 /cygdrive/c/altera/91/nios2eds/bin/nios2-gnutools/H-i686-pc-cygwin/bin/../lib/gcc/nios2-elf/3.4.6/libgcc.a(_fpcmp_parts_sf.o)
 .debug_abbrev  0x00004057       0xfe /cygdrive/c/altera/91/nios2eds/bin/nios2-gnutools/H-i686-pc-cygwin/bin/../lib/gcc/nios2-elf/3.4.6/libgcc.a(_make_sf.o)
 .debug_abbrev  0x00004155      0x191 /cygdrive/c/altera/91/nios2eds/bin/nios2-gnutools/H-i686-pc-cygwin/bin/../lib/gcc/nios2-elf/3.4.6/libgcc.a(_pack_df.o)
 .debug_abbrev  0x000042e6      0x13c /cygdrive/c/altera/91/nios2eds/bin/nios2-gnutools/H-i686-pc-cygwin/bin/../lib/gcc/nios2-elf/3.4.6/libgcc.a(_unpack_df.o)
 .debug_abbrev  0x00004422      0x128 /cygdrive/c/altera/91/nios2eds/bin/nios2-gnutools/H-i686-pc-cygwin/bin/../lib/gcc/nios2-elf/3.4.6/libgcc.a(_fpcmp_parts_df.o)
 .debug_abbrev  0x0000454a       0xdd /cygdrive/c/altera/91/nios2eds/bin/nios2-gnutools/H-i686-pc-cygwin/bin/../lib/gcc/nios2-elf/3.4.6/libgcc.a(_ashldi3.o)
 .debug_abbrev  0x00004627      0x17d /cygdrive/c/altera/91/nios2eds/bin/nios2-gnutools/H-i686-pc-cygwin/bin/../lib/gcc/nios2-elf/3.4.6/../../../../nios2-elf/lib/libc.a(calloc.o)
 .debug_abbrev  0x000047a4      0x1b8 /cygdrive/c/altera/91/nios2eds/bin/nios2-gnutools/H-i686-pc-cygwin/bin/../lib/gcc/nios2-elf/3.4.6/../../../../nios2-elf/lib/libc.a(callocr.o)
 .debug_abbrev  0x0000495c      0x15d /cygdrive/c/altera/91/nios2eds/bin/nios2-gnutools/H-i686-pc-cygwin/bin/../lib/gcc/nios2-elf/3.4.6/../../../../nios2-elf/lib/libc.a(errno.o)
 .debug_abbrev  0x00004ab9      0x1b1 /cygdrive/c/altera/91/nios2eds/bin/nios2-gnutools/H-i686-pc-cygwin/bin/../lib/gcc/nios2-elf/3.4.6/../../../../nios2-elf/lib/libc.a(fopen.o)
 .debug_abbrev  0x00004c6a      0x16f /cygdrive/c/altera/91/nios2eds/bin/nios2-gnutools/H-i686-pc-cygwin/bin/../lib/gcc/nios2-elf/3.4.6/../../../../nios2-elf/lib/libc.a(fprintf.o)
 .debug_abbrev  0x00004dd9      0x1f7 /cygdrive/c/altera/91/nios2eds/bin/nios2-gnutools/H-i686-pc-cygwin/bin/../lib/gcc/nios2-elf/3.4.6/../../../../nios2-elf/lib/libc.a(fseek.o)
 .debug_abbrev  0x00004fd0      0x18c /cygdrive/c/altera/91/nios2eds/bin/nios2-gnutools/H-i686-pc-cygwin/bin/../lib/gcc/nios2-elf/3.4.6/../../../../nios2-elf/lib/libc.a(fstatr.o)
 .debug_abbrev  0x0000515c      0x155 /cygdrive/c/altera/91/nios2eds/bin/nios2-gnutools/H-i686-pc-cygwin/bin/../lib/gcc/nios2-elf/3.4.6/../../../../nios2-elf/lib/libc.a(impure.o)
 .debug_abbrev  0x000052b1       0x39 /cygdrive/c/altera/91/nios2eds/bin/nios2-gnutools/H-i686-pc-cygwin/bin/../lib/gcc/nios2-elf/3.4.6/../../../../nios2-elf/lib/libc.a(int_errno.o)
 .debug_abbrev  0x000052ea      0x18a /cygdrive/c/altera/91/nios2eds/bin/nios2-gnutools/H-i686-pc-cygwin/bin/../lib/gcc/nios2-elf/3.4.6/../../../../nios2-elf/lib/libc.a(makebuf.o)
 .debug_abbrev  0x00005474      0x185 /cygdrive/c/altera/91/nios2eds/bin/nios2-gnutools/H-i686-pc-cygwin/bin/../lib/gcc/nios2-elf/3.4.6/../../../../nios2-elf/lib/libc.a(malloc.o)
 .debug_abbrev  0x000055f9      0x212 /cygdrive/c/altera/91/nios2eds/bin/nios2-gnutools/H-i686-pc-cygwin/bin/../lib/gcc/nios2-elf/3.4.6/../../../../nios2-elf/lib/libc.a(mallocr.o)
 .debug_abbrev  0x0000580b       0x97 /cygdrive/c/altera/91/nios2eds/bin/nios2-gnutools/H-i686-pc-cygwin/bin/../lib/gcc/nios2-elf/3.4.6/../../../../nios2-elf/lib/libc.a(memcpy.o)
 .debug_abbrev  0x000058a2       0x98 /cygdrive/c/altera/91/nios2eds/bin/nios2-gnutools/H-i686-pc-cygwin/bin/../lib/gcc/nios2-elf/3.4.6/../../../../nios2-elf/lib/libc.a(memset.o)
 .debug_abbrev  0x0000593a      0x18c /cygdrive/c/altera/91/nios2eds/bin/nios2-gnutools/H-i686-pc-cygwin/bin/../lib/gcc/nios2-elf/3.4.6/../../../../nios2-elf/lib/libc.a(openr.o)
 .debug_abbrev  0x00005ac6      0x183 /cygdrive/c/altera/91/nios2eds/bin/nios2-gnutools/H-i686-pc-cygwin/bin/../lib/gcc/nios2-elf/3.4.6/../../../../nios2-elf/lib/libc.a(rand.o)
 .debug_abbrev  0x00005c49      0x183 /cygdrive/c/altera/91/nios2eds/bin/nios2-gnutools/H-i686-pc-cygwin/bin/../lib/gcc/nios2-elf/3.4.6/../../../../nios2-elf/lib/libc.a(refill.o)
 .debug_abbrev  0x00005dcc      0x19f /cygdrive/c/altera/91/nios2eds/bin/nios2-gnutools/H-i686-pc-cygwin/bin/../lib/gcc/nios2-elf/3.4.6/../../../../nios2-elf/lib/libc.a(sbrkr.o)
 .debug_abbrev  0x00005f6b      0x18f /cygdrive/c/altera/91/nios2eds/bin/nios2-gnutools/H-i686-pc-cygwin/bin/../lib/gcc/nios2-elf/3.4.6/../../../../nios2-elf/lib/libc.a(sprintf.o)
 .debug_abbrev  0x000060fa      0x199 /cygdrive/c/altera/91/nios2eds/bin/nios2-gnutools/H-i686-pc-cygwin/bin/../lib/gcc/nios2-elf/3.4.6/../../../../nios2-elf/lib/libc.a(stdio.o)
 .debug_abbrev  0x00006293       0x7c /cygdrive/c/altera/91/nios2eds/bin/nios2-gnutools/H-i686-pc-cygwin/bin/../lib/gcc/nios2-elf/3.4.6/../../../../nios2-elf/lib/libc.a(strlen.o)
 .debug_abbrev  0x0000630f      0x2d7 /cygdrive/c/altera/91/nios2eds/bin/nios2-gnutools/H-i686-pc-cygwin/bin/../lib/gcc/nios2-elf/3.4.6/../../../../nios2-elf/lib/libc.a(vfprintf1.o)
 .debug_abbrev  0x000065e6      0x18c /cygdrive/c/altera/91/nios2eds/bin/nios2-gnutools/H-i686-pc-cygwin/bin/../lib/gcc/nios2-elf/3.4.6/../../../../nios2-elf/lib/libc.a(wcrtomb.o)
 .debug_abbrev  0x00006772      0x193 /cygdrive/c/altera/91/nios2eds/bin/nios2-gnutools/H-i686-pc-cygwin/bin/../lib/gcc/nios2-elf/3.4.6/../../../../nios2-elf/lib/libc.a(wcsrtombs.o)
 .debug_abbrev  0x00006905      0x1b8 /cygdrive/c/altera/91/nios2eds/bin/nios2-gnutools/H-i686-pc-cygwin/bin/../lib/gcc/nios2-elf/3.4.6/../../../../nios2-elf/lib/libc.a(wctomb_r.o)
 .debug_abbrev  0x00006abd      0x182 /cygdrive/c/altera/91/nios2eds/bin/nios2-gnutools/H-i686-pc-cygwin/bin/../lib/gcc/nios2-elf/3.4.6/../../../../nios2-elf/lib/libc.a(writer.o)
 .debug_abbrev  0x00006c3f      0x16e /cygdrive/c/altera/91/nios2eds/bin/nios2-gnutools/H-i686-pc-cygwin/bin/../lib/gcc/nios2-elf/3.4.6/../../../../nios2-elf/lib/libc.a(wsetup.o)
 .debug_abbrev  0x00006dad      0x17d /cygdrive/c/altera/91/nios2eds/bin/nios2-gnutools/H-i686-pc-cygwin/bin/../lib/gcc/nios2-elf/3.4.6/../../../../nios2-elf/lib/libc.a(closer.o)
 .debug_abbrev  0x00006f2a      0x1fa /cygdrive/c/altera/91/nios2eds/bin/nios2-gnutools/H-i686-pc-cygwin/bin/../lib/gcc/nios2-elf/3.4.6/../../../../nios2-elf/lib/libc.a(dtoa.o)
 .debug_abbrev  0x00007124      0x17d /cygdrive/c/altera/91/nios2eds/bin/nios2-gnutools/H-i686-pc-cygwin/bin/../lib/gcc/nios2-elf/3.4.6/../../../../nios2-elf/lib/libc.a(fflush.o)
 .debug_abbrev  0x000072a1      0x1a1 /cygdrive/c/altera/91/nios2eds/bin/nios2-gnutools/H-i686-pc-cygwin/bin/../lib/gcc/nios2-elf/3.4.6/../../../../nios2-elf/lib/libc.a(findfp.o)
 .debug_abbrev  0x00007442      0x199 /cygdrive/c/altera/91/nios2eds/bin/nios2-gnutools/H-i686-pc-cygwin/bin/../lib/gcc/nios2-elf/3.4.6/../../../../nios2-elf/lib/libc.a(findfp1.o)
 .debug_abbrev  0x000075db      0x179 /cygdrive/c/altera/91/nios2eds/bin/nios2-gnutools/H-i686-pc-cygwin/bin/../lib/gcc/nios2-elf/3.4.6/../../../../nios2-elf/lib/libc.a(flags.o)
 .debug_abbrev  0x00007754      0x1d7 /cygdrive/c/altera/91/nios2eds/bin/nios2-gnutools/H-i686-pc-cygwin/bin/../lib/gcc/nios2-elf/3.4.6/../../../../nios2-elf/lib/libc.a(freer.o)
 .debug_abbrev  0x0000792b      0x1a7 /cygdrive/c/altera/91/nios2eds/bin/nios2-gnutools/H-i686-pc-cygwin/bin/../lib/gcc/nios2-elf/3.4.6/../../../../nios2-elf/lib/libc.a(fvwrite.o)
 .debug_abbrev  0x00007ad2      0x19a /cygdrive/c/altera/91/nios2eds/bin/nios2-gnutools/H-i686-pc-cygwin/bin/../lib/gcc/nios2-elf/3.4.6/../../../../nios2-elf/lib/libc.a(fwalk.o)
 .debug_abbrev  0x00007c6c      0x1dc /cygdrive/c/altera/91/nios2eds/bin/nios2-gnutools/H-i686-pc-cygwin/bin/../lib/gcc/nios2-elf/3.4.6/../../../../nios2-elf/lib/libc.a(locale.o)
 .debug_abbrev  0x00007e48      0x18c /cygdrive/c/altera/91/nios2eds/bin/nios2-gnutools/H-i686-pc-cygwin/bin/../lib/gcc/nios2-elf/3.4.6/../../../../nios2-elf/lib/libc.a(lseekr.o)
 .debug_abbrev  0x00007fd4       0xa6 /cygdrive/c/altera/91/nios2eds/bin/nios2-gnutools/H-i686-pc-cygwin/bin/../lib/gcc/nios2-elf/3.4.6/../../../../nios2-elf/lib/libc.a(memchr.o)
 .debug_abbrev  0x0000807a       0x97 /cygdrive/c/altera/91/nios2eds/bin/nios2-gnutools/H-i686-pc-cygwin/bin/../lib/gcc/nios2-elf/3.4.6/../../../../nios2-elf/lib/libc.a(memmove.o)
 .debug_abbrev  0x00008111      0x21f /cygdrive/c/altera/91/nios2eds/bin/nios2-gnutools/H-i686-pc-cygwin/bin/../lib/gcc/nios2-elf/3.4.6/../../../../nios2-elf/lib/libc.a(mprec.o)
 .debug_abbrev  0x00008330      0x17d /cygdrive/c/altera/91/nios2eds/bin/nios2-gnutools/H-i686-pc-cygwin/bin/../lib/gcc/nios2-elf/3.4.6/../../../../nios2-elf/lib/libc.a(readr.o)
 .debug_abbrev  0x000084ad      0x1ce /cygdrive/c/altera/91/nios2eds/bin/nios2-gnutools/H-i686-pc-cygwin/bin/../lib/gcc/nios2-elf/3.4.6/../../../../nios2-elf/lib/libc.a(reallocr.o)
 .debug_abbrev  0x0000867b       0x77 /cygdrive/c/altera/91/nios2eds/bin/nios2-gnutools/H-i686-pc-cygwin/bin/../lib/gcc/nios2-elf/3.4.6/../../../../nios2-elf/lib/libc.a(s_isinf.o)
 .debug_abbrev  0x000086f2       0x6f /cygdrive/c/altera/91/nios2eds/bin/nios2-gnutools/H-i686-pc-cygwin/bin/../lib/gcc/nios2-elf/3.4.6/../../../../nios2-elf/lib/libc.a(strcmp.o)
 .debug_abbrev  0x00008761      0x163 /cygdrive/c/altera/91/nios2eds/bin/nios2-gnutools/H-i686-pc-cygwin/bin/../lib/gcc/nios2-elf/3.4.6/libgcc.a(_udivdi3.o)
 .debug_abbrev  0x000088c4      0x186 /cygdrive/c/altera/91/nios2eds/bin/nios2-gnutools/H-i686-pc-cygwin/bin/../lib/gcc/nios2-elf/3.4.6/libgcc.a(_umoddi3.o)
 .debug_abbrev  0x00008a4a       0x5f /cygdrive/c/altera/91/nios2eds/bin/nios2-gnutools/H-i686-pc-cygwin/bin/../lib/gcc/nios2-elf/3.4.6/libgcc.a(_clz.o)
 .debug_abbrev  0x00008aa9       0xfb ../controller_sw_bsp/libhal_bsp.a(alt_close.o)
 .debug_abbrev  0x00008ba4       0xdf ../controller_sw_bsp/libhal_bsp.a(alt_dev.o)
 .debug_abbrev  0x00008c83       0x5e ../controller_sw_bsp/libhal_bsp.a(alt_errno.o)
 .debug_abbrev  0x00008ce1      0x102 ../controller_sw_bsp/libhal_bsp.a(alt_fstat.o)
 .debug_abbrev  0x00008de3      0x192 ../controller_sw_bsp/libhal_bsp.a(alt_irq_register.o)
 .debug_abbrev  0x00008f75       0x44 ../controller_sw_bsp/libhal_bsp.a(alt_irq_vars.o)
 .debug_abbrev  0x00008fb9      0x102 ../controller_sw_bsp/libhal_bsp.a(alt_isatty.o)
 .debug_abbrev  0x000090bb       0xfb ../controller_sw_bsp/libhal_bsp.a(alt_lseek.o)
 .debug_abbrev  0x000091b6       0xc9 ../controller_sw_bsp/libhal_bsp.a(alt_main.o)
 .debug_abbrev  0x0000927f      0x181 ../controller_sw_bsp/libhal_bsp.a(alt_malloc_lock.o)
 .debug_abbrev  0x00009400      0x112 ../controller_sw_bsp/libhal_bsp.a(alt_open.o)
 .debug_abbrev  0x00009512       0x91 ../controller_sw_bsp/libhal_bsp.a(alt_printf.o)
 .debug_abbrev  0x000095a3      0x17f ../controller_sw_bsp/libhal_bsp.a(alt_putchar.o)
 .debug_abbrev  0x00009722      0x102 ../controller_sw_bsp/libhal_bsp.a(alt_read.o)
 .debug_abbrev  0x00009824       0xc1 ../controller_sw_bsp/libhal_bsp.a(alt_release_fd.o)
 .debug_abbrev  0x000098e5      0x116 ../controller_sw_bsp/libhal_bsp.a(alt_sbrk.o)
 .debug_abbrev  0x000099fb       0x50 ../controller_sw_bsp/libhal_bsp.a(alt_usleep.o)
 .debug_abbrev  0x00009a4b      0x107 ../controller_sw_bsp/libhal_bsp.a(alt_write.o)
 .debug_abbrev  0x00009b52      0x198 ../controller_sw_bsp/libhal_bsp.a(alt_sys_init.o)
 .debug_abbrev  0x00009cea       0xf7 ../controller_sw_bsp/libhal_bsp.a(altera_avalon_jtag_uart_fd.o)
 .debug_abbrev  0x00009de1      0x178 ../controller_sw_bsp/libhal_bsp.a(altera_avalon_jtag_uart_init.o)
 .debug_abbrev  0x00009f59       0xf0 ../controller_sw_bsp/libhal_bsp.a(altera_avalon_jtag_uart_ioctl.o)
 .debug_abbrev  0x0000a049      0x19d ../controller_sw_bsp/libhal_bsp.a(altera_avalon_jtag_uart_read.o)
 .debug_abbrev  0x0000a1e6      0x18e ../controller_sw_bsp/libhal_bsp.a(altera_avalon_jtag_uart_write.o)
 .debug_abbrev  0x0000a374      0x1c4 ../controller_sw_bsp/libhal_bsp.a(altera_avalon_lcd_16207.o)
 .debug_abbrev  0x0000a538      0x104 ../controller_sw_bsp/libhal_bsp.a(altera_avalon_lcd_16207_fd.o)
 .debug_abbrev  0x0000a63c      0x111 ../controller_sw_bsp/libhal_bsp.a(altera_avalon_timer_sc.o)
 .debug_abbrev  0x0000a74d      0x196 ../controller_sw_bsp/libhal_bsp.a(altera_up_avalon_pixel_buffer.o)
 .debug_abbrev  0x0000a8e3      0x17e ../controller_sw_bsp/libhal_bsp.a(alt_alarm_start.o)
 .debug_abbrev  0x0000aa61       0x6c ../controller_sw_bsp/libhal_bsp.a(alt_busy_sleep.o)
 .debug_abbrev  0x0000aacd       0xfb ../controller_sw_bsp/libhal_bsp.a(alt_dev_llist_insert.o)
 .debug_abbrev  0x0000abc8       0x76 ../controller_sw_bsp/libhal_bsp.a(alt_do_ctors.o)
 .debug_abbrev  0x0000ac3e       0x76 ../controller_sw_bsp/libhal_bsp.a(alt_do_dtors.o)
 .debug_abbrev  0x0000acb4       0xcf ../controller_sw_bsp/libhal_bsp.a(alt_find_dev.o)
 .debug_abbrev  0x0000ad83       0xcf ../controller_sw_bsp/libhal_bsp.a(alt_find_file.o)
 .debug_abbrev  0x0000ae52      0x106 ../controller_sw_bsp/libhal_bsp.a(alt_get_fd.o)
 .debug_abbrev  0x0000af58       0xf7 ../controller_sw_bsp/libhal_bsp.a(alt_io_redirect.o)
 .debug_abbrev  0x0000b04f       0x10 ../controller_sw_bsp/libhal_bsp.a(alt_irq_entry.o)
 .debug_abbrev  0x0000b05f      0x104 ../controller_sw_bsp/libhal_bsp.a(alt_irq_handler.o)
 .debug_abbrev  0x0000b163      0x151 ../controller_sw_bsp/libhal_bsp.a(alt_tick.o)
 .debug_abbrev  0x0000b2b4       0x3f ../controller_sw_bsp/libhal_bsp.a(altera_nios2_irq.o)
 .debug_abbrev  0x0000b2f3       0x10 ../controller_sw_bsp/libhal_bsp.a(alt_exception_entry.o)
 .debug_abbrev  0x0000b303      0x19d /cygdrive/c/altera/91/nios2eds/bin/nios2-gnutools/H-i686-pc-cygwin/bin/../lib/gcc/nios2-elf/3.4.6/../../../../nios2-elf/lib/libc.a(atexit.o)
 .debug_abbrev  0x0000b4a0       0x5f /cygdrive/c/altera/91/nios2eds/bin/nios2-gnutools/H-i686-pc-cygwin/bin/../lib/gcc/nios2-elf/3.4.6/../../../../nios2-elf/lib/libc.a(ctype_.o)
 .debug_abbrev  0x0000b4ff      0x18a /cygdrive/c/altera/91/nios2eds/bin/nios2-gnutools/H-i686-pc-cygwin/bin/../lib/gcc/nios2-elf/3.4.6/../../../../nios2-elf/lib/libc.a(exit.o)
 .debug_abbrev  0x0000b689       0x7a /cygdrive/c/altera/91/nios2eds/bin/nios2-gnutools/H-i686-pc-cygwin/bin/../lib/gcc/nios2-elf/3.4.6/../../../../nios2-elf/lib/libc.a(memcmp.o)
 .debug_abbrev  0x0000b703      0x16c /cygdrive/c/altera/91/nios2eds/bin/nios2-gnutools/H-i686-pc-cygwin/bin/../lib/gcc/nios2-elf/3.4.6/../../../../nios2-elf/lib/libc.a(putc.o)
 .debug_abbrev  0x0000b86f      0x17d /cygdrive/c/altera/91/nios2eds/bin/nios2-gnutools/H-i686-pc-cygwin/bin/../lib/gcc/nios2-elf/3.4.6/../../../../nios2-elf/lib/libc.a(wbuf.o)
 .debug_abbrev  0x0000b9ec       0x72 ../controller_sw_bsp/libhal_bsp.a(alt_exit.o)

.debug_line     0x00000000    0x1f439
 *(.debug_line)
 .debug_line    0x00000000       0xbd ../controller_sw_bsp/obj/HAL/src/crt0.o
 .debug_line    0x000000bd      0x894 obj/collision_detection.o
 .debug_line    0x00000951      0x8ce obj/draw.o
 .debug_line    0x0000121f      0x56e obj/ethernet_isr.o
 .debug_line    0x0000178d      0x6e9 obj/game_loop.o
 .debug_line    0x00001e76      0x534 obj/main.o
 .debug_line    0x000023aa     0x1009 obj/ship.o
 .debug_line    0x000033b3      0x285 obj/util.o
 .debug_line    0x00003638      0x288 /cygdrive/c/altera/91/nios2eds/bin/nios2-gnutools/H-i686-pc-cygwin/bin/../lib/gcc/nios2-elf/3.4.6/../../../../nios2-elf/lib/libm.a(s_cos.o)
 .debug_line    0x000038c0      0x280 /cygdrive/c/altera/91/nios2eds/bin/nios2-gnutools/H-i686-pc-cygwin/bin/../lib/gcc/nios2-elf/3.4.6/../../../../nios2-elf/lib/libm.a(s_sin.o)
 .debug_line    0x00003b40      0x2b7 /cygdrive/c/altera/91/nios2eds/bin/nios2-gnutools/H-i686-pc-cygwin/bin/../lib/gcc/nios2-elf/3.4.6/../../../../nios2-elf/lib/libm.a(sf_round.o)
 .debug_line    0x00003df7      0x2ac /cygdrive/c/altera/91/nios2eds/bin/nios2-gnutools/H-i686-pc-cygwin/bin/../lib/gcc/nios2-elf/3.4.6/../../../../nios2-elf/lib/libm.a(w_sqrt.o)
 .debug_line    0x000040a3      0x62e /cygdrive/c/altera/91/nios2eds/bin/nios2-gnutools/H-i686-pc-cygwin/bin/../lib/gcc/nios2-elf/3.4.6/../../../../nios2-elf/lib/libm.a(e_rem_pio2.o)
 .debug_line    0x000046d1      0x4ea /cygdrive/c/altera/91/nios2eds/bin/nios2-gnutools/H-i686-pc-cygwin/bin/../lib/gcc/nios2-elf/3.4.6/../../../../nios2-elf/lib/libm.a(e_sqrt.o)
 .debug_line    0x00004bbb      0x2c0 /cygdrive/c/altera/91/nios2eds/bin/nios2-gnutools/H-i686-pc-cygwin/bin/../lib/gcc/nios2-elf/3.4.6/../../../../nios2-elf/lib/libm.a(k_cos.o)
 .debug_line    0x00004e7b      0x7c1 /cygdrive/c/altera/91/nios2eds/bin/nios2-gnutools/H-i686-pc-cygwin/bin/../lib/gcc/nios2-elf/3.4.6/../../../../nios2-elf/lib/libm.a(k_rem_pio2.o)
 .debug_line    0x0000563c      0x27e /cygdrive/c/altera/91/nios2eds/bin/nios2-gnutools/H-i686-pc-cygwin/bin/../lib/gcc/nios2-elf/3.4.6/../../../../nios2-elf/lib/libm.a(k_sin.o)
 .debug_line    0x000058ba      0x1df /cygdrive/c/altera/91/nios2eds/bin/nios2-gnutools/H-i686-pc-cygwin/bin/../lib/gcc/nios2-elf/3.4.6/../../../../nios2-elf/lib/libm.a(s_fabs.o)
 .debug_line    0x00005a99      0x2f8 /cygdrive/c/altera/91/nios2eds/bin/nios2-gnutools/H-i686-pc-cygwin/bin/../lib/gcc/nios2-elf/3.4.6/../../../../nios2-elf/lib/libm.a(s_floor.o)
 .debug_line    0x00005d91      0x200 /cygdrive/c/altera/91/nios2eds/bin/nios2-gnutools/H-i686-pc-cygwin/bin/../lib/gcc/nios2-elf/3.4.6/../../../../nios2-elf/lib/libm.a(s_isnan.o)
 .debug_line    0x00005f91      0x1c0 /cygdrive/c/altera/91/nios2eds/bin/nios2-gnutools/H-i686-pc-cygwin/bin/../lib/gcc/nios2-elf/3.4.6/../../../../nios2-elf/lib/libm.a(s_lib_ver.o)
 .debug_line    0x00006151      0x1d2 /cygdrive/c/altera/91/nios2eds/bin/nios2-gnutools/H-i686-pc-cygwin/bin/../lib/gcc/nios2-elf/3.4.6/../../../../nios2-elf/lib/libm.a(s_matherr.o)
 .debug_line    0x00006323      0x2f7 /cygdrive/c/altera/91/nios2eds/bin/nios2-gnutools/H-i686-pc-cygwin/bin/../lib/gcc/nios2-elf/3.4.6/../../../../nios2-elf/lib/libm.a(s_scalbn.o)
 .debug_line    0x0000661a      0x1eb /cygdrive/c/altera/91/nios2eds/bin/nios2-gnutools/H-i686-pc-cygwin/bin/../lib/gcc/nios2-elf/3.4.6/../../../../nios2-elf/lib/libm.a(s_copysign.o)
 .debug_line    0x00006805      0x166 /cygdrive/c/altera/91/nios2eds/bin/nios2-gnutools/H-i686-pc-cygwin/bin/../lib/gcc/nios2-elf/3.4.6/libgcc.a(_fixunssfsi.o)
 .debug_line    0x0000696b      0x420 /cygdrive/c/altera/91/nios2eds/bin/nios2-gnutools/H-i686-pc-cygwin/bin/../lib/gcc/nios2-elf/3.4.6/libgcc.a(_addsub_sf.o)
 .debug_line    0x00006d8b      0x2c5 /cygdrive/c/altera/91/nios2eds/bin/nios2-gnutools/H-i686-pc-cygwin/bin/../lib/gcc/nios2-elf/3.4.6/libgcc.a(_mul_sf.o)
 .debug_line    0x00007050      0x26d /cygdrive/c/altera/91/nios2eds/bin/nios2-gnutools/H-i686-pc-cygwin/bin/../lib/gcc/nios2-elf/3.4.6/libgcc.a(_div_sf.o)
 .debug_line    0x000072bd      0x163 /cygdrive/c/altera/91/nios2eds/bin/nios2-gnutools/H-i686-pc-cygwin/bin/../lib/gcc/nios2-elf/3.4.6/libgcc.a(_eq_sf.o)
 .debug_line    0x00007420      0x163 /cygdrive/c/altera/91/nios2eds/bin/nios2-gnutools/H-i686-pc-cygwin/bin/../lib/gcc/nios2-elf/3.4.6/libgcc.a(_ne_sf.o)
 .debug_line    0x00007583      0x163 /cygdrive/c/altera/91/nios2eds/bin/nios2-gnutools/H-i686-pc-cygwin/bin/../lib/gcc/nios2-elf/3.4.6/libgcc.a(_gt_sf.o)
 .debug_line    0x000076e6      0x163 /cygdrive/c/altera/91/nios2eds/bin/nios2-gnutools/H-i686-pc-cygwin/bin/../lib/gcc/nios2-elf/3.4.6/libgcc.a(_ge_sf.o)
 .debug_line    0x00007849      0x163 /cygdrive/c/altera/91/nios2eds/bin/nios2-gnutools/H-i686-pc-cygwin/bin/../lib/gcc/nios2-elf/3.4.6/libgcc.a(_lt_sf.o)
 .debug_line    0x000079ac      0x163 /cygdrive/c/altera/91/nios2eds/bin/nios2-gnutools/H-i686-pc-cygwin/bin/../lib/gcc/nios2-elf/3.4.6/libgcc.a(_le_sf.o)
 .debug_line    0x00007b0f      0x153 /cygdrive/c/altera/91/nios2eds/bin/nios2-gnutools/H-i686-pc-cygwin/bin/../lib/gcc/nios2-elf/3.4.6/libgcc.a(_si_to_sf.o)
 .debug_line    0x00007c62      0x16f /cygdrive/c/altera/91/nios2eds/bin/nios2-gnutools/H-i686-pc-cygwin/bin/../lib/gcc/nios2-elf/3.4.6/libgcc.a(_sf_to_si.o)
 .debug_line    0x00007dd1       0xf9 /cygdrive/c/altera/91/nios2eds/bin/nios2-gnutools/H-i686-pc-cygwin/bin/../lib/gcc/nios2-elf/3.4.6/libgcc.a(_sf_to_df.o)
 .debug_line    0x00007eca       0xbc /cygdrive/c/altera/91/nios2eds/bin/nios2-gnutools/H-i686-pc-cygwin/bin/../lib/gcc/nios2-elf/3.4.6/libgcc.a(_thenan_sf.o)
 .debug_line    0x00007f86      0x4bd /cygdrive/c/altera/91/nios2eds/bin/nios2-gnutools/H-i686-pc-cygwin/bin/../lib/gcc/nios2-elf/3.4.6/libgcc.a(_addsub_df.o)
 .debug_line    0x00008443      0x483 /cygdrive/c/altera/91/nios2eds/bin/nios2-gnutools/H-i686-pc-cygwin/bin/../lib/gcc/nios2-elf/3.4.6/libgcc.a(_mul_df.o)
 .debug_line    0x000088c6      0x30f /cygdrive/c/altera/91/nios2eds/bin/nios2-gnutools/H-i686-pc-cygwin/bin/../lib/gcc/nios2-elf/3.4.6/libgcc.a(_div_df.o)
 .debug_line    0x00008bd5      0x173 /cygdrive/c/altera/91/nios2eds/bin/nios2-gnutools/H-i686-pc-cygwin/bin/../lib/gcc/nios2-elf/3.4.6/libgcc.a(_eq_df.o)
 .debug_line    0x00008d48      0x173 /cygdrive/c/altera/91/nios2eds/bin/nios2-gnutools/H-i686-pc-cygwin/bin/../lib/gcc/nios2-elf/3.4.6/libgcc.a(_ne_df.o)
 .debug_line    0x00008ebb      0x173 /cygdrive/c/altera/91/nios2eds/bin/nios2-gnutools/H-i686-pc-cygwin/bin/../lib/gcc/nios2-elf/3.4.6/libgcc.a(_gt_df.o)
 .debug_line    0x0000902e      0x173 /cygdrive/c/altera/91/nios2eds/bin/nios2-gnutools/H-i686-pc-cygwin/bin/../lib/gcc/nios2-elf/3.4.6/libgcc.a(_ge_df.o)
 .debug_line    0x000091a1      0x173 /cygdrive/c/altera/91/nios2eds/bin/nios2-gnutools/H-i686-pc-cygwin/bin/../lib/gcc/nios2-elf/3.4.6/libgcc.a(_lt_df.o)
 .debug_line    0x00009314      0x17b /cygdrive/c/altera/91/nios2eds/bin/nios2-gnutools/H-i686-pc-cygwin/bin/../lib/gcc/nios2-elf/3.4.6/libgcc.a(_si_to_df.o)
 .debug_line    0x0000948f      0x16f /cygdrive/c/altera/91/nios2eds/bin/nios2-gnutools/H-i686-pc-cygwin/bin/../lib/gcc/nios2-elf/3.4.6/libgcc.a(_df_to_si.o)
 .debug_line    0x000095fe      0x119 /cygdrive/c/altera/91/nios2eds/bin/nios2-gnutools/H-i686-pc-cygwin/bin/../lib/gcc/nios2-elf/3.4.6/libgcc.a(_make_df.o)
 .debug_line    0x00009717      0x151 /cygdrive/c/altera/91/nios2eds/bin/nios2-gnutools/H-i686-pc-cygwin/bin/../lib/gcc/nios2-elf/3.4.6/libgcc.a(_df_to_sf.o)
 .debug_line    0x00009868       0xbc /cygdrive/c/altera/91/nios2eds/bin/nios2-gnutools/H-i686-pc-cygwin/bin/../lib/gcc/nios2-elf/3.4.6/libgcc.a(_thenan_df.o)
 .debug_line    0x00009924      0x2bc /cygdrive/c/altera/91/nios2eds/bin/nios2-gnutools/H-i686-pc-cygwin/bin/../lib/gcc/nios2-elf/3.4.6/libgcc.a(lib2-divmod.o)
 .debug_line    0x00009be0      0x196 /cygdrive/c/altera/91/nios2eds/bin/nios2-gnutools/H-i686-pc-cygwin/bin/../lib/gcc/nios2-elf/3.4.6/libgcc.a(_muldi3.o)
 .debug_line    0x00009d76      0x12b /cygdrive/c/altera/91/nios2eds/bin/nios2-gnutools/H-i686-pc-cygwin/bin/../lib/gcc/nios2-elf/3.4.6/libgcc.a(_negdi2.o)
 .debug_line    0x00009ea1      0x190 /cygdrive/c/altera/91/nios2eds/bin/nios2-gnutools/H-i686-pc-cygwin/bin/../lib/gcc/nios2-elf/3.4.6/libgcc.a(_lshrdi3.o)
 .debug_line    0x0000a031      0x249 /cygdrive/c/altera/91/nios2eds/bin/nios2-gnutools/H-i686-pc-cygwin/bin/../lib/gcc/nios2-elf/3.4.6/libgcc.a(_pack_sf.o)
 .debug_line    0x0000a27a      0x1bb /cygdrive/c/altera/91/nios2eds/bin/nios2-gnutools/H-i686-pc-cygwin/bin/../lib/gcc/nios2-elf/3.4.6/libgcc.a(_unpack_sf.o)
 .debug_line    0x0000a435      0x1a3 /cygdrive/c/altera/91/nios2eds/bin/nios2-gnutools/H-i686-pc-cygwin/bin/../lib/gcc/nios2-elf/3.4.6/libgcc.a(_fpcmp_parts_sf.o)
 .debug_line    0x0000a5d8      0x109 /cygdrive/c/altera/91/nios2eds/bin/nios2-gnutools/H-i686-pc-cygwin/bin/../lib/gcc/nios2-elf/3.4.6/libgcc.a(_make_sf.o)
 .debug_line    0x0000a6e1      0x263 /cygdrive/c/altera/91/nios2eds/bin/nios2-gnutools/H-i686-pc-cygwin/bin/../lib/gcc/nios2-elf/3.4.6/libgcc.a(_pack_df.o)
 .debug_line    0x0000a944      0x239 /cygdrive/c/altera/91/nios2eds/bin/nios2-gnutools/H-i686-pc-cygwin/bin/../lib/gcc/nios2-elf/3.4.6/libgcc.a(_unpack_df.o)
 .debug_line    0x0000ab7d      0x1ab /cygdrive/c/altera/91/nios2eds/bin/nios2-gnutools/H-i686-pc-cygwin/bin/../lib/gcc/nios2-elf/3.4.6/libgcc.a(_fpcmp_parts_df.o)
 .debug_line    0x0000ad28      0x190 /cygdrive/c/altera/91/nios2eds/bin/nios2-gnutools/H-i686-pc-cygwin/bin/../lib/gcc/nios2-elf/3.4.6/libgcc.a(_ashldi3.o)
 .debug_line    0x0000aeb8      0x1cb /cygdrive/c/altera/91/nios2eds/bin/nios2-gnutools/H-i686-pc-cygwin/bin/../lib/gcc/nios2-elf/3.4.6/../../../../nios2-elf/lib/libc.a(calloc.o)
 .debug_line    0x0000b083      0x230 /cygdrive/c/altera/91/nios2eds/bin/nios2-gnutools/H-i686-pc-cygwin/bin/../lib/gcc/nios2-elf/3.4.6/../../../../nios2-elf/lib/libc.a(callocr.o)
 .debug_line    0x0000b2b3      0x1b3 /cygdrive/c/altera/91/nios2eds/bin/nios2-gnutools/H-i686-pc-cygwin/bin/../lib/gcc/nios2-elf/3.4.6/../../../../nios2-elf/lib/libc.a(errno.o)
 .debug_line    0x0000b466      0x30d /cygdrive/c/altera/91/nios2eds/bin/nios2-gnutools/H-i686-pc-cygwin/bin/../lib/gcc/nios2-elf/3.4.6/../../../../nios2-elf/lib/libc.a(fopen.o)
 .debug_line    0x0000b773      0x1ed /cygdrive/c/altera/91/nios2eds/bin/nios2-gnutools/H-i686-pc-cygwin/bin/../lib/gcc/nios2-elf/3.4.6/../../../../nios2-elf/lib/libc.a(fprintf.o)
 .debug_line    0x0000b960      0x5c3 /cygdrive/c/altera/91/nios2eds/bin/nios2-gnutools/H-i686-pc-cygwin/bin/../lib/gcc/nios2-elf/3.4.6/../../../../nios2-elf/lib/libc.a(fseek.o)
 .debug_line    0x0000bf23      0x213 /cygdrive/c/altera/91/nios2eds/bin/nios2-gnutools/H-i686-pc-cygwin/bin/../lib/gcc/nios2-elf/3.4.6/../../../../nios2-elf/lib/libc.a(fstatr.o)
 .debug_line    0x0000c136      0x1e8 /cygdrive/c/altera/91/nios2eds/bin/nios2-gnutools/H-i686-pc-cygwin/bin/../lib/gcc/nios2-elf/3.4.6/../../../../nios2-elf/lib/libc.a(impure.o)
 .debug_line    0x0000c31e      0x1a6 /cygdrive/c/altera/91/nios2eds/bin/nios2-gnutools/H-i686-pc-cygwin/bin/../lib/gcc/nios2-elf/3.4.6/../../../../nios2-elf/lib/libc.a(int_errno.o)
 .debug_line    0x0000c4c4      0x32a /cygdrive/c/altera/91/nios2eds/bin/nios2-gnutools/H-i686-pc-cygwin/bin/../lib/gcc/nios2-elf/3.4.6/../../../../nios2-elf/lib/libc.a(makebuf.o)
 .debug_line    0x0000c7ee      0x1f2 /cygdrive/c/altera/91/nios2eds/bin/nios2-gnutools/H-i686-pc-cygwin/bin/../lib/gcc/nios2-elf/3.4.6/../../../../nios2-elf/lib/libc.a(malloc.o)
 .debug_line    0x0000c9e0      0x75f /cygdrive/c/altera/91/nios2eds/bin/nios2-gnutools/H-i686-pc-cygwin/bin/../lib/gcc/nios2-elf/3.4.6/../../../../nios2-elf/lib/libc.a(mallocr.o)
 .debug_line    0x0000d13f      0x1e5 /cygdrive/c/altera/91/nios2eds/bin/nios2-gnutools/H-i686-pc-cygwin/bin/../lib/gcc/nios2-elf/3.4.6/../../../../nios2-elf/lib/libc.a(memcpy.o)
 .debug_line    0x0000d324      0x24b /cygdrive/c/altera/91/nios2eds/bin/nios2-gnutools/H-i686-pc-cygwin/bin/../lib/gcc/nios2-elf/3.4.6/../../../../nios2-elf/lib/libc.a(memset.o)
 .debug_line    0x0000d56f      0x221 /cygdrive/c/altera/91/nios2eds/bin/nios2-gnutools/H-i686-pc-cygwin/bin/../lib/gcc/nios2-elf/3.4.6/../../../../nios2-elf/lib/libc.a(openr.o)
 .debug_line    0x0000d790      0x1ec /cygdrive/c/altera/91/nios2eds/bin/nios2-gnutools/H-i686-pc-cygwin/bin/../lib/gcc/nios2-elf/3.4.6/../../../../nios2-elf/lib/libc.a(rand.o)
 .debug_line    0x0000d97c      0x38c /cygdrive/c/altera/91/nios2eds/bin/nios2-gnutools/H-i686-pc-cygwin/bin/../lib/gcc/nios2-elf/3.4.6/../../../../nios2-elf/lib/libc.a(refill.o)
 .debug_line    0x0000dd08      0x234 /cygdrive/c/altera/91/nios2eds/bin/nios2-gnutools/H-i686-pc-cygwin/bin/../lib/gcc/nios2-elf/3.4.6/../../../../nios2-elf/lib/libc.a(sbrkr.o)
 .debug_line    0x0000df3c      0x2c2 /cygdrive/c/altera/91/nios2eds/bin/nios2-gnutools/H-i686-pc-cygwin/bin/../lib/gcc/nios2-elf/3.4.6/../../../../nios2-elf/lib/libc.a(sprintf.o)
 .debug_line    0x0000e1fe      0x335 /cygdrive/c/altera/91/nios2eds/bin/nios2-gnutools/H-i686-pc-cygwin/bin/../lib/gcc/nios2-elf/3.4.6/../../../../nios2-elf/lib/libc.a(stdio.o)
 .debug_line    0x0000e533      0x1bb /cygdrive/c/altera/91/nios2eds/bin/nios2-gnutools/H-i686-pc-cygwin/bin/../lib/gcc/nios2-elf/3.4.6/../../../../nios2-elf/lib/libc.a(strlen.o)
 .debug_line    0x0000e6ee     0x11ad /cygdrive/c/altera/91/nios2eds/bin/nios2-gnutools/H-i686-pc-cygwin/bin/../lib/gcc/nios2-elf/3.4.6/../../../../nios2-elf/lib/libc.a(vfprintf1.o)
 .debug_line    0x0000f89b      0x26d /cygdrive/c/altera/91/nios2eds/bin/nios2-gnutools/H-i686-pc-cygwin/bin/../lib/gcc/nios2-elf/3.4.6/../../../../nios2-elf/lib/libc.a(wcrtomb.o)
 .debug_line    0x0000fb08      0x33b /cygdrive/c/altera/91/nios2eds/bin/nios2-gnutools/H-i686-pc-cygwin/bin/../lib/gcc/nios2-elf/3.4.6/../../../../nios2-elf/lib/libc.a(wcsrtombs.o)
 .debug_line    0x0000fe43      0x6af /cygdrive/c/altera/91/nios2eds/bin/nios2-gnutools/H-i686-pc-cygwin/bin/../lib/gcc/nios2-elf/3.4.6/../../../../nios2-elf/lib/libc.a(wctomb_r.o)
 .debug_line    0x000104f2      0x23d /cygdrive/c/altera/91/nios2eds/bin/nios2-gnutools/H-i686-pc-cygwin/bin/../lib/gcc/nios2-elf/3.4.6/../../../../nios2-elf/lib/libc.a(writer.o)
 .debug_line    0x0001072f      0x2d7 /cygdrive/c/altera/91/nios2eds/bin/nios2-gnutools/H-i686-pc-cygwin/bin/../lib/gcc/nios2-elf/3.4.6/../../../../nios2-elf/lib/libc.a(wsetup.o)
 .debug_line    0x00010a06      0x23d /cygdrive/c/altera/91/nios2eds/bin/nios2-gnutools/H-i686-pc-cygwin/bin/../lib/gcc/nios2-elf/3.4.6/../../../../nios2-elf/lib/libc.a(closer.o)
 .debug_line    0x00010c43     0x12d6 /cygdrive/c/altera/91/nios2eds/bin/nios2-gnutools/H-i686-pc-cygwin/bin/../lib/gcc/nios2-elf/3.4.6/../../../../nios2-elf/lib/libc.a(dtoa.o)
 .debug_line    0x00011f19      0x28b /cygdrive/c/altera/91/nios2eds/bin/nios2-gnutools/H-i686-pc-cygwin/bin/../lib/gcc/nios2-elf/3.4.6/../../../../nios2-elf/lib/libc.a(fflush.o)
 .debug_line    0x000121a4      0x339 /cygdrive/c/altera/91/nios2eds/bin/nios2-gnutools/H-i686-pc-cygwin/bin/../lib/gcc/nios2-elf/3.4.6/../../../../nios2-elf/lib/libc.a(findfp.o)
 .debug_line    0x000124dd      0x3b0 /cygdrive/c/altera/91/nios2eds/bin/nios2-gnutools/H-i686-pc-cygwin/bin/../lib/gcc/nios2-elf/3.4.6/../../../../nios2-elf/lib/libc.a(findfp1.o)
 .debug_line    0x0001288d      0x2c6 /cygdrive/c/altera/91/nios2eds/bin/nios2-gnutools/H-i686-pc-cygwin/bin/../lib/gcc/nios2-elf/3.4.6/../../../../nios2-elf/lib/libc.a(flags.o)
 .debug_line    0x00012b53      0x517 /cygdrive/c/altera/91/nios2eds/bin/nios2-gnutools/H-i686-pc-cygwin/bin/../lib/gcc/nios2-elf/3.4.6/../../../../nios2-elf/lib/libc.a(freer.o)
 .debug_line    0x0001306a      0x549 /cygdrive/c/altera/91/nios2eds/bin/nios2-gnutools/H-i686-pc-cygwin/bin/../lib/gcc/nios2-elf/3.4.6/../../../../nios2-elf/lib/libc.a(fvwrite.o)
 .debug_line    0x000135b3      0x29d /cygdrive/c/altera/91/nios2eds/bin/nios2-gnutools/H-i686-pc-cygwin/bin/../lib/gcc/nios2-elf/3.4.6/../../../../nios2-elf/lib/libc.a(fwalk.o)
 .debug_line    0x00013850      0x291 /cygdrive/c/altera/91/nios2eds/bin/nios2-gnutools/H-i686-pc-cygwin/bin/../lib/gcc/nios2-elf/3.4.6/../../../../nios2-elf/lib/libc.a(locale.o)
 .debug_line    0x00013ae1      0x23d /cygdrive/c/altera/91/nios2eds/bin/nios2-gnutools/H-i686-pc-cygwin/bin/../lib/gcc/nios2-elf/3.4.6/../../../../nios2-elf/lib/libc.a(lseekr.o)
 .debug_line    0x00013d1e      0x28f /cygdrive/c/altera/91/nios2eds/bin/nios2-gnutools/H-i686-pc-cygwin/bin/../lib/gcc/nios2-elf/3.4.6/../../../../nios2-elf/lib/libc.a(memchr.o)
 .debug_line    0x00013fad      0x2a0 /cygdrive/c/altera/91/nios2eds/bin/nios2-gnutools/H-i686-pc-cygwin/bin/../lib/gcc/nios2-elf/3.4.6/../../../../nios2-elf/lib/libc.a(memmove.o)
 .debug_line    0x0001424d     0x1138 /cygdrive/c/altera/91/nios2eds/bin/nios2-gnutools/H-i686-pc-cygwin/bin/../lib/gcc/nios2-elf/3.4.6/../../../../nios2-elf/lib/libc.a(mprec.o)
 .debug_line    0x00015385      0x23c /cygdrive/c/altera/91/nios2eds/bin/nios2-gnutools/H-i686-pc-cygwin/bin/../lib/gcc/nios2-elf/3.4.6/../../../../nios2-elf/lib/libc.a(readr.o)
 .debug_line    0x000155c1      0x52b /cygdrive/c/altera/91/nios2eds/bin/nios2-gnutools/H-i686-pc-cygwin/bin/../lib/gcc/nios2-elf/3.4.6/../../../../nios2-elf/lib/libc.a(reallocr.o)
 .debug_line    0x00015aec      0x208 /cygdrive/c/altera/91/nios2eds/bin/nios2-gnutools/H-i686-pc-cygwin/bin/../lib/gcc/nios2-elf/3.4.6/../../../../nios2-elf/lib/libc.a(s_isinf.o)
 .debug_line    0x00015cf4      0x1f5 /cygdrive/c/altera/91/nios2eds/bin/nios2-gnutools/H-i686-pc-cygwin/bin/../lib/gcc/nios2-elf/3.4.6/../../../../nios2-elf/lib/libc.a(strcmp.o)
 .debug_line    0x00015ee9      0x355 /cygdrive/c/altera/91/nios2eds/bin/nios2-gnutools/H-i686-pc-cygwin/bin/../lib/gcc/nios2-elf/3.4.6/libgcc.a(_udivdi3.o)
 .debug_line    0x0001623e      0x3f6 /cygdrive/c/altera/91/nios2eds/bin/nios2-gnutools/H-i686-pc-cygwin/bin/../lib/gcc/nios2-elf/3.4.6/libgcc.a(_umoddi3.o)
 .debug_line    0x00016634      0x109 /cygdrive/c/altera/91/nios2eds/bin/nios2-gnutools/H-i686-pc-cygwin/bin/../lib/gcc/nios2-elf/3.4.6/libgcc.a(_clz.o)
 .debug_line    0x0001673d      0x2df ../controller_sw_bsp/libhal_bsp.a(alt_close.o)
 .debug_line    0x00016a1c      0x2b8 ../controller_sw_bsp/libhal_bsp.a(alt_dev.o)
 .debug_line    0x00016cd4      0x1f0 ../controller_sw_bsp/libhal_bsp.a(alt_errno.o)
 .debug_line    0x00016ec4      0x308 ../controller_sw_bsp/libhal_bsp.a(alt_fstat.o)
 .debug_line    0x000171cc      0x359 ../controller_sw_bsp/libhal_bsp.a(alt_irq_register.o)
 .debug_line    0x00017525       0xc0 ../controller_sw_bsp/libhal_bsp.a(alt_irq_vars.o)
 .debug_line    0x000175e5      0x309 ../controller_sw_bsp/libhal_bsp.a(alt_isatty.o)
 .debug_line    0x000178ee      0x2e7 ../controller_sw_bsp/libhal_bsp.a(alt_lseek.o)
 .debug_line    0x00017bd5      0x333 ../controller_sw_bsp/libhal_bsp.a(alt_main.o)
 .debug_line    0x00017f08      0x272 ../controller_sw_bsp/libhal_bsp.a(alt_malloc_lock.o)
 .debug_line    0x0001817a      0x345 ../controller_sw_bsp/libhal_bsp.a(alt_open.o)
 .debug_line    0x000184bf      0x21f ../controller_sw_bsp/libhal_bsp.a(alt_printf.o)
 .debug_line    0x000186de      0x210 ../controller_sw_bsp/libhal_bsp.a(alt_putchar.o)
 .debug_line    0x000188ee      0x326 ../controller_sw_bsp/libhal_bsp.a(alt_read.o)
 .debug_line    0x00018c14      0x13b ../controller_sw_bsp/libhal_bsp.a(alt_release_fd.o)
 .debug_line    0x00018d4f      0x2ac ../controller_sw_bsp/libhal_bsp.a(alt_sbrk.o)
 .debug_line    0x00018ffb      0x265 ../controller_sw_bsp/libhal_bsp.a(alt_usleep.o)
 .debug_line    0x00019260      0x328 ../controller_sw_bsp/libhal_bsp.a(alt_write.o)
 .debug_line    0x00019588      0x3d6 ../controller_sw_bsp/libhal_bsp.a(alt_sys_init.o)
 .debug_line    0x0001995e      0x276 ../controller_sw_bsp/libhal_bsp.a(altera_avalon_jtag_uart_fd.o)
 .debug_line    0x00019bd4      0x52f ../controller_sw_bsp/libhal_bsp.a(altera_avalon_jtag_uart_init.o)
 .debug_line    0x0001a103      0x354 ../controller_sw_bsp/libhal_bsp.a(altera_avalon_jtag_uart_ioctl.o)
 .debug_line    0x0001a457      0x45f ../controller_sw_bsp/libhal_bsp.a(altera_avalon_jtag_uart_read.o)
 .debug_line    0x0001a8b6      0x46d ../controller_sw_bsp/libhal_bsp.a(altera_avalon_jtag_uart_write.o)
 .debug_line    0x0001ad23      0x926 ../controller_sw_bsp/libhal_bsp.a(altera_avalon_lcd_16207.o)
 .debug_line    0x0001b649      0x216 ../controller_sw_bsp/libhal_bsp.a(altera_avalon_lcd_16207_fd.o)
 .debug_line    0x0001b85f      0x301 ../controller_sw_bsp/libhal_bsp.a(altera_avalon_timer_sc.o)
 .debug_line    0x0001bb60      0xba5 ../controller_sw_bsp/libhal_bsp.a(altera_up_avalon_pixel_buffer.o)
 .debug_line    0x0001c705      0x31e ../controller_sw_bsp/libhal_bsp.a(alt_alarm_start.o)
 .debug_line    0x0001ca23      0x237 ../controller_sw_bsp/libhal_bsp.a(alt_busy_sleep.o)
 .debug_line    0x0001cc5a      0x2a0 ../controller_sw_bsp/libhal_bsp.a(alt_dev_llist_insert.o)
 .debug_line    0x0001cefa       0xd1 ../controller_sw_bsp/libhal_bsp.a(alt_do_ctors.o)
 .debug_line    0x0001cfcb       0xd1 ../controller_sw_bsp/libhal_bsp.a(alt_do_dtors.o)
 .debug_line    0x0001d09c      0x2a7 ../controller_sw_bsp/libhal_bsp.a(alt_find_dev.o)
 .debug_line    0x0001d343      0x2b8 ../controller_sw_bsp/libhal_bsp.a(alt_find_file.o)
 .debug_line    0x0001d5fb      0x2f7 ../controller_sw_bsp/libhal_bsp.a(alt_get_fd.o)
 .debug_line    0x0001d8f2      0x316 ../controller_sw_bsp/libhal_bsp.a(alt_io_redirect.o)
 .debug_line    0x0001dc08       0xb9 ../controller_sw_bsp/libhal_bsp.a(alt_irq_entry.o)
 .debug_line    0x0001dcc1      0x286 ../controller_sw_bsp/libhal_bsp.a(alt_irq_handler.o)
 .debug_line    0x0001df47      0x314 ../controller_sw_bsp/libhal_bsp.a(alt_tick.o)
 .debug_line    0x0001e25b      0x20f ../controller_sw_bsp/libhal_bsp.a(altera_nios2_irq.o)
 .debug_line    0x0001e46a       0xf9 ../controller_sw_bsp/libhal_bsp.a(alt_exception_entry.o)
 .debug_line    0x0001e563      0x260 /cygdrive/c/altera/91/nios2eds/bin/nios2-gnutools/H-i686-pc-cygwin/bin/../lib/gcc/nios2-elf/3.4.6/../../../../nios2-elf/lib/libc.a(atexit.o)
 .debug_line    0x0001e7c3       0x9d /cygdrive/c/altera/91/nios2eds/bin/nios2-gnutools/H-i686-pc-cygwin/bin/../lib/gcc/nios2-elf/3.4.6/../../../../nios2-elf/lib/libc.a(ctype_.o)
 .debug_line    0x0001e860      0x273 /cygdrive/c/altera/91/nios2eds/bin/nios2-gnutools/H-i686-pc-cygwin/bin/../lib/gcc/nios2-elf/3.4.6/../../../../nios2-elf/lib/libc.a(exit.o)
 .debug_line    0x0001ead3      0x20d /cygdrive/c/altera/91/nios2eds/bin/nios2-gnutools/H-i686-pc-cygwin/bin/../lib/gcc/nios2-elf/3.4.6/../../../../nios2-elf/lib/libc.a(memcmp.o)
 .debug_line    0x0001ece0      0x1fd /cygdrive/c/altera/91/nios2eds/bin/nios2-gnutools/H-i686-pc-cygwin/bin/../lib/gcc/nios2-elf/3.4.6/../../../../nios2-elf/lib/libc.a(putc.o)
 .debug_line    0x0001eedd      0x322 /cygdrive/c/altera/91/nios2eds/bin/nios2-gnutools/H-i686-pc-cygwin/bin/../lib/gcc/nios2-elf/3.4.6/../../../../nios2-elf/lib/libc.a(wbuf.o)
 .debug_line    0x0001f1ff      0x23a ../controller_sw_bsp/libhal_bsp.a(alt_exit.o)

.debug_frame    0x00000000     0x25f8
 *(.debug_frame)
 .debug_frame   0x00000000       0xe8 obj/collision_detection.o
 .debug_frame   0x000000e8      0x22c obj/draw.o
 .debug_frame   0x00000314       0xa0 obj/ethernet_isr.o
 .debug_frame   0x000003b4       0x4c obj/game_loop.o
 .debug_frame   0x00000400       0x30 obj/main.o
 .debug_frame   0x00000430      0x100 obj/ship.o
 .debug_frame   0x00000530       0x30 obj/util.o
 .debug_frame   0x00000560       0x28 /cygdrive/c/altera/91/nios2eds/bin/nios2-gnutools/H-i686-pc-cygwin/bin/../lib/gcc/nios2-elf/3.4.6/../../../../nios2-elf/lib/libm.a(s_cos.o)
 .debug_frame   0x00000588       0x28 /cygdrive/c/altera/91/nios2eds/bin/nios2-gnutools/H-i686-pc-cygwin/bin/../lib/gcc/nios2-elf/3.4.6/../../../../nios2-elf/lib/libm.a(s_sin.o)
 .debug_frame   0x000005b0       0x28 /cygdrive/c/altera/91/nios2eds/bin/nios2-gnutools/H-i686-pc-cygwin/bin/../lib/gcc/nios2-elf/3.4.6/../../../../nios2-elf/lib/libm.a(sf_round.o)
 .debug_frame   0x000005d8       0x30 /cygdrive/c/altera/91/nios2eds/bin/nios2-gnutools/H-i686-pc-cygwin/bin/../lib/gcc/nios2-elf/3.4.6/../../../../nios2-elf/lib/libm.a(w_sqrt.o)
 .debug_frame   0x00000608       0x3c /cygdrive/c/altera/91/nios2eds/bin/nios2-gnutools/H-i686-pc-cygwin/bin/../lib/gcc/nios2-elf/3.4.6/../../../../nios2-elf/lib/libm.a(e_rem_pio2.o)
 .debug_frame   0x00000644       0x38 /cygdrive/c/altera/91/nios2eds/bin/nios2-gnutools/H-i686-pc-cygwin/bin/../lib/gcc/nios2-elf/3.4.6/../../../../nios2-elf/lib/libm.a(e_sqrt.o)
 .debug_frame   0x0000067c       0x3c /cygdrive/c/altera/91/nios2eds/bin/nios2-gnutools/H-i686-pc-cygwin/bin/../lib/gcc/nios2-elf/3.4.6/../../../../nios2-elf/lib/libm.a(k_cos.o)
 .debug_frame   0x000006b8       0x3c /cygdrive/c/altera/91/nios2eds/bin/nios2-gnutools/H-i686-pc-cygwin/bin/../lib/gcc/nios2-elf/3.4.6/../../../../nios2-elf/lib/libm.a(k_rem_pio2.o)
 .debug_frame   0x000006f4       0x38 /cygdrive/c/altera/91/nios2eds/bin/nios2-gnutools/H-i686-pc-cygwin/bin/../lib/gcc/nios2-elf/3.4.6/../../../../nios2-elf/lib/libm.a(k_sin.o)
 .debug_frame   0x0000072c       0x20 /cygdrive/c/altera/91/nios2eds/bin/nios2-gnutools/H-i686-pc-cygwin/bin/../lib/gcc/nios2-elf/3.4.6/../../../../nios2-elf/lib/libm.a(s_fabs.o)
 .debug_frame   0x0000074c       0x34 /cygdrive/c/altera/91/nios2eds/bin/nios2-gnutools/H-i686-pc-cygwin/bin/../lib/gcc/nios2-elf/3.4.6/../../../../nios2-elf/lib/libm.a(s_floor.o)
 .debug_frame   0x00000780       0x20 /cygdrive/c/altera/91/nios2eds/bin/nios2-gnutools/H-i686-pc-cygwin/bin/../lib/gcc/nios2-elf/3.4.6/../../../../nios2-elf/lib/libm.a(s_isnan.o)
 .debug_frame   0x000007a0       0x20 /cygdrive/c/altera/91/nios2eds/bin/nios2-gnutools/H-i686-pc-cygwin/bin/../lib/gcc/nios2-elf/3.4.6/../../../../nios2-elf/lib/libm.a(s_matherr.o)
 .debug_frame   0x000007c0       0x2c /cygdrive/c/altera/91/nios2eds/bin/nios2-gnutools/H-i686-pc-cygwin/bin/../lib/gcc/nios2-elf/3.4.6/../../../../nios2-elf/lib/libm.a(s_scalbn.o)
 .debug_frame   0x000007ec       0x20 /cygdrive/c/altera/91/nios2eds/bin/nios2-gnutools/H-i686-pc-cygwin/bin/../lib/gcc/nios2-elf/3.4.6/../../../../nios2-elf/lib/libm.a(s_copysign.o)
 .debug_frame   0x0000080c       0x28 /cygdrive/c/altera/91/nios2eds/bin/nios2-gnutools/H-i686-pc-cygwin/bin/../lib/gcc/nios2-elf/3.4.6/libgcc.a(_fixunssfsi.o)
 .debug_frame   0x00000834       0x58 /cygdrive/c/altera/91/nios2eds/bin/nios2-gnutools/H-i686-pc-cygwin/bin/../lib/gcc/nios2-elf/3.4.6/libgcc.a(_addsub_sf.o)
 .debug_frame   0x0000088c       0x2c /cygdrive/c/altera/91/nios2eds/bin/nios2-gnutools/H-i686-pc-cygwin/bin/../lib/gcc/nios2-elf/3.4.6/libgcc.a(_mul_sf.o)
 .debug_frame   0x000008b8       0x2c /cygdrive/c/altera/91/nios2eds/bin/nios2-gnutools/H-i686-pc-cygwin/bin/../lib/gcc/nios2-elf/3.4.6/libgcc.a(_div_sf.o)
 .debug_frame   0x000008e4       0x2c /cygdrive/c/altera/91/nios2eds/bin/nios2-gnutools/H-i686-pc-cygwin/bin/../lib/gcc/nios2-elf/3.4.6/libgcc.a(_eq_sf.o)
 .debug_frame   0x00000910       0x2c /cygdrive/c/altera/91/nios2eds/bin/nios2-gnutools/H-i686-pc-cygwin/bin/../lib/gcc/nios2-elf/3.4.6/libgcc.a(_ne_sf.o)
 .debug_frame   0x0000093c       0x2c /cygdrive/c/altera/91/nios2eds/bin/nios2-gnutools/H-i686-pc-cygwin/bin/../lib/gcc/nios2-elf/3.4.6/libgcc.a(_gt_sf.o)
 .debug_frame   0x00000968       0x2c /cygdrive/c/altera/91/nios2eds/bin/nios2-gnutools/H-i686-pc-cygwin/bin/../lib/gcc/nios2-elf/3.4.6/libgcc.a(_ge_sf.o)
 .debug_frame   0x00000994       0x2c /cygdrive/c/altera/91/nios2eds/bin/nios2-gnutools/H-i686-pc-cygwin/bin/../lib/gcc/nios2-elf/3.4.6/libgcc.a(_lt_sf.o)
 .debug_frame   0x000009c0       0x2c /cygdrive/c/altera/91/nios2eds/bin/nios2-gnutools/H-i686-pc-cygwin/bin/../lib/gcc/nios2-elf/3.4.6/libgcc.a(_le_sf.o)
 .debug_frame   0x000009ec       0x28 /cygdrive/c/altera/91/nios2eds/bin/nios2-gnutools/H-i686-pc-cygwin/bin/../lib/gcc/nios2-elf/3.4.6/libgcc.a(_si_to_sf.o)
 .debug_frame   0x00000a14       0x28 /cygdrive/c/altera/91/nios2eds/bin/nios2-gnutools/H-i686-pc-cygwin/bin/../lib/gcc/nios2-elf/3.4.6/libgcc.a(_sf_to_si.o)
 .debug_frame   0x00000a3c       0x28 /cygdrive/c/altera/91/nios2eds/bin/nios2-gnutools/H-i686-pc-cygwin/bin/../lib/gcc/nios2-elf/3.4.6/libgcc.a(_sf_to_df.o)
 .debug_frame   0x00000a64       0x64 /cygdrive/c/altera/91/nios2eds/bin/nios2-gnutools/H-i686-pc-cygwin/bin/../lib/gcc/nios2-elf/3.4.6/libgcc.a(_addsub_df.o)
 .debug_frame   0x00000ac8       0x38 /cygdrive/c/altera/91/nios2eds/bin/nios2-gnutools/H-i686-pc-cygwin/bin/../lib/gcc/nios2-elf/3.4.6/libgcc.a(_mul_df.o)
 .debug_frame   0x00000b00       0x38 /cygdrive/c/altera/91/nios2eds/bin/nios2-gnutools/H-i686-pc-cygwin/bin/../lib/gcc/nios2-elf/3.4.6/libgcc.a(_div_df.o)
 .debug_frame   0x00000b38       0x2c /cygdrive/c/altera/91/nios2eds/bin/nios2-gnutools/H-i686-pc-cygwin/bin/../lib/gcc/nios2-elf/3.4.6/libgcc.a(_eq_df.o)
 .debug_frame   0x00000b64       0x2c /cygdrive/c/altera/91/nios2eds/bin/nios2-gnutools/H-i686-pc-cygwin/bin/../lib/gcc/nios2-elf/3.4.6/libgcc.a(_ne_df.o)
 .debug_frame   0x00000b90       0x2c /cygdrive/c/altera/91/nios2eds/bin/nios2-gnutools/H-i686-pc-cygwin/bin/../lib/gcc/nios2-elf/3.4.6/libgcc.a(_gt_df.o)
 .debug_frame   0x00000bbc       0x2c /cygdrive/c/altera/91/nios2eds/bin/nios2-gnutools/H-i686-pc-cygwin/bin/../lib/gcc/nios2-elf/3.4.6/libgcc.a(_ge_df.o)
 .debug_frame   0x00000be8       0x2c /cygdrive/c/altera/91/nios2eds/bin/nios2-gnutools/H-i686-pc-cygwin/bin/../lib/gcc/nios2-elf/3.4.6/libgcc.a(_lt_df.o)
 .debug_frame   0x00000c14       0x28 /cygdrive/c/altera/91/nios2eds/bin/nios2-gnutools/H-i686-pc-cygwin/bin/../lib/gcc/nios2-elf/3.4.6/libgcc.a(_si_to_df.o)
 .debug_frame   0x00000c3c       0x28 /cygdrive/c/altera/91/nios2eds/bin/nios2-gnutools/H-i686-pc-cygwin/bin/../lib/gcc/nios2-elf/3.4.6/libgcc.a(_df_to_si.o)
 .debug_frame   0x00000c64       0x28 /cygdrive/c/altera/91/nios2eds/bin/nios2-gnutools/H-i686-pc-cygwin/bin/../lib/gcc/nios2-elf/3.4.6/libgcc.a(_make_df.o)
 .debug_frame   0x00000c8c       0x28 /cygdrive/c/altera/91/nios2eds/bin/nios2-gnutools/H-i686-pc-cygwin/bin/../lib/gcc/nios2-elf/3.4.6/libgcc.a(_df_to_sf.o)
 .debug_frame   0x00000cb4       0x70 /cygdrive/c/altera/91/nios2eds/bin/nios2-gnutools/H-i686-pc-cygwin/bin/../lib/gcc/nios2-elf/3.4.6/libgcc.a(lib2-divmod.o)
 .debug_frame   0x00000d24       0x28 /cygdrive/c/altera/91/nios2eds/bin/nios2-gnutools/H-i686-pc-cygwin/bin/../lib/gcc/nios2-elf/3.4.6/libgcc.a(_muldi3.o)
 .debug_frame   0x00000d4c       0x20 /cygdrive/c/altera/91/nios2eds/bin/nios2-gnutools/H-i686-pc-cygwin/bin/../lib/gcc/nios2-elf/3.4.6/libgcc.a(_negdi2.o)
 .debug_frame   0x00000d6c       0x20 /cygdrive/c/altera/91/nios2eds/bin/nios2-gnutools/H-i686-pc-cygwin/bin/../lib/gcc/nios2-elf/3.4.6/libgcc.a(_lshrdi3.o)
 .debug_frame   0x00000d8c       0x20 /cygdrive/c/altera/91/nios2eds/bin/nios2-gnutools/H-i686-pc-cygwin/bin/../lib/gcc/nios2-elf/3.4.6/libgcc.a(_pack_sf.o)
 .debug_frame   0x00000dac       0x20 /cygdrive/c/altera/91/nios2eds/bin/nios2-gnutools/H-i686-pc-cygwin/bin/../lib/gcc/nios2-elf/3.4.6/libgcc.a(_unpack_sf.o)
 .debug_frame   0x00000dcc       0x20 /cygdrive/c/altera/91/nios2eds/bin/nios2-gnutools/H-i686-pc-cygwin/bin/../lib/gcc/nios2-elf/3.4.6/libgcc.a(_fpcmp_parts_sf.o)
 .debug_frame   0x00000dec       0x28 /cygdrive/c/altera/91/nios2eds/bin/nios2-gnutools/H-i686-pc-cygwin/bin/../lib/gcc/nios2-elf/3.4.6/libgcc.a(_make_sf.o)
 .debug_frame   0x00000e14       0x38 /cygdrive/c/altera/91/nios2eds/bin/nios2-gnutools/H-i686-pc-cygwin/bin/../lib/gcc/nios2-elf/3.4.6/libgcc.a(_pack_df.o)
 .debug_frame   0x00000e4c       0x20 /cygdrive/c/altera/91/nios2eds/bin/nios2-gnutools/H-i686-pc-cygwin/bin/../lib/gcc/nios2-elf/3.4.6/libgcc.a(_unpack_df.o)
 .debug_frame   0x00000e6c       0x20 /cygdrive/c/altera/91/nios2eds/bin/nios2-gnutools/H-i686-pc-cygwin/bin/../lib/gcc/nios2-elf/3.4.6/libgcc.a(_fpcmp_parts_df.o)
 .debug_frame   0x00000e8c       0x20 /cygdrive/c/altera/91/nios2eds/bin/nios2-gnutools/H-i686-pc-cygwin/bin/../lib/gcc/nios2-elf/3.4.6/libgcc.a(_ashldi3.o)
 .debug_frame   0x00000eac       0x20 /cygdrive/c/altera/91/nios2eds/bin/nios2-gnutools/H-i686-pc-cygwin/bin/../lib/gcc/nios2-elf/3.4.6/../../../../nios2-elf/lib/libc.a(calloc.o)
 .debug_frame   0x00000ecc       0x28 /cygdrive/c/altera/91/nios2eds/bin/nios2-gnutools/H-i686-pc-cygwin/bin/../lib/gcc/nios2-elf/3.4.6/../../../../nios2-elf/lib/libc.a(callocr.o)
 .debug_frame   0x00000ef4       0x20 /cygdrive/c/altera/91/nios2eds/bin/nios2-gnutools/H-i686-pc-cygwin/bin/../lib/gcc/nios2-elf/3.4.6/../../../../nios2-elf/lib/libc.a(errno.o)
 .debug_frame   0x00000f14       0x40 /cygdrive/c/altera/91/nios2eds/bin/nios2-gnutools/H-i686-pc-cygwin/bin/../lib/gcc/nios2-elf/3.4.6/../../../../nios2-elf/lib/libc.a(fopen.o)
 .debug_frame   0x00000f54       0x28 /cygdrive/c/altera/91/nios2eds/bin/nios2-gnutools/H-i686-pc-cygwin/bin/../lib/gcc/nios2-elf/3.4.6/../../../../nios2-elf/lib/libc.a(fprintf.o)
 .debug_frame   0x00000f7c       0x48 /cygdrive/c/altera/91/nios2eds/bin/nios2-gnutools/H-i686-pc-cygwin/bin/../lib/gcc/nios2-elf/3.4.6/../../../../nios2-elf/lib/libc.a(fseek.o)
 .debug_frame   0x00000fc4       0x2c /cygdrive/c/altera/91/nios2eds/bin/nios2-gnutools/H-i686-pc-cygwin/bin/../lib/gcc/nios2-elf/3.4.6/../../../../nios2-elf/lib/libc.a(fstatr.o)
 .debug_frame   0x00000ff0       0x2c /cygdrive/c/altera/91/nios2eds/bin/nios2-gnutools/H-i686-pc-cygwin/bin/../lib/gcc/nios2-elf/3.4.6/../../../../nios2-elf/lib/libc.a(makebuf.o)
 .debug_frame   0x0000101c       0x30 /cygdrive/c/altera/91/nios2eds/bin/nios2-gnutools/H-i686-pc-cygwin/bin/../lib/gcc/nios2-elf/3.4.6/../../../../nios2-elf/lib/libc.a(malloc.o)
 .debug_frame   0x0000104c       0x38 /cygdrive/c/altera/91/nios2eds/bin/nios2-gnutools/H-i686-pc-cygwin/bin/../lib/gcc/nios2-elf/3.4.6/../../../../nios2-elf/lib/libc.a(mallocr.o)
 .debug_frame   0x00001084       0x20 /cygdrive/c/altera/91/nios2eds/bin/nios2-gnutools/H-i686-pc-cygwin/bin/../lib/gcc/nios2-elf/3.4.6/../../../../nios2-elf/lib/libc.a(memcpy.o)
 .debug_frame   0x000010a4       0x20 /cygdrive/c/altera/91/nios2eds/bin/nios2-gnutools/H-i686-pc-cygwin/bin/../lib/gcc/nios2-elf/3.4.6/../../../../nios2-elf/lib/libc.a(memset.o)
 .debug_frame   0x000010c4       0x2c /cygdrive/c/altera/91/nios2eds/bin/nios2-gnutools/H-i686-pc-cygwin/bin/../lib/gcc/nios2-elf/3.4.6/../../../../nios2-elf/lib/libc.a(openr.o)
 .debug_frame   0x000010f0       0x3c /cygdrive/c/altera/91/nios2eds/bin/nios2-gnutools/H-i686-pc-cygwin/bin/../lib/gcc/nios2-elf/3.4.6/../../../../nios2-elf/lib/libc.a(rand.o)
 .debug_frame   0x0000112c       0x38 /cygdrive/c/altera/91/nios2eds/bin/nios2-gnutools/H-i686-pc-cygwin/bin/../lib/gcc/nios2-elf/3.4.6/../../../../nios2-elf/lib/libc.a(refill.o)
 .debug_frame   0x00001164       0x2c /cygdrive/c/altera/91/nios2eds/bin/nios2-gnutools/H-i686-pc-cygwin/bin/../lib/gcc/nios2-elf/3.4.6/../../../../nios2-elf/lib/libc.a(sbrkr.o)
 .debug_frame   0x00001190       0x40 /cygdrive/c/altera/91/nios2eds/bin/nios2-gnutools/H-i686-pc-cygwin/bin/../lib/gcc/nios2-elf/3.4.6/../../../../nios2-elf/lib/libc.a(sprintf.o)
 .debug_frame   0x000011d0       0x6c /cygdrive/c/altera/91/nios2eds/bin/nios2-gnutools/H-i686-pc-cygwin/bin/../lib/gcc/nios2-elf/3.4.6/../../../../nios2-elf/lib/libc.a(stdio.o)
 .debug_frame   0x0000123c       0x20 /cygdrive/c/altera/91/nios2eds/bin/nios2-gnutools/H-i686-pc-cygwin/bin/../lib/gcc/nios2-elf/3.4.6/../../../../nios2-elf/lib/libc.a(strlen.o)
 .debug_frame   0x0000125c       0x70 /cygdrive/c/altera/91/nios2eds/bin/nios2-gnutools/H-i686-pc-cygwin/bin/../lib/gcc/nios2-elf/3.4.6/../../../../nios2-elf/lib/libc.a(vfprintf1.o)
 .debug_frame   0x000012cc       0x3c /cygdrive/c/altera/91/nios2eds/bin/nios2-gnutools/H-i686-pc-cygwin/bin/../lib/gcc/nios2-elf/3.4.6/../../../../nios2-elf/lib/libc.a(wcrtomb.o)
 .debug_frame   0x00001308       0x50 /cygdrive/c/altera/91/nios2eds/bin/nios2-gnutools/H-i686-pc-cygwin/bin/../lib/gcc/nios2-elf/3.4.6/../../../../nios2-elf/lib/libc.a(wcsrtombs.o)
 .debug_frame   0x00001358       0x30 /cygdrive/c/altera/91/nios2eds/bin/nios2-gnutools/H-i686-pc-cygwin/bin/../lib/gcc/nios2-elf/3.4.6/../../../../nios2-elf/lib/libc.a(wctomb_r.o)
 .debug_frame   0x00001388       0x2c /cygdrive/c/altera/91/nios2eds/bin/nios2-gnutools/H-i686-pc-cygwin/bin/../lib/gcc/nios2-elf/3.4.6/../../../../nios2-elf/lib/libc.a(writer.o)
 .debug_frame   0x000013b4       0x28 /cygdrive/c/altera/91/nios2eds/bin/nios2-gnutools/H-i686-pc-cygwin/bin/../lib/gcc/nios2-elf/3.4.6/../../../../nios2-elf/lib/libc.a(wsetup.o)
 .debug_frame   0x000013dc       0x2c /cygdrive/c/altera/91/nios2eds/bin/nios2-gnutools/H-i686-pc-cygwin/bin/../lib/gcc/nios2-elf/3.4.6/../../../../nios2-elf/lib/libc.a(closer.o)
 .debug_frame   0x00001408       0x64 /cygdrive/c/altera/91/nios2eds/bin/nios2-gnutools/H-i686-pc-cygwin/bin/../lib/gcc/nios2-elf/3.4.6/../../../../nios2-elf/lib/libc.a(dtoa.o)
 .debug_frame   0x0000146c       0x2c /cygdrive/c/altera/91/nios2eds/bin/nios2-gnutools/H-i686-pc-cygwin/bin/../lib/gcc/nios2-elf/3.4.6/../../../../nios2-elf/lib/libc.a(fflush.o)
 .debug_frame   0x00001498       0x5c /cygdrive/c/altera/91/nios2eds/bin/nios2-gnutools/H-i686-pc-cygwin/bin/../lib/gcc/nios2-elf/3.4.6/../../../../nios2-elf/lib/libc.a(findfp.o)
 .debug_frame   0x000014f4       0x4c /cygdrive/c/altera/91/nios2eds/bin/nios2-gnutools/H-i686-pc-cygwin/bin/../lib/gcc/nios2-elf/3.4.6/../../../../nios2-elf/lib/libc.a(findfp1.o)
 .debug_frame   0x00001540       0x20 /cygdrive/c/altera/91/nios2eds/bin/nios2-gnutools/H-i686-pc-cygwin/bin/../lib/gcc/nios2-elf/3.4.6/../../../../nios2-elf/lib/libc.a(flags.o)
 .debug_frame   0x00001560       0x4c /cygdrive/c/altera/91/nios2eds/bin/nios2-gnutools/H-i686-pc-cygwin/bin/../lib/gcc/nios2-elf/3.4.6/../../../../nios2-elf/lib/libc.a(freer.o)
 .debug_frame   0x000015ac       0x38 /cygdrive/c/altera/91/nios2eds/bin/nios2-gnutools/H-i686-pc-cygwin/bin/../lib/gcc/nios2-elf/3.4.6/../../../../nios2-elf/lib/libc.a(fvwrite.o)
 .debug_frame   0x000015e4       0x30 /cygdrive/c/altera/91/nios2eds/bin/nios2-gnutools/H-i686-pc-cygwin/bin/../lib/gcc/nios2-elf/3.4.6/../../../../nios2-elf/lib/libc.a(fwalk.o)
 .debug_frame   0x00001614       0x70 /cygdrive/c/altera/91/nios2eds/bin/nios2-gnutools/H-i686-pc-cygwin/bin/../lib/gcc/nios2-elf/3.4.6/../../../../nios2-elf/lib/libc.a(locale.o)
 .debug_frame   0x00001684       0x2c /cygdrive/c/altera/91/nios2eds/bin/nios2-gnutools/H-i686-pc-cygwin/bin/../lib/gcc/nios2-elf/3.4.6/../../../../nios2-elf/lib/libc.a(lseekr.o)
 .debug_frame   0x000016b0       0x20 /cygdrive/c/altera/91/nios2eds/bin/nios2-gnutools/H-i686-pc-cygwin/bin/../lib/gcc/nios2-elf/3.4.6/../../../../nios2-elf/lib/libc.a(memchr.o)
 .debug_frame   0x000016d0       0x20 /cygdrive/c/altera/91/nios2eds/bin/nios2-gnutools/H-i686-pc-cygwin/bin/../lib/gcc/nios2-elf/3.4.6/../../../../nios2-elf/lib/libc.a(memmove.o)
 .debug_frame   0x000016f0      0x1ec /cygdrive/c/altera/91/nios2eds/bin/nios2-gnutools/H-i686-pc-cygwin/bin/../lib/gcc/nios2-elf/3.4.6/../../../../nios2-elf/lib/libc.a(mprec.o)
 .debug_frame   0x000018dc       0x2c /cygdrive/c/altera/91/nios2eds/bin/nios2-gnutools/H-i686-pc-cygwin/bin/../lib/gcc/nios2-elf/3.4.6/../../../../nios2-elf/lib/libc.a(readr.o)
 .debug_frame   0x00001908       0x38 /cygdrive/c/altera/91/nios2eds/bin/nios2-gnutools/H-i686-pc-cygwin/bin/../lib/gcc/nios2-elf/3.4.6/../../../../nios2-elf/lib/libc.a(reallocr.o)
 .debug_frame   0x00001940       0x20 /cygdrive/c/altera/91/nios2eds/bin/nios2-gnutools/H-i686-pc-cygwin/bin/../lib/gcc/nios2-elf/3.4.6/../../../../nios2-elf/lib/libc.a(s_isinf.o)
 .debug_frame   0x00001960       0x20 /cygdrive/c/altera/91/nios2eds/bin/nios2-gnutools/H-i686-pc-cygwin/bin/../lib/gcc/nios2-elf/3.4.6/../../../../nios2-elf/lib/libc.a(strcmp.o)
 .debug_frame   0x00001980       0x38 /cygdrive/c/altera/91/nios2eds/bin/nios2-gnutools/H-i686-pc-cygwin/bin/../lib/gcc/nios2-elf/3.4.6/libgcc.a(_udivdi3.o)
 .debug_frame   0x000019b8       0x38 /cygdrive/c/altera/91/nios2eds/bin/nios2-gnutools/H-i686-pc-cygwin/bin/../lib/gcc/nios2-elf/3.4.6/libgcc.a(_umoddi3.o)
 .debug_frame   0x000019f0       0x48 ../controller_sw_bsp/libhal_bsp.a(alt_close.o)
 .debug_frame   0x00001a38       0x2c ../controller_sw_bsp/libhal_bsp.a(alt_dev.o)
 .debug_frame   0x00001a64       0x48 ../controller_sw_bsp/libhal_bsp.a(alt_fstat.o)
 .debug_frame   0x00001aac       0x2c ../controller_sw_bsp/libhal_bsp.a(alt_irq_register.o)
 .debug_frame   0x00001ad8       0x48 ../controller_sw_bsp/libhal_bsp.a(alt_isatty.o)
 .debug_frame   0x00001b20       0x48 ../controller_sw_bsp/libhal_bsp.a(alt_lseek.o)
 .debug_frame   0x00001b68       0x2c ../controller_sw_bsp/libhal_bsp.a(alt_main.o)
 .debug_frame   0x00001b94       0x48 ../controller_sw_bsp/libhal_bsp.a(alt_malloc_lock.o)
 .debug_frame   0x00001bdc       0x64 ../controller_sw_bsp/libhal_bsp.a(alt_open.o)
 .debug_frame   0x00001c40       0x2c ../controller_sw_bsp/libhal_bsp.a(alt_printf.o)
 .debug_frame   0x00001c6c       0x2c ../controller_sw_bsp/libhal_bsp.a(alt_putchar.o)
 .debug_frame   0x00001c98       0x48 ../controller_sw_bsp/libhal_bsp.a(alt_read.o)
 .debug_frame   0x00001ce0       0x2c ../controller_sw_bsp/libhal_bsp.a(alt_release_fd.o)
 .debug_frame   0x00001d0c       0x2c ../controller_sw_bsp/libhal_bsp.a(alt_sbrk.o)
 .debug_frame   0x00001d38       0x2c ../controller_sw_bsp/libhal_bsp.a(alt_usleep.o)
 .debug_frame   0x00001d64       0x48 ../controller_sw_bsp/libhal_bsp.a(alt_write.o)
 .debug_frame   0x00001dac       0x64 ../controller_sw_bsp/libhal_bsp.a(alt_sys_init.o)
 .debug_frame   0x00001e10       0x80 ../controller_sw_bsp/libhal_bsp.a(altera_avalon_jtag_uart_fd.o)
 .debug_frame   0x00001e90       0x80 ../controller_sw_bsp/libhal_bsp.a(altera_avalon_jtag_uart_init.o)
 .debug_frame   0x00001f10       0x2c ../controller_sw_bsp/libhal_bsp.a(altera_avalon_jtag_uart_ioctl.o)
 .debug_frame   0x00001f3c       0x2c ../controller_sw_bsp/libhal_bsp.a(altera_avalon_jtag_uart_read.o)
 .debug_frame   0x00001f68       0x2c ../controller_sw_bsp/libhal_bsp.a(altera_avalon_jtag_uart_write.o)
 .debug_frame   0x00001f94      0x118 ../controller_sw_bsp/libhal_bsp.a(altera_avalon_lcd_16207.o)
 .debug_frame   0x000020ac       0x2c ../controller_sw_bsp/libhal_bsp.a(altera_avalon_lcd_16207_fd.o)
 .debug_frame   0x000020d8       0x48 ../controller_sw_bsp/libhal_bsp.a(altera_avalon_timer_sc.o)
 .debug_frame   0x00002120      0x160 ../controller_sw_bsp/libhal_bsp.a(altera_up_avalon_pixel_buffer.o)
 .debug_frame   0x00002280       0x2c ../controller_sw_bsp/libhal_bsp.a(alt_alarm_start.o)
 .debug_frame   0x000022ac       0x2c ../controller_sw_bsp/libhal_bsp.a(alt_busy_sleep.o)
 .debug_frame   0x000022d8       0x48 ../controller_sw_bsp/libhal_bsp.a(alt_dev_llist_insert.o)
 .debug_frame   0x00002320       0x2c ../controller_sw_bsp/libhal_bsp.a(alt_do_ctors.o)
 .debug_frame   0x0000234c       0x2c ../controller_sw_bsp/libhal_bsp.a(alt_do_dtors.o)
 .debug_frame   0x00002378       0x2c ../controller_sw_bsp/libhal_bsp.a(alt_find_dev.o)
 .debug_frame   0x000023a4       0x2c ../controller_sw_bsp/libhal_bsp.a(alt_find_file.o)
 .debug_frame   0x000023d0       0x2c ../controller_sw_bsp/libhal_bsp.a(alt_get_fd.o)
 .debug_frame   0x000023fc       0x48 ../controller_sw_bsp/libhal_bsp.a(alt_io_redirect.o)
 .debug_frame   0x00002444       0x2c ../controller_sw_bsp/libhal_bsp.a(alt_irq_handler.o)
 .debug_frame   0x00002470       0x48 ../controller_sw_bsp/libhal_bsp.a(alt_tick.o)
 .debug_frame   0x000024b8       0x2c ../controller_sw_bsp/libhal_bsp.a(altera_nios2_irq.o)
 .debug_frame   0x000024e4       0x28 /cygdrive/c/altera/91/nios2eds/bin/nios2-gnutools/H-i686-pc-cygwin/bin/../lib/gcc/nios2-elf/3.4.6/../../../../nios2-elf/lib/libc.a(atexit.o)
 .debug_frame   0x0000250c       0x34 /cygdrive/c/altera/91/nios2eds/bin/nios2-gnutools/H-i686-pc-cygwin/bin/../lib/gcc/nios2-elf/3.4.6/../../../../nios2-elf/lib/libc.a(exit.o)
 .debug_frame   0x00002540       0x20 /cygdrive/c/altera/91/nios2eds/bin/nios2-gnutools/H-i686-pc-cygwin/bin/../lib/gcc/nios2-elf/3.4.6/../../../../nios2-elf/lib/libc.a(memcmp.o)
 .debug_frame   0x00002560       0x28 /cygdrive/c/altera/91/nios2eds/bin/nios2-gnutools/H-i686-pc-cygwin/bin/../lib/gcc/nios2-elf/3.4.6/../../../../nios2-elf/lib/libc.a(putc.o)
 .debug_frame   0x00002588       0x28 /cygdrive/c/altera/91/nios2eds/bin/nios2-gnutools/H-i686-pc-cygwin/bin/../lib/gcc/nios2-elf/3.4.6/../../../../nios2-elf/lib/libc.a(wbuf.o)
 .debug_frame   0x000025b0       0x48 ../controller_sw_bsp/libhal_bsp.a(alt_exit.o)

.debug_str      0x00000000     0x322f
 *(.debug_str)
 .debug_str     0x00000000       0x2f obj/collision_detection.o
 .debug_str     0x0000002f       0x64 obj/draw.o
 .debug_str     0x00000093       0x25 obj/ethernet_isr.o
 .debug_str     0x000000b8       0x2a obj/game_loop.o
 .debug_str     0x000000e2       0x56 obj/main.o
 .debug_str     0x00000138       0x41 obj/ship.o
 .debug_str     0x00000179       0x12 obj/util.o
 .debug_str     0x0000018b       0xe7 /cygdrive/c/altera/91/nios2eds/bin/nios2-gnutools/H-i686-pc-cygwin/bin/../lib/gcc/nios2-elf/3.4.6/../../../../nios2-elf/lib/libm.a(s_cos.o)
                                0x114 (size before relaxing)
 .debug_str     0x00000272       0x5a /cygdrive/c/altera/91/nios2eds/bin/nios2-gnutools/H-i686-pc-cygwin/bin/../lib/gcc/nios2-elf/3.4.6/../../../../nios2-elf/lib/libm.a(s_sin.o)
                                0x114 (size before relaxing)
 .debug_str     0x000002cc       0xb9 /cygdrive/c/altera/91/nios2eds/bin/nios2-gnutools/H-i686-pc-cygwin/bin/../lib/gcc/nios2-elf/3.4.6/../../../../nios2-elf/lib/libm.a(sf_round.o)
                                0x16f (size before relaxing)
 .debug_str     0x00000385       0xd6 /cygdrive/c/altera/91/nios2eds/bin/nios2-gnutools/H-i686-pc-cygwin/bin/../lib/gcc/nios2-elf/3.4.6/../../../../nios2-elf/lib/libm.a(w_sqrt.o)
                                0x190 (size before relaxing)
 .debug_str     0x0000045b       0xf2 /cygdrive/c/altera/91/nios2eds/bin/nios2-gnutools/H-i686-pc-cygwin/bin/../lib/gcc/nios2-elf/3.4.6/../../../../nios2-elf/lib/libm.a(e_rem_pio2.o)
                                0x1c8 (size before relaxing)
 .debug_str     0x0000054d       0x79 /cygdrive/c/altera/91/nios2eds/bin/nios2-gnutools/H-i686-pc-cygwin/bin/../lib/gcc/nios2-elf/3.4.6/../../../../nios2-elf/lib/libm.a(e_sqrt.o)
                                0x166 (size before relaxing)
 .debug_str     0x000005c6       0x67 /cygdrive/c/altera/91/nios2eds/bin/nios2-gnutools/H-i686-pc-cygwin/bin/../lib/gcc/nios2-elf/3.4.6/../../../../nios2-elf/lib/libm.a(k_cos.o)
                                0x154 (size before relaxing)
 .debug_str     0x0000062d       0x9b /cygdrive/c/altera/91/nios2eds/bin/nios2-gnutools/H-i686-pc-cygwin/bin/../lib/gcc/nios2-elf/3.4.6/../../../../nios2-elf/lib/libm.a(k_rem_pio2.o)
                                0x165 (size before relaxing)
 .debug_str     0x000006c8       0x67 /cygdrive/c/altera/91/nios2eds/bin/nios2-gnutools/H-i686-pc-cygwin/bin/../lib/gcc/nios2-elf/3.4.6/../../../../nios2-elf/lib/libm.a(k_sin.o)
                                0x126 (size before relaxing)
 .debug_str     0x0000072f       0x60 /cygdrive/c/altera/91/nios2eds/bin/nios2-gnutools/H-i686-pc-cygwin/bin/../lib/gcc/nios2-elf/3.4.6/../../../../nios2-elf/lib/libm.a(s_fabs.o)
                                0x148 (size before relaxing)
 .debug_str     0x0000078f       0x67 /cygdrive/c/altera/91/nios2eds/bin/nios2-gnutools/H-i686-pc-cygwin/bin/../lib/gcc/nios2-elf/3.4.6/../../../../nios2-elf/lib/libm.a(s_floor.o)
                                0x154 (size before relaxing)
 .debug_str     0x000007f6       0x62 /cygdrive/c/altera/91/nios2eds/bin/nios2-gnutools/H-i686-pc-cygwin/bin/../lib/gcc/nios2-elf/3.4.6/../../../../nios2-elf/lib/libm.a(s_isnan.o)
                                0x11c (size before relaxing)
 .debug_str     0x00000858       0x60 /cygdrive/c/altera/91/nios2eds/bin/nios2-gnutools/H-i686-pc-cygwin/bin/../lib/gcc/nios2-elf/3.4.6/../../../../nios2-elf/lib/libm.a(s_lib_ver.o)
                                0x16b (size before relaxing)
 .debug_str     0x000008b8       0x68 /cygdrive/c/altera/91/nios2eds/bin/nios2-gnutools/H-i686-pc-cygwin/bin/../lib/gcc/nios2-elf/3.4.6/../../../../nios2-elf/lib/libm.a(s_matherr.o)
                                0x13d (size before relaxing)
 .debug_str     0x00000920       0x73 /cygdrive/c/altera/91/nios2eds/bin/nios2-gnutools/H-i686-pc-cygwin/bin/../lib/gcc/nios2-elf/3.4.6/../../../../nios2-elf/lib/libm.a(s_scalbn.o)
                                0x174 (size before relaxing)
 .debug_str     0x00000993       0x6a /cygdrive/c/altera/91/nios2eds/bin/nios2-gnutools/H-i686-pc-cygwin/bin/../lib/gcc/nios2-elf/3.4.6/../../../../nios2-elf/lib/libm.a(s_copysign.o)
                                0x14d (size before relaxing)
 .debug_str     0x000009fd       0x68 /cygdrive/c/altera/91/nios2eds/bin/nios2-gnutools/H-i686-pc-cygwin/bin/../lib/gcc/nios2-elf/3.4.6/libgcc.a(_fixunssfsi.o)
                                0x124 (size before relaxing)
 .debug_str     0x00000a65      0x16e /cygdrive/c/altera/91/nios2eds/bin/nios2-gnutools/H-i686-pc-cygwin/bin/../lib/gcc/nios2-elf/3.4.6/libgcc.a(_addsub_sf.o)
                                0x255 (size before relaxing)
 .debug_str     0x00000bd3       0x25 /cygdrive/c/altera/91/nios2eds/bin/nios2-gnutools/H-i686-pc-cygwin/bin/../lib/gcc/nios2-elf/3.4.6/libgcc.a(_mul_sf.o)
                                0x212 (size before relaxing)
 .debug_str     0x00000bf8       0x35 /cygdrive/c/altera/91/nios2eds/bin/nios2-gnutools/H-i686-pc-cygwin/bin/../lib/gcc/nios2-elf/3.4.6/libgcc.a(_div_sf.o)
                                0x21d (size before relaxing)
 .debug_str     0x00000c2d        0x8 /cygdrive/c/altera/91/nios2eds/bin/nios2-gnutools/H-i686-pc-cygwin/bin/../lib/gcc/nios2-elf/3.4.6/libgcc.a(_eq_sf.o)
                                0x1f7 (size before relaxing)
 .debug_str     0x00000c35        0x8 /cygdrive/c/altera/91/nios2eds/bin/nios2-gnutools/H-i686-pc-cygwin/bin/../lib/gcc/nios2-elf/3.4.6/libgcc.a(_ne_sf.o)
                                0x1f7 (size before relaxing)
 .debug_str     0x00000c3d        0x8 /cygdrive/c/altera/91/nios2eds/bin/nios2-gnutools/H-i686-pc-cygwin/bin/../lib/gcc/nios2-elf/3.4.6/libgcc.a(_gt_sf.o)
                                0x1f7 (size before relaxing)
 .debug_str     0x00000c45        0x8 /cygdrive/c/altera/91/nios2eds/bin/nios2-gnutools/H-i686-pc-cygwin/bin/../lib/gcc/nios2-elf/3.4.6/libgcc.a(_ge_sf.o)
                                0x1f7 (size before relaxing)
 .debug_str     0x00000c4d        0x8 /cygdrive/c/altera/91/nios2eds/bin/nios2-gnutools/H-i686-pc-cygwin/bin/../lib/gcc/nios2-elf/3.4.6/libgcc.a(_lt_sf.o)
                                0x1f7 (size before relaxing)
 .debug_str     0x00000c55        0x8 /cygdrive/c/altera/91/nios2eds/bin/nios2-gnutools/H-i686-pc-cygwin/bin/../lib/gcc/nios2-elf/3.4.6/libgcc.a(_le_sf.o)
                                0x1f7 (size before relaxing)
 .debug_str     0x00000c5d        0xc /cygdrive/c/altera/91/nios2eds/bin/nios2-gnutools/H-i686-pc-cygwin/bin/../lib/gcc/nios2-elf/3.4.6/libgcc.a(_si_to_sf.o)
                                0x1cb (size before relaxing)
 .debug_str     0x00000c69       0x11 /cygdrive/c/altera/91/nios2eds/bin/nios2-gnutools/H-i686-pc-cygwin/bin/../lib/gcc/nios2-elf/3.4.6/libgcc.a(_sf_to_si.o)
                                0x1f4 (size before relaxing)
 .debug_str     0x00000c7a       0x15 /cygdrive/c/altera/91/nios2eds/bin/nios2-gnutools/H-i686-pc-cygwin/bin/../lib/gcc/nios2-elf/3.4.6/libgcc.a(_sf_to_df.o)
                                0x1f1 (size before relaxing)
 .debug_str     0x00000c8f       0x82 /cygdrive/c/altera/91/nios2eds/bin/nios2-gnutools/H-i686-pc-cygwin/bin/../lib/gcc/nios2-elf/3.4.6/libgcc.a(_addsub_df.o)
                                0x25b (size before relaxing)
 .debug_str     0x00000d11       0x33 /cygdrive/c/altera/91/nios2eds/bin/nios2-gnutools/H-i686-pc-cygwin/bin/../lib/gcc/nios2-elf/3.4.6/libgcc.a(_mul_df.o)
                                0x233 (size before relaxing)
 .debug_str     0x00000d44        0x9 /cygdrive/c/altera/91/nios2eds/bin/nios2-gnutools/H-i686-pc-cygwin/bin/../lib/gcc/nios2-elf/3.4.6/libgcc.a(_div_df.o)
                                0x223 (size before relaxing)
 .debug_str     0x00000d4d        0x8 /cygdrive/c/altera/91/nios2eds/bin/nios2-gnutools/H-i686-pc-cygwin/bin/../lib/gcc/nios2-elf/3.4.6/libgcc.a(_eq_df.o)
                                0x1fd (size before relaxing)
 .debug_str     0x00000d55        0x8 /cygdrive/c/altera/91/nios2eds/bin/nios2-gnutools/H-i686-pc-cygwin/bin/../lib/gcc/nios2-elf/3.4.6/libgcc.a(_ne_df.o)
                                0x1fd (size before relaxing)
 .debug_str     0x00000d5d        0x8 /cygdrive/c/altera/91/nios2eds/bin/nios2-gnutools/H-i686-pc-cygwin/bin/../lib/gcc/nios2-elf/3.4.6/libgcc.a(_gt_df.o)
                                0x1fd (size before relaxing)
 .debug_str     0x00000d65        0x8 /cygdrive/c/altera/91/nios2eds/bin/nios2-gnutools/H-i686-pc-cygwin/bin/../lib/gcc/nios2-elf/3.4.6/libgcc.a(_ge_df.o)
                                0x1fd (size before relaxing)
 .debug_str     0x00000d6d        0x8 /cygdrive/c/altera/91/nios2eds/bin/nios2-gnutools/H-i686-pc-cygwin/bin/../lib/gcc/nios2-elf/3.4.6/libgcc.a(_lt_df.o)
                                0x1fd (size before relaxing)
 .debug_str     0x00000d75        0xc /cygdrive/c/altera/91/nios2eds/bin/nios2-gnutools/H-i686-pc-cygwin/bin/../lib/gcc/nios2-elf/3.4.6/libgcc.a(_si_to_df.o)
                                0x1cb (size before relaxing)
 .debug_str     0x00000d81        0xa /cygdrive/c/altera/91/nios2eds/bin/nios2-gnutools/H-i686-pc-cygwin/bin/../lib/gcc/nios2-elf/3.4.6/libgcc.a(_df_to_si.o)
                                0x1fa (size before relaxing)
 .debug_str     0x00000d8b        0xa /cygdrive/c/altera/91/nios2eds/bin/nios2-gnutools/H-i686-pc-cygwin/bin/../lib/gcc/nios2-elf/3.4.6/libgcc.a(_make_df.o)
                                0x1b8 (size before relaxing)
 .debug_str     0x00000d95       0x14 /cygdrive/c/altera/91/nios2eds/bin/nios2-gnutools/H-i686-pc-cygwin/bin/../lib/gcc/nios2-elf/3.4.6/libgcc.a(_df_to_sf.o)
                                0x1fd (size before relaxing)
 .debug_str     0x00000da9       0xa2 /cygdrive/c/altera/91/nios2eds/bin/nios2-gnutools/H-i686-pc-cygwin/bin/../lib/gcc/nios2-elf/3.4.6/libgcc.a(lib2-divmod.o)
                                0x16d (size before relaxing)
 .debug_str     0x00000e4b       0x42 /cygdrive/c/altera/91/nios2eds/bin/nios2-gnutools/H-i686-pc-cygwin/bin/../lib/gcc/nios2-elf/3.4.6/libgcc.a(_muldi3.o)
                                0x165 (size before relaxing)
 .debug_str     0x00000e8d        0x9 /cygdrive/c/altera/91/nios2eds/bin/nios2-gnutools/H-i686-pc-cygwin/bin/../lib/gcc/nios2-elf/3.4.6/libgcc.a(_negdi2.o)
                                0x135 (size before relaxing)
 .debug_str     0x00000e96       0x12 /cygdrive/c/altera/91/nios2eds/bin/nios2-gnutools/H-i686-pc-cygwin/bin/../lib/gcc/nios2-elf/3.4.6/libgcc.a(_lshrdi3.o)
                                0x150 (size before relaxing)
 .debug_str     0x00000ea8       0x10 /cygdrive/c/altera/91/nios2eds/bin/nios2-gnutools/H-i686-pc-cygwin/bin/../lib/gcc/nios2-elf/3.4.6/libgcc.a(_pack_sf.o)
                                0x1f2 (size before relaxing)
 .debug_str     0x00000eb8        0xb /cygdrive/c/altera/91/nios2eds/bin/nios2-gnutools/H-i686-pc-cygwin/bin/../lib/gcc/nios2-elf/3.4.6/libgcc.a(_unpack_sf.o)
                                0x1e1 (size before relaxing)
 .debug_str     0x00000ec3       0x10 /cygdrive/c/altera/91/nios2eds/bin/nios2-gnutools/H-i686-pc-cygwin/bin/../lib/gcc/nios2-elf/3.4.6/libgcc.a(_fpcmp_parts_sf.o)
                                0x1b8 (size before relaxing)
 .debug_str     0x00000ed3        0xa /cygdrive/c/altera/91/nios2eds/bin/nios2-gnutools/H-i686-pc-cygwin/bin/../lib/gcc/nios2-elf/3.4.6/libgcc.a(_make_sf.o)
                                0x1b8 (size before relaxing)
 .debug_str     0x00000edd        0x9 /cygdrive/c/altera/91/nios2eds/bin/nios2-gnutools/H-i686-pc-cygwin/bin/../lib/gcc/nios2-elf/3.4.6/libgcc.a(_pack_df.o)
                                0x1f8 (size before relaxing)
 .debug_str     0x00000ee6        0xb /cygdrive/c/altera/91/nios2eds/bin/nios2-gnutools/H-i686-pc-cygwin/bin/../lib/gcc/nios2-elf/3.4.6/libgcc.a(_unpack_df.o)
                                0x1e7 (size before relaxing)
 .debug_str     0x00000ef1       0x10 /cygdrive/c/altera/91/nios2eds/bin/nios2-gnutools/H-i686-pc-cygwin/bin/../lib/gcc/nios2-elf/3.4.6/libgcc.a(_fpcmp_parts_df.o)
                                0x1b8 (size before relaxing)
 .debug_str     0x00000f01        0xa /cygdrive/c/altera/91/nios2eds/bin/nios2-gnutools/H-i686-pc-cygwin/bin/../lib/gcc/nios2-elf/3.4.6/libgcc.a(_ashldi3.o)
                                0x150 (size before relaxing)
 .debug_str     0x00000f0b      0x3b1 /cygdrive/c/altera/91/nios2eds/bin/nios2-gnutools/H-i686-pc-cygwin/bin/../lib/gcc/nios2-elf/3.4.6/../../../../nios2-elf/lib/libc.a(calloc.o)
                                0x48e (size before relaxing)
 .debug_str     0x000012bc       0xa2 /cygdrive/c/altera/91/nios2eds/bin/nios2-gnutools/H-i686-pc-cygwin/bin/../lib/gcc/nios2-elf/3.4.6/../../../../nios2-elf/lib/libc.a(callocr.o)
                                0x4c0 (size before relaxing)
 .debug_str     0x0000135e       0x63 /cygdrive/c/altera/91/nios2eds/bin/nios2-gnutools/H-i686-pc-cygwin/bin/../lib/gcc/nios2-elf/3.4.6/../../../../nios2-elf/lib/libc.a(errno.o)
                                0x481 (size before relaxing)
 .debug_str     0x000013c1       0x7a /cygdrive/c/altera/91/nios2eds/bin/nios2-gnutools/H-i686-pc-cygwin/bin/../lib/gcc/nios2-elf/3.4.6/../../../../nios2-elf/lib/libc.a(fopen.o)
                                0x4ad (size before relaxing)
 .debug_str     0x0000143b       0x74 /cygdrive/c/altera/91/nios2eds/bin/nios2-gnutools/H-i686-pc-cygwin/bin/../lib/gcc/nios2-elf/3.4.6/../../../../nios2-elf/lib/libc.a(fprintf.o)
                                0x493 (size before relaxing)
 .debug_str     0x000014af      0x14d /cygdrive/c/altera/91/nios2eds/bin/nios2-gnutools/H-i686-pc-cygwin/bin/../lib/gcc/nios2-elf/3.4.6/../../../../nios2-elf/lib/libc.a(fseek.o)
                                0x592 (size before relaxing)
 .debug_str     0x000015fc       0x6b /cygdrive/c/altera/91/nios2eds/bin/nios2-gnutools/H-i686-pc-cygwin/bin/../lib/gcc/nios2-elf/3.4.6/../../../../nios2-elf/lib/libc.a(fstatr.o)
                                0x551 (size before relaxing)
 .debug_str     0x00001667       0x68 /cygdrive/c/altera/91/nios2eds/bin/nios2-gnutools/H-i686-pc-cygwin/bin/../lib/gcc/nios2-elf/3.4.6/../../../../nios2-elf/lib/libc.a(impure.o)
                                0x486 (size before relaxing)
 .debug_str     0x000016cf       0x5f /cygdrive/c/altera/91/nios2eds/bin/nios2-gnutools/H-i686-pc-cygwin/bin/../lib/gcc/nios2-elf/3.4.6/../../../../nios2-elf/lib/libc.a(int_errno.o)
                                0x108 (size before relaxing)
 .debug_str     0x0000172e       0x73 /cygdrive/c/altera/91/nios2eds/bin/nios2-gnutools/H-i686-pc-cygwin/bin/../lib/gcc/nios2-elf/3.4.6/../../../../nios2-elf/lib/libc.a(makebuf.o)
                                0x570 (size before relaxing)
 .debug_str     0x000017a1       0x69 /cygdrive/c/altera/91/nios2eds/bin/nios2-gnutools/H-i686-pc-cygwin/bin/../lib/gcc/nios2-elf/3.4.6/../../../../nios2-elf/lib/libc.a(malloc.o)
                                0x49a (size before relaxing)
 .debug_str     0x0000180a      0x1a1 /cygdrive/c/altera/91/nios2eds/bin/nios2-gnutools/H-i686-pc-cygwin/bin/../lib/gcc/nios2-elf/3.4.6/../../../../nios2-elf/lib/libc.a(mallocr.o)
                                0x66f (size before relaxing)
 .debug_str     0x000019ab       0x8b /cygdrive/c/altera/91/nios2eds/bin/nios2-gnutools/H-i686-pc-cygwin/bin/../lib/gcc/nios2-elf/3.4.6/../../../../nios2-elf/lib/libc.a(memcpy.o)
                                 0xd8 (size before relaxing)
 .debug_str     0x00001a36       0x78 /cygdrive/c/altera/91/nios2eds/bin/nios2-gnutools/H-i686-pc-cygwin/bin/../lib/gcc/nios2-elf/3.4.6/../../../../nios2-elf/lib/libc.a(memset.o)
                                0x122 (size before relaxing)
 .debug_str     0x00001aae       0x63 /cygdrive/c/altera/91/nios2eds/bin/nios2-gnutools/H-i686-pc-cygwin/bin/../lib/gcc/nios2-elf/3.4.6/../../../../nios2-elf/lib/libc.a(openr.o)
                                0x48b (size before relaxing)
 .debug_str     0x00001b11       0x61 /cygdrive/c/altera/91/nios2eds/bin/nios2-gnutools/H-i686-pc-cygwin/bin/../lib/gcc/nios2-elf/3.4.6/../../../../nios2-elf/lib/libc.a(rand.o)
                                0x489 (size before relaxing)
 .debug_str     0x00001b72       0x6d /cygdrive/c/altera/91/nios2eds/bin/nios2-gnutools/H-i686-pc-cygwin/bin/../lib/gcc/nios2-elf/3.4.6/../../../../nios2-elf/lib/libc.a(refill.o)
                                0x490 (size before relaxing)
 .debug_str     0x00001bdf       0x77 /cygdrive/c/altera/91/nios2eds/bin/nios2-gnutools/H-i686-pc-cygwin/bin/../lib/gcc/nios2-elf/3.4.6/../../../../nios2-elf/lib/libc.a(sbrkr.o)
                                0x48f (size before relaxing)
 .debug_str     0x00001c56       0x70 /cygdrive/c/altera/91/nios2eds/bin/nios2-gnutools/H-i686-pc-cygwin/bin/../lib/gcc/nios2-elf/3.4.6/../../../../nios2-elf/lib/libc.a(sprintf.o)
                                0x4aa (size before relaxing)
 .debug_str     0x00001cc6       0x84 /cygdrive/c/altera/91/nios2eds/bin/nios2-gnutools/H-i686-pc-cygwin/bin/../lib/gcc/nios2-elf/3.4.6/../../../../nios2-elf/lib/libc.a(stdio.o)
                                0x4bc (size before relaxing)
 .debug_str     0x00001d4a       0x6a /cygdrive/c/altera/91/nios2eds/bin/nios2-gnutools/H-i686-pc-cygwin/bin/../lib/gcc/nios2-elf/3.4.6/../../../../nios2-elf/lib/libc.a(strlen.o)
                                0x121 (size before relaxing)
 .debug_str     0x00001db4      0x1d8 /cygdrive/c/altera/91/nios2eds/bin/nios2-gnutools/H-i686-pc-cygwin/bin/../lib/gcc/nios2-elf/3.4.6/../../../../nios2-elf/lib/libc.a(vfprintf1.o)
                                0x681 (size before relaxing)
 .debug_str     0x00001f8c       0x71 /cygdrive/c/altera/91/nios2eds/bin/nios2-gnutools/H-i686-pc-cygwin/bin/../lib/gcc/nios2-elf/3.4.6/../../../../nios2-elf/lib/libc.a(wcrtomb.o)
                                0x4af (size before relaxing)
 .debug_str     0x00001ffd       0x81 /cygdrive/c/altera/91/nios2eds/bin/nios2-gnutools/H-i686-pc-cygwin/bin/../lib/gcc/nios2-elf/3.4.6/../../../../nios2-elf/lib/libc.a(wcsrtombs.o)
                                0x4c4 (size before relaxing)
 .debug_str     0x0000207e       0x86 /cygdrive/c/altera/91/nios2eds/bin/nios2-gnutools/H-i686-pc-cygwin/bin/../lib/gcc/nios2-elf/3.4.6/../../../../nios2-elf/lib/libc.a(wctomb_r.o)
                                0x4b0 (size before relaxing)
 .debug_str     0x00002104       0x6e /cygdrive/c/altera/91/nios2eds/bin/nios2-gnutools/H-i686-pc-cygwin/bin/../lib/gcc/nios2-elf/3.4.6/../../../../nios2-elf/lib/libc.a(writer.o)
                                0x48d (size before relaxing)
 .debug_str     0x00002172       0x66 /cygdrive/c/altera/91/nios2eds/bin/nios2-gnutools/H-i686-pc-cygwin/bin/../lib/gcc/nios2-elf/3.4.6/../../../../nios2-elf/lib/libc.a(wsetup.o)
                                0x489 (size before relaxing)
 .debug_str     0x000021d8       0x65 /cygdrive/c/altera/91/nios2eds/bin/nios2-gnutools/H-i686-pc-cygwin/bin/../lib/gcc/nios2-elf/3.4.6/../../../../nios2-elf/lib/libc.a(closer.o)
                                0x47d (size before relaxing)
 .debug_str     0x0000223d      0x11e /cygdrive/c/altera/91/nios2eds/bin/nios2-gnutools/H-i686-pc-cygwin/bin/../lib/gcc/nios2-elf/3.4.6/../../../../nios2-elf/lib/libc.a(dtoa.o)
                                0x573 (size before relaxing)
 .debug_str     0x0000235b       0x63 /cygdrive/c/altera/91/nios2eds/bin/nios2-gnutools/H-i686-pc-cygwin/bin/../lib/gcc/nios2-elf/3.4.6/../../../../nios2-elf/lib/libc.a(fflush.o)
                                0x486 (size before relaxing)
 .debug_str     0x000023be       0x6f /cygdrive/c/altera/91/nios2eds/bin/nios2-gnutools/H-i686-pc-cygwin/bin/../lib/gcc/nios2-elf/3.4.6/../../../../nios2-elf/lib/libc.a(findfp.o)
                                0x4ab (size before relaxing)
 .debug_str     0x0000242d       0x76 /cygdrive/c/altera/91/nios2eds/bin/nios2-gnutools/H-i686-pc-cygwin/bin/../lib/gcc/nios2-elf/3.4.6/../../../../nios2-elf/lib/libc.a(findfp1.o)
                                0x49e (size before relaxing)
 .debug_str     0x000024a3       0x69 /cygdrive/c/altera/91/nios2eds/bin/nios2-gnutools/H-i686-pc-cygwin/bin/../lib/gcc/nios2-elf/3.4.6/../../../../nios2-elf/lib/libc.a(flags.o)
                                0x480 (size before relaxing)
 .debug_str     0x0000250c       0x3c /cygdrive/c/altera/91/nios2eds/bin/nios2-gnutools/H-i686-pc-cygwin/bin/../lib/gcc/nios2-elf/3.4.6/../../../../nios2-elf/lib/libc.a(freer.o)
                                0x5c1 (size before relaxing)
 .debug_str     0x00002548       0x7e /cygdrive/c/altera/91/nios2eds/bin/nios2-gnutools/H-i686-pc-cygwin/bin/../lib/gcc/nios2-elf/3.4.6/../../../../nios2-elf/lib/libc.a(fvwrite.o)
                                0x4e4 (size before relaxing)
 .debug_str     0x000025c6       0x6b /cygdrive/c/altera/91/nios2eds/bin/nios2-gnutools/H-i686-pc-cygwin/bin/../lib/gcc/nios2-elf/3.4.6/../../../../nios2-elf/lib/libc.a(fwalk.o)
                                0x48e (size before relaxing)
 .debug_str     0x00002631      0x1b0 /cygdrive/c/altera/91/nios2eds/bin/nios2-gnutools/H-i686-pc-cygwin/bin/../lib/gcc/nios2-elf/3.4.6/../../../../nios2-elf/lib/libc.a(locale.o)
                                0x627 (size before relaxing)
 .debug_str     0x000027e1       0x65 /cygdrive/c/altera/91/nios2eds/bin/nios2-gnutools/H-i686-pc-cygwin/bin/../lib/gcc/nios2-elf/3.4.6/../../../../nios2-elf/lib/libc.a(lseekr.o)
                                0x48b (size before relaxing)
 .debug_str     0x00002846       0x72 /cygdrive/c/altera/91/nios2eds/bin/nios2-gnutools/H-i686-pc-cygwin/bin/../lib/gcc/nios2-elf/3.4.6/../../../../nios2-elf/lib/libc.a(memchr.o)
                                0x12f (size before relaxing)
 .debug_str     0x000028b8       0x6f /cygdrive/c/altera/91/nios2eds/bin/nios2-gnutools/H-i686-pc-cygwin/bin/../lib/gcc/nios2-elf/3.4.6/../../../../nios2-elf/lib/libc.a(memmove.o)
                                0x141 (size before relaxing)
 .debug_str     0x00002927       0xf5 /cygdrive/c/altera/91/nios2eds/bin/nios2-gnutools/H-i686-pc-cygwin/bin/../lib/gcc/nios2-elf/3.4.6/../../../../nios2-elf/lib/libc.a(mprec.o)
                                0x55b (size before relaxing)
 .debug_str     0x00002a1c       0x63 /cygdrive/c/altera/91/nios2eds/bin/nios2-gnutools/H-i686-pc-cygwin/bin/../lib/gcc/nios2-elf/3.4.6/../../../../nios2-elf/lib/libc.a(readr.o)
                                0x48b (size before relaxing)
 .debug_str     0x00002a7f       0x61 /cygdrive/c/altera/91/nios2eds/bin/nios2-gnutools/H-i686-pc-cygwin/bin/../lib/gcc/nios2-elf/3.4.6/../../../../nios2-elf/lib/libc.a(reallocr.o)
                                0x541 (size before relaxing)
 .debug_str     0x00002ae0       0x62 /cygdrive/c/altera/91/nios2eds/bin/nios2-gnutools/H-i686-pc-cygwin/bin/../lib/gcc/nios2-elf/3.4.6/../../../../nios2-elf/lib/libc.a(s_isinf.o)
                                0x11c (size before relaxing)
 .debug_str     0x00002b42       0x64 /cygdrive/c/altera/91/nios2eds/bin/nios2-gnutools/H-i686-pc-cygwin/bin/../lib/gcc/nios2-elf/3.4.6/../../../../nios2-elf/lib/libc.a(strcmp.o)
                                0x107 (size before relaxing)
 .debug_str     0x00002ba6       0x4c /cygdrive/c/altera/91/nios2eds/bin/nios2-gnutools/H-i686-pc-cygwin/bin/../lib/gcc/nios2-elf/3.4.6/libgcc.a(_udivdi3.o)
                                0x1b0 (size before relaxing)
 .debug_str     0x00002bf2        0xa /cygdrive/c/altera/91/nios2eds/bin/nios2-gnutools/H-i686-pc-cygwin/bin/../lib/gcc/nios2-elf/3.4.6/libgcc.a(_umoddi3.o)
                                0x1b0 (size before relaxing)
 .debug_str     0x00002bfc       0x12 ../controller_sw_bsp/libhal_bsp.a(alt_close.o)
 .debug_str     0x00002c0e       0x12 ../controller_sw_bsp/libhal_bsp.a(alt_dev.o)
 .debug_str     0x00002c20       0x12 ../controller_sw_bsp/libhal_bsp.a(alt_errno.o)
 .debug_str     0x00002c32       0x12 ../controller_sw_bsp/libhal_bsp.a(alt_fstat.o)
 .debug_str     0x00002c44       0x30 ../controller_sw_bsp/libhal_bsp.a(alt_irq_register.o)
 .debug_str     0x00002c74       0x12 ../controller_sw_bsp/libhal_bsp.a(alt_isatty.o)
 .debug_str     0x00002c86       0x12 ../controller_sw_bsp/libhal_bsp.a(alt_lseek.o)
 .debug_str     0x00002c98       0x12 ../controller_sw_bsp/libhal_bsp.a(alt_main.o)
 .debug_str     0x00002caa       0x20 ../controller_sw_bsp/libhal_bsp.a(alt_malloc_lock.o)
 .debug_str     0x00002cca       0x12 ../controller_sw_bsp/libhal_bsp.a(alt_open.o)
 .debug_str     0x00002cdc       0x20 ../controller_sw_bsp/libhal_bsp.a(alt_putchar.o)
 .debug_str     0x00002cfc       0x12 ../controller_sw_bsp/libhal_bsp.a(alt_read.o)
 .debug_str     0x00002d0e       0x1a ../controller_sw_bsp/libhal_bsp.a(alt_sbrk.o)
 .debug_str     0x00002d28       0x12 ../controller_sw_bsp/libhal_bsp.a(alt_usleep.o)
 .debug_str     0x00002d3a       0x12 ../controller_sw_bsp/libhal_bsp.a(alt_write.o)
 .debug_str     0x00002d4c       0x55 ../controller_sw_bsp/libhal_bsp.a(alt_sys_init.o)
 .debug_str     0x00002da1       0x12 ../controller_sw_bsp/libhal_bsp.a(altera_avalon_jtag_uart_fd.o)
 .debug_str     0x00002db3       0x1a ../controller_sw_bsp/libhal_bsp.a(altera_avalon_jtag_uart_init.o)
 .debug_str     0x00002dcd       0x12 ../controller_sw_bsp/libhal_bsp.a(altera_avalon_jtag_uart_ioctl.o)
 .debug_str     0x00002ddf       0x1a ../controller_sw_bsp/libhal_bsp.a(altera_avalon_jtag_uart_read.o)
 .debug_str     0x00002df9       0x1a ../controller_sw_bsp/libhal_bsp.a(altera_avalon_jtag_uart_write.o)
 .debug_str     0x00002e13       0x25 ../controller_sw_bsp/libhal_bsp.a(altera_avalon_lcd_16207.o)
 .debug_str     0x00002e38       0x12 ../controller_sw_bsp/libhal_bsp.a(altera_avalon_lcd_16207_fd.o)
 .debug_str     0x00002e4a       0x12 ../controller_sw_bsp/libhal_bsp.a(altera_avalon_timer_sc.o)
 .debug_str     0x00002e5c       0x8f ../controller_sw_bsp/libhal_bsp.a(altera_up_avalon_pixel_buffer.o)
 .debug_str     0x00002eeb       0x23 ../controller_sw_bsp/libhal_bsp.a(alt_alarm_start.o)
 .debug_str     0x00002f0e       0x12 ../controller_sw_bsp/libhal_bsp.a(alt_busy_sleep.o)
 .debug_str     0x00002f20       0x12 ../controller_sw_bsp/libhal_bsp.a(alt_dev_llist_insert.o)
 .debug_str     0x00002f32       0x12 ../controller_sw_bsp/libhal_bsp.a(alt_find_dev.o)
 .debug_str     0x00002f44       0x12 ../controller_sw_bsp/libhal_bsp.a(alt_find_file.o)
 .debug_str     0x00002f56       0x12 ../controller_sw_bsp/libhal_bsp.a(alt_get_fd.o)
 .debug_str     0x00002f68       0x12 ../controller_sw_bsp/libhal_bsp.a(alt_io_redirect.o)
 .debug_str     0x00002f7a       0x12 ../controller_sw_bsp/libhal_bsp.a(alt_irq_handler.o)
 .debug_str     0x00002f8c       0x1a ../controller_sw_bsp/libhal_bsp.a(alt_tick.o)
 .debug_str     0x00002fa6       0x12 ../controller_sw_bsp/libhal_bsp.a(altera_nios2_irq.o)
 .debug_str     0x00002fb8       0x5d /cygdrive/c/altera/91/nios2eds/bin/nios2-gnutools/H-i686-pc-cygwin/bin/../lib/gcc/nios2-elf/3.4.6/../../../../nios2-elf/lib/libc.a(atexit.o)
                                0x487 (size before relaxing)
 .debug_str     0x00003015       0x79 /cygdrive/c/altera/91/nios2eds/bin/nios2-gnutools/H-i686-pc-cygwin/bin/../lib/gcc/nios2-elf/3.4.6/../../../../nios2-elf/lib/libc.a(ctype_.o)
                                 0xb6 (size before relaxing)
 .debug_str     0x0000308e       0x60 /cygdrive/c/altera/91/nios2eds/bin/nios2-gnutools/H-i686-pc-cygwin/bin/../lib/gcc/nios2-elf/3.4.6/../../../../nios2-elf/lib/libc.a(exit.o)
                                0x488 (size before relaxing)
 .debug_str     0x000030ee       0x64 /cygdrive/c/altera/91/nios2eds/bin/nios2-gnutools/H-i686-pc-cygwin/bin/../lib/gcc/nios2-elf/3.4.6/../../../../nios2-elf/lib/libc.a(memcmp.o)
                                0x10e (size before relaxing)
 .debug_str     0x00003152       0x5f /cygdrive/c/altera/91/nios2eds/bin/nios2-gnutools/H-i686-pc-cygwin/bin/../lib/gcc/nios2-elf/3.4.6/../../../../nios2-elf/lib/libc.a(putc.o)
                                0x47d (size before relaxing)
 .debug_str     0x000031b1       0x62 /cygdrive/c/altera/91/nios2eds/bin/nios2-gnutools/H-i686-pc-cygwin/bin/../lib/gcc/nios2-elf/3.4.6/../../../../nios2-elf/lib/libc.a(wbuf.o)
                                0x485 (size before relaxing)
 .debug_str     0x00003213       0x1c ../controller_sw_bsp/libhal_bsp.a(alt_exit.o)

.debug_loc
 *(.debug_loc)

.debug_macinfo
 *(.debug_macinfo)

.debug_weaknames
 *(.debug_weaknames)

.debug_funcnames
 *(.debug_funcnames)

.debug_typenames
 *(.debug_typenames)

.debug_varnames
 *(.debug_varnames)

.debug_alt_sim_info
                0x00000000       0x60
 *(.debug_alt_sim_info)
 .debug_alt_sim_info
                0x00000000       0x30 ../controller_sw_bsp/obj/HAL/src/crt0.o
 .debug_alt_sim_info
                0x00000030       0x30 ../controller_sw_bsp/libhal_bsp.a(alt_busy_sleep.o)
                0x01000000                __alt_data_end = 0x1000000
                0x01000000                PROVIDE (__alt_stack_pointer, __alt_data_end)
                0x0081c64c                PROVIDE (__alt_stack_limit, __alt_stack_base)
                0x0081c64c                PROVIDE (__alt_heap_start, end)
                0x01000000                PROVIDE (__alt_heap_limit, 0x1000000)
OUTPUT(controller_sw.elf elf32-littlenios2)

.debug_ranges   0x00000060      0x6b0
 .debug_ranges  0x00000060       0x18 /cygdrive/c/altera/91/nios2eds/bin/nios2-gnutools/H-i686-pc-cygwin/bin/../lib/gcc/nios2-elf/3.4.6/../../../../nios2-elf/lib/libm.a(sf_round.o)
 .debug_ranges  0x00000078       0x18 /cygdrive/c/altera/91/nios2eds/bin/nios2-gnutools/H-i686-pc-cygwin/bin/../lib/gcc/nios2-elf/3.4.6/../../../../nios2-elf/lib/libm.a(e_rem_pio2.o)
 .debug_ranges  0x00000090       0x18 /cygdrive/c/altera/91/nios2eds/bin/nios2-gnutools/H-i686-pc-cygwin/bin/../lib/gcc/nios2-elf/3.4.6/../../../../nios2-elf/lib/libm.a(s_floor.o)
 .debug_ranges  0x000000a8       0x18 /cygdrive/c/altera/91/nios2eds/bin/nios2-gnutools/H-i686-pc-cygwin/bin/../lib/gcc/nios2-elf/3.4.6/../../../../nios2-elf/lib/libm.a(s_scalbn.o)
 .debug_ranges  0x000000c0       0x18 /cygdrive/c/altera/91/nios2eds/bin/nios2-gnutools/H-i686-pc-cygwin/bin/../lib/gcc/nios2-elf/3.4.6/../../../../nios2-elf/lib/libm.a(s_copysign.o)
 .debug_ranges  0x000000d8       0x20 /cygdrive/c/altera/91/nios2eds/bin/nios2-gnutools/H-i686-pc-cygwin/bin/../lib/gcc/nios2-elf/3.4.6/libgcc.a(_addsub_sf.o)
 .debug_ranges  0x000000f8       0x50 /cygdrive/c/altera/91/nios2eds/bin/nios2-gnutools/H-i686-pc-cygwin/bin/../lib/gcc/nios2-elf/3.4.6/libgcc.a(_mul_sf.o)
 .debug_ranges  0x00000148       0x20 /cygdrive/c/altera/91/nios2eds/bin/nios2-gnutools/H-i686-pc-cygwin/bin/../lib/gcc/nios2-elf/3.4.6/libgcc.a(_div_sf.o)
 .debug_ranges  0x00000168       0x20 /cygdrive/c/altera/91/nios2eds/bin/nios2-gnutools/H-i686-pc-cygwin/bin/../lib/gcc/nios2-elf/3.4.6/libgcc.a(_addsub_df.o)
 .debug_ranges  0x00000188       0x60 /cygdrive/c/altera/91/nios2eds/bin/nios2-gnutools/H-i686-pc-cygwin/bin/../lib/gcc/nios2-elf/3.4.6/libgcc.a(_mul_df.o)
 .debug_ranges  0x000001e8       0x20 /cygdrive/c/altera/91/nios2eds/bin/nios2-gnutools/H-i686-pc-cygwin/bin/../lib/gcc/nios2-elf/3.4.6/libgcc.a(_div_df.o)
 .debug_ranges  0x00000208       0x90 /cygdrive/c/altera/91/nios2eds/bin/nios2-gnutools/H-i686-pc-cygwin/bin/../lib/gcc/nios2-elf/3.4.6/libgcc.a(_muldi3.o)
 .debug_ranges  0x00000298       0x20 /cygdrive/c/altera/91/nios2eds/bin/nios2-gnutools/H-i686-pc-cygwin/bin/../lib/gcc/nios2-elf/3.4.6/libgcc.a(_lshrdi3.o)
 .debug_ranges  0x000002b8       0x18 /cygdrive/c/altera/91/nios2eds/bin/nios2-gnutools/H-i686-pc-cygwin/bin/../lib/gcc/nios2-elf/3.4.6/libgcc.a(_pack_sf.o)
 .debug_ranges  0x000002d0       0x18 /cygdrive/c/altera/91/nios2eds/bin/nios2-gnutools/H-i686-pc-cygwin/bin/../lib/gcc/nios2-elf/3.4.6/libgcc.a(_pack_df.o)
 .debug_ranges  0x000002e8       0x18 /cygdrive/c/altera/91/nios2eds/bin/nios2-gnutools/H-i686-pc-cygwin/bin/../lib/gcc/nios2-elf/3.4.6/libgcc.a(_ashldi3.o)
 .debug_ranges  0x00000300       0x20 /cygdrive/c/altera/91/nios2eds/bin/nios2-gnutools/H-i686-pc-cygwin/bin/../lib/gcc/nios2-elf/3.4.6/../../../../nios2-elf/lib/libc.a(callocr.o)
 .debug_ranges  0x00000320       0x30 /cygdrive/c/altera/91/nios2eds/bin/nios2-gnutools/H-i686-pc-cygwin/bin/../lib/gcc/nios2-elf/3.4.6/../../../../nios2-elf/lib/libc.a(mallocr.o)
 .debug_ranges  0x00000350       0x80 /cygdrive/c/altera/91/nios2eds/bin/nios2-gnutools/H-i686-pc-cygwin/bin/../lib/gcc/nios2-elf/3.4.6/../../../../nios2-elf/lib/libc.a(vfprintf1.o)
 .debug_ranges  0x000003d0       0x18 /cygdrive/c/altera/91/nios2eds/bin/nios2-gnutools/H-i686-pc-cygwin/bin/../lib/gcc/nios2-elf/3.4.6/../../../../nios2-elf/lib/libc.a(wcsrtombs.o)
 .debug_ranges  0x000003e8       0x60 /cygdrive/c/altera/91/nios2eds/bin/nios2-gnutools/H-i686-pc-cygwin/bin/../lib/gcc/nios2-elf/3.4.6/../../../../nios2-elf/lib/libc.a(wctomb_r.o)
 .debug_ranges  0x00000448       0x60 /cygdrive/c/altera/91/nios2eds/bin/nios2-gnutools/H-i686-pc-cygwin/bin/../lib/gcc/nios2-elf/3.4.6/../../../../nios2-elf/lib/libc.a(reallocr.o)
 .debug_ranges  0x000004a8      0x130 /cygdrive/c/altera/91/nios2eds/bin/nios2-gnutools/H-i686-pc-cygwin/bin/../lib/gcc/nios2-elf/3.4.6/libgcc.a(_udivdi3.o)
 .debug_ranges  0x000005d8      0x138 /cygdrive/c/altera/91/nios2eds/bin/nios2-gnutools/H-i686-pc-cygwin/bin/../lib/gcc/nios2-elf/3.4.6/libgcc.a(_umoddi3.o)
